ARM GAS  C:\Users\TSUBAS~1\AppData\Local\Temp\cci7aTgA.s 			page 1


   1              		.cpu cortex-m0
   2              		.fpu softvfp
   3              		.eabi_attribute 20, 1
   4              		.eabi_attribute 21, 1
   5              		.eabi_attribute 23, 3
   6              		.eabi_attribute 24, 1
   7              		.eabi_attribute 25, 1
   8              		.eabi_attribute 26, 1
   9              		.eabi_attribute 30, 6
  10              		.eabi_attribute 34, 0
  11              		.eabi_attribute 18, 4
  12              		.code	16
  13              		.file	"CapSense_1_TunerHelper.c"
  14              		.text
  15              	.Ltext0:
  16              		.cfi_sections	.debug_frame
  17              		.section	.text.CapSense_1_TunerStart,"ax",%progbits
  18              		.align	2
  19              		.global	CapSense_1_TunerStart
  20              		.code	16
  21              		.thumb_func
  22              		.type	CapSense_1_TunerStart, %function
  23              	CapSense_1_TunerStart:
  24              	.LFB33:
  25              		.file 1 ".\\Generated_Source\\PSoC4\\CapSense_1_TunerHelper.c"
   1:.\Generated_Source\PSoC4/CapSense_1_TunerHelper.c **** /*******************************************************************************
   2:.\Generated_Source\PSoC4/CapSense_1_TunerHelper.c **** * File Name: CapSense_1_TunerHelper.c
   3:.\Generated_Source\PSoC4/CapSense_1_TunerHelper.c **** * Version 2.0
   4:.\Generated_Source\PSoC4/CapSense_1_TunerHelper.c **** *
   5:.\Generated_Source\PSoC4/CapSense_1_TunerHelper.c **** * Description:
   6:.\Generated_Source\PSoC4/CapSense_1_TunerHelper.c **** *  This file provides the source code of the Tuner helper APIs for the CapSense CSD 
   7:.\Generated_Source\PSoC4/CapSense_1_TunerHelper.c **** *  component.
   8:.\Generated_Source\PSoC4/CapSense_1_TunerHelper.c **** *
   9:.\Generated_Source\PSoC4/CapSense_1_TunerHelper.c **** * Note:
  10:.\Generated_Source\PSoC4/CapSense_1_TunerHelper.c **** *
  11:.\Generated_Source\PSoC4/CapSense_1_TunerHelper.c **** ********************************************************************************
  12:.\Generated_Source\PSoC4/CapSense_1_TunerHelper.c **** * Copyright 2014, Cypress Semiconductor Corporation.  All rights reserved.
  13:.\Generated_Source\PSoC4/CapSense_1_TunerHelper.c **** * You may use this file only in accordance with the license, terms, conditions,
  14:.\Generated_Source\PSoC4/CapSense_1_TunerHelper.c **** * disclaimers, and limitations in the end user license agreement accompanying
  15:.\Generated_Source\PSoC4/CapSense_1_TunerHelper.c **** * the software package with which this file was provided.
  16:.\Generated_Source\PSoC4/CapSense_1_TunerHelper.c **** *******************************************************************************/
  17:.\Generated_Source\PSoC4/CapSense_1_TunerHelper.c **** 
  18:.\Generated_Source\PSoC4/CapSense_1_TunerHelper.c **** #include "CapSense_1_TunerHelper.h"
  19:.\Generated_Source\PSoC4/CapSense_1_TunerHelper.c **** 
  20:.\Generated_Source\PSoC4/CapSense_1_TunerHelper.c **** #if (CapSense_1_TUNER_API_GENERATE)
  21:.\Generated_Source\PSoC4/CapSense_1_TunerHelper.c ****     #include "SCB.h"
  22:.\Generated_Source\PSoC4/CapSense_1_TunerHelper.c ****     #include "SCB_EZI2C.h"
  23:.\Generated_Source\PSoC4/CapSense_1_TunerHelper.c ****     volatile CapSense_1_MAILBOXES CapSense_1_mailboxesComm;
  24:.\Generated_Source\PSoC4/CapSense_1_TunerHelper.c ****     extern uint8 CapSense_1_sensorOnMask[(((CapSense_1_TOTAL_SENSOR_COUNT - 1u) / 8u) + 1u)];
  25:.\Generated_Source\PSoC4/CapSense_1_TunerHelper.c **** #endif  /* (CapSense_1_TUNER_API_GENERATE) */
  26:.\Generated_Source\PSoC4/CapSense_1_TunerHelper.c **** 
  27:.\Generated_Source\PSoC4/CapSense_1_TunerHelper.c **** 
  28:.\Generated_Source\PSoC4/CapSense_1_TunerHelper.c **** /*******************************************************************************
  29:.\Generated_Source\PSoC4/CapSense_1_TunerHelper.c **** * Function Name: CapSense_1_TunerStart
  30:.\Generated_Source\PSoC4/CapSense_1_TunerHelper.c **** ********************************************************************************
  31:.\Generated_Source\PSoC4/CapSense_1_TunerHelper.c **** *
  32:.\Generated_Source\PSoC4/CapSense_1_TunerHelper.c **** * Summary:
ARM GAS  C:\Users\TSUBAS~1\AppData\Local\Temp\cci7aTgA.s 			page 2


  33:.\Generated_Source\PSoC4/CapSense_1_TunerHelper.c **** *  Initializes the CapSense CSD component and EzI2C communication component to use
  34:.\Generated_Source\PSoC4/CapSense_1_TunerHelper.c **** *  a mailbox data structure for communication with the Tuner GUI.
  35:.\Generated_Source\PSoC4/CapSense_1_TunerHelper.c **** *  Start the scanning, after initialization is complete.
  36:.\Generated_Source\PSoC4/CapSense_1_TunerHelper.c **** *
  37:.\Generated_Source\PSoC4/CapSense_1_TunerHelper.c **** * Parameters:
  38:.\Generated_Source\PSoC4/CapSense_1_TunerHelper.c **** *  None
  39:.\Generated_Source\PSoC4/CapSense_1_TunerHelper.c **** *
  40:.\Generated_Source\PSoC4/CapSense_1_TunerHelper.c **** * Return:
  41:.\Generated_Source\PSoC4/CapSense_1_TunerHelper.c **** *  None
  42:.\Generated_Source\PSoC4/CapSense_1_TunerHelper.c **** *
  43:.\Generated_Source\PSoC4/CapSense_1_TunerHelper.c **** * Global Variables:
  44:.\Generated_Source\PSoC4/CapSense_1_TunerHelper.c **** *  None
  45:.\Generated_Source\PSoC4/CapSense_1_TunerHelper.c **** *
  46:.\Generated_Source\PSoC4/CapSense_1_TunerHelper.c **** * Side Effects:
  47:.\Generated_Source\PSoC4/CapSense_1_TunerHelper.c **** *  None
  48:.\Generated_Source\PSoC4/CapSense_1_TunerHelper.c **** *
  49:.\Generated_Source\PSoC4/CapSense_1_TunerHelper.c **** *******************************************************************************/
  50:.\Generated_Source\PSoC4/CapSense_1_TunerHelper.c **** void CapSense_1_TunerStart(void)
  51:.\Generated_Source\PSoC4/CapSense_1_TunerHelper.c **** {
  26              		.loc 1 51 0
  27              		.cfi_startproc
  28 0000 80B5     		push	{r7, lr}
  29              	.LCFI0:
  30              		.cfi_def_cfa_offset 8
  31              		.cfi_offset 7, -8
  32              		.cfi_offset 14, -4
  33 0002 00AF     		add	r7, sp, #0
  34              	.LCFI1:
  35              		.cfi_def_cfa_register 7
  52:.\Generated_Source\PSoC4/CapSense_1_TunerHelper.c ****     #if (CapSense_1_TUNER_API_GENERATE)
  53:.\Generated_Source\PSoC4/CapSense_1_TunerHelper.c ****         
  54:.\Generated_Source\PSoC4/CapSense_1_TunerHelper.c ****         /* Init mbx and quick check */
  55:.\Generated_Source\PSoC4/CapSense_1_TunerHelper.c ****         CapSense_1_InitMailbox(&CapSense_1_mailboxesComm.csdMailbox);
  56:.\Generated_Source\PSoC4/CapSense_1_TunerHelper.c ****         CapSense_1_mailboxesComm.numMailBoxes = CapSense_1_DEFAULT_MAILBOXES_NUMBER;
  57:.\Generated_Source\PSoC4/CapSense_1_TunerHelper.c ****         
  58:.\Generated_Source\PSoC4/CapSense_1_TunerHelper.c ****         /* Start CapSense and baselines */
  59:.\Generated_Source\PSoC4/CapSense_1_TunerHelper.c ****         CapSense_1_Start();
  60:.\Generated_Source\PSoC4/CapSense_1_TunerHelper.c ****         
  61:.\Generated_Source\PSoC4/CapSense_1_TunerHelper.c ****         /* Initialize baselines */ 
  62:.\Generated_Source\PSoC4/CapSense_1_TunerHelper.c ****         CapSense_1_InitializeEnabledBaselines();
  63:.\Generated_Source\PSoC4/CapSense_1_TunerHelper.c ****         CapSense_1_InitializeEnabledBaselines();
  64:.\Generated_Source\PSoC4/CapSense_1_TunerHelper.c ****         
  65:.\Generated_Source\PSoC4/CapSense_1_TunerHelper.c ****         /* Start EzI2C, clears buf pointers */
  66:.\Generated_Source\PSoC4/CapSense_1_TunerHelper.c ****         SCB_Start();
  67:.\Generated_Source\PSoC4/CapSense_1_TunerHelper.c ****         
  68:.\Generated_Source\PSoC4/CapSense_1_TunerHelper.c ****         /* Setup EzI2C buffers */
  69:.\Generated_Source\PSoC4/CapSense_1_TunerHelper.c ****         SCB_EzI2CSetBuffer1(sizeof(CapSense_1_mailboxesComm), sizeof(CapSense_1_mailboxesComm),
  70:.\Generated_Source\PSoC4/CapSense_1_TunerHelper.c ****                                         (volatile uint8 *) &CapSense_1_mailboxesComm);
  71:.\Generated_Source\PSoC4/CapSense_1_TunerHelper.c ****         
  72:.\Generated_Source\PSoC4/CapSense_1_TunerHelper.c ****         /* Starts scan all enabled sensors */
  73:.\Generated_Source\PSoC4/CapSense_1_TunerHelper.c ****         CapSense_1_ScanEnabledWidgets();
  74:.\Generated_Source\PSoC4/CapSense_1_TunerHelper.c ****     
  75:.\Generated_Source\PSoC4/CapSense_1_TunerHelper.c ****     #endif  /* (CapSense_1_TUNER_API_GENERATE) */
  76:.\Generated_Source\PSoC4/CapSense_1_TunerHelper.c **** }
  36              		.loc 1 76 0
  37 0004 BD46     		mov	sp, r7
  38              		@ sp needed for prologue
ARM GAS  C:\Users\TSUBAS~1\AppData\Local\Temp\cci7aTgA.s 			page 3


  39 0006 80BD     		pop	{r7, pc}
  40              		.cfi_endproc
  41              	.LFE33:
  42              		.size	CapSense_1_TunerStart, .-CapSense_1_TunerStart
  43              		.section	.text.CapSense_1_TunerComm,"ax",%progbits
  44              		.align	2
  45              		.global	CapSense_1_TunerComm
  46              		.code	16
  47              		.thumb_func
  48              		.type	CapSense_1_TunerComm, %function
  49              	CapSense_1_TunerComm:
  50              	.LFB34:
  77:.\Generated_Source\PSoC4/CapSense_1_TunerHelper.c **** 
  78:.\Generated_Source\PSoC4/CapSense_1_TunerHelper.c **** 
  79:.\Generated_Source\PSoC4/CapSense_1_TunerHelper.c **** /*******************************************************************************
  80:.\Generated_Source\PSoC4/CapSense_1_TunerHelper.c **** * Function Name: CapSense_1_TunerComm
  81:.\Generated_Source\PSoC4/CapSense_1_TunerHelper.c **** ********************************************************************************
  82:.\Generated_Source\PSoC4/CapSense_1_TunerHelper.c **** *
  83:.\Generated_Source\PSoC4/CapSense_1_TunerHelper.c **** * Summary:
  84:.\Generated_Source\PSoC4/CapSense_1_TunerHelper.c **** *  This function is blocking. It waits till scanning loop is completed and applies
  85:.\Generated_Source\PSoC4/CapSense_1_TunerHelper.c **** *  the new parameters from the Tuner GUI if available (the manual tuning mode only). Updates
  86:.\Generated_Source\PSoC4/CapSense_1_TunerHelper.c **** *  the enabled baselines and state of widgets. Waits while the Tuner GUI reports that 
  87:.\Generated_Source\PSoC4/CapSense_1_TunerHelper.c **** *  the mailbox content  could be modified. Then loads the report data into the outbox 
  88:.\Generated_Source\PSoC4/CapSense_1_TunerHelper.c **** *  and sets a busy flag. Starts a new scanning loop.
  89:.\Generated_Source\PSoC4/CapSense_1_TunerHelper.c **** *  
  90:.\Generated_Source\PSoC4/CapSense_1_TunerHelper.c **** * Parameters:
  91:.\Generated_Source\PSoC4/CapSense_1_TunerHelper.c **** *  None
  92:.\Generated_Source\PSoC4/CapSense_1_TunerHelper.c **** *
  93:.\Generated_Source\PSoC4/CapSense_1_TunerHelper.c **** * Return:
  94:.\Generated_Source\PSoC4/CapSense_1_TunerHelper.c **** *  None
  95:.\Generated_Source\PSoC4/CapSense_1_TunerHelper.c **** *
  96:.\Generated_Source\PSoC4/CapSense_1_TunerHelper.c **** * Global Variables:
  97:.\Generated_Source\PSoC4/CapSense_1_TunerHelper.c **** *  None
  98:.\Generated_Source\PSoC4/CapSense_1_TunerHelper.c **** *
  99:.\Generated_Source\PSoC4/CapSense_1_TunerHelper.c **** * Side Effects:
 100:.\Generated_Source\PSoC4/CapSense_1_TunerHelper.c **** *  None
 101:.\Generated_Source\PSoC4/CapSense_1_TunerHelper.c **** *
 102:.\Generated_Source\PSoC4/CapSense_1_TunerHelper.c **** *******************************************************************************/
 103:.\Generated_Source\PSoC4/CapSense_1_TunerHelper.c **** void CapSense_1_TunerComm(void)
 104:.\Generated_Source\PSoC4/CapSense_1_TunerHelper.c **** {
  51              		.loc 1 104 0
  52              		.cfi_startproc
  53 0000 80B5     		push	{r7, lr}
  54              	.LCFI2:
  55              		.cfi_def_cfa_offset 8
  56              		.cfi_offset 7, -8
  57              		.cfi_offset 14, -4
  58 0002 00AF     		add	r7, sp, #0
  59              	.LCFI3:
  60              		.cfi_def_cfa_register 7
 105:.\Generated_Source\PSoC4/CapSense_1_TunerHelper.c ****     #if (CapSense_1_TUNER_API_GENERATE)
 106:.\Generated_Source\PSoC4/CapSense_1_TunerHelper.c ****         if (0u == CapSense_1_IsBusy())
 107:.\Generated_Source\PSoC4/CapSense_1_TunerHelper.c ****         {   
 108:.\Generated_Source\PSoC4/CapSense_1_TunerHelper.c ****             /* Apply new settings */
 109:.\Generated_Source\PSoC4/CapSense_1_TunerHelper.c ****             #if (CapSense_1_TUNING_METHOD == CapSense_1__TUNING_MANUAL)
 110:.\Generated_Source\PSoC4/CapSense_1_TunerHelper.c ****                 CapSense_1_ReadMessage(&CapSense_1_mailboxesComm.csdMailbox);
 111:.\Generated_Source\PSoC4/CapSense_1_TunerHelper.c ****             #endif  /* (CapSense_1_TUNING_METHOD == CapSense_1__TUNING_MANUAL) */
ARM GAS  C:\Users\TSUBAS~1\AppData\Local\Temp\cci7aTgA.s 			page 4


 112:.\Generated_Source\PSoC4/CapSense_1_TunerHelper.c **** 
 113:.\Generated_Source\PSoC4/CapSense_1_TunerHelper.c ****             /* Update all baselines and process all widgets */
 114:.\Generated_Source\PSoC4/CapSense_1_TunerHelper.c ****             CapSense_1_UpdateEnabledBaselines();
 115:.\Generated_Source\PSoC4/CapSense_1_TunerHelper.c ****             CapSense_1_ProcessAllWidgets(&CapSense_1_mailboxesComm.csdMailbox.outbox);
 116:.\Generated_Source\PSoC4/CapSense_1_TunerHelper.c ****             CapSense_1_PostMessage(&CapSense_1_mailboxesComm.csdMailbox);
 117:.\Generated_Source\PSoC4/CapSense_1_TunerHelper.c **** 
 118:.\Generated_Source\PSoC4/CapSense_1_TunerHelper.c ****             /* Enable EZI2C interrupts, after scan complete */
 119:.\Generated_Source\PSoC4/CapSense_1_TunerHelper.c ****             SCB_EnableInt();
 120:.\Generated_Source\PSoC4/CapSense_1_TunerHelper.c **** 
 121:.\Generated_Source\PSoC4/CapSense_1_TunerHelper.c ****             while((CapSense_1_mailboxesComm.csdMailbox.type != CapSense_1_TYPE_ID) || \
 122:.\Generated_Source\PSoC4/CapSense_1_TunerHelper.c **** 			      (0u != (SCB_EzI2CGetActivity() & SCB_EZI2C_STATUS_BUSY))){;}
 123:.\Generated_Source\PSoC4/CapSense_1_TunerHelper.c ****             
 124:.\Generated_Source\PSoC4/CapSense_1_TunerHelper.c ****             /* Disable EZI2C interrupts, while scanning */
 125:.\Generated_Source\PSoC4/CapSense_1_TunerHelper.c ****             SCB_DisableInt();
 126:.\Generated_Source\PSoC4/CapSense_1_TunerHelper.c ****             
 127:.\Generated_Source\PSoC4/CapSense_1_TunerHelper.c ****             /* Start scan all sensors */
 128:.\Generated_Source\PSoC4/CapSense_1_TunerHelper.c ****             CapSense_1_ScanEnabledWidgets();
 129:.\Generated_Source\PSoC4/CapSense_1_TunerHelper.c ****         }
 130:.\Generated_Source\PSoC4/CapSense_1_TunerHelper.c ****     #endif /* (CapSense_1_TUNER_API_GENERATE) */
 131:.\Generated_Source\PSoC4/CapSense_1_TunerHelper.c **** 
 132:.\Generated_Source\PSoC4/CapSense_1_TunerHelper.c **** }
  61              		.loc 1 132 0
  62 0004 BD46     		mov	sp, r7
  63              		@ sp needed for prologue
  64 0006 80BD     		pop	{r7, pc}
  65              		.cfi_endproc
  66              	.LFE34:
  67              		.size	CapSense_1_TunerComm, .-CapSense_1_TunerComm
  68              		.text
  69              	.Letext0: