ARM GAS  C:\Users\TSUBAS~1\AppData\Local\Temp\ccW5s39m.s 			page 1


   1              		.cpu cortex-m0
   2              		.fpu softvfp
   3              		.eabi_attribute 20, 1
   4              		.eabi_attribute 21, 1
   5              		.eabi_attribute 23, 3
   6              		.eabi_attribute 24, 1
   7              		.eabi_attribute 25, 1
   8              		.eabi_attribute 26, 1
   9              		.eabi_attribute 30, 6
  10              		.eabi_attribute 34, 0
  11              		.eabi_attribute 18, 4
  12              		.code	16
  13              		.file	"Counter_reset_gen.c"
  14              		.text
  15              	.Ltext0:
  16              		.cfi_sections	.debug_frame
  17              		.global	Counter_reset_gen_initVar
  18              		.bss
  19              		.type	Counter_reset_gen_initVar, %object
  20              		.size	Counter_reset_gen_initVar, 1
  21              	Counter_reset_gen_initVar:
  22 0000 00       		.space	1
  23              		.section	.text.Counter_reset_gen_Init,"ax",%progbits
  24              		.align	2
  25              		.global	Counter_reset_gen_Init
  26              		.code	16
  27              		.thumb_func
  28              		.type	Counter_reset_gen_Init, %function
  29              	Counter_reset_gen_Init:
  30              	.LFB0:
  31              		.file 1 ".\\Generated_Source\\PSoC4\\Counter_reset_gen.c"
   1:.\Generated_Source\PSoC4/Counter_reset_gen.c **** /*******************************************************************************
   2:.\Generated_Source\PSoC4/Counter_reset_gen.c **** * File Name: Counter_reset_gen.c  
   3:.\Generated_Source\PSoC4/Counter_reset_gen.c **** * Version 2.40
   4:.\Generated_Source\PSoC4/Counter_reset_gen.c **** *
   5:.\Generated_Source\PSoC4/Counter_reset_gen.c **** *  Description:
   6:.\Generated_Source\PSoC4/Counter_reset_gen.c **** *     The Counter component consists of a 8, 16, 24 or 32-bit counter with
   7:.\Generated_Source\PSoC4/Counter_reset_gen.c **** *     a selectable period between 2 and 2^Width - 1.  
   8:.\Generated_Source\PSoC4/Counter_reset_gen.c **** *
   9:.\Generated_Source\PSoC4/Counter_reset_gen.c **** *   Note:
  10:.\Generated_Source\PSoC4/Counter_reset_gen.c **** *     None
  11:.\Generated_Source\PSoC4/Counter_reset_gen.c **** *
  12:.\Generated_Source\PSoC4/Counter_reset_gen.c **** *******************************************************************************
  13:.\Generated_Source\PSoC4/Counter_reset_gen.c **** * Copyright 2008-2012, Cypress Semiconductor Corporation.  All rights reserved.
  14:.\Generated_Source\PSoC4/Counter_reset_gen.c **** * You may use this file only in accordance with the license, terms, conditions, 
  15:.\Generated_Source\PSoC4/Counter_reset_gen.c **** * disclaimers, and limitations in the end user license agreement accompanying 
  16:.\Generated_Source\PSoC4/Counter_reset_gen.c **** * the software package with which this file was provided.
  17:.\Generated_Source\PSoC4/Counter_reset_gen.c **** ********************************************************************************/
  18:.\Generated_Source\PSoC4/Counter_reset_gen.c **** 
  19:.\Generated_Source\PSoC4/Counter_reset_gen.c **** #include "Counter_reset_gen.h"
  20:.\Generated_Source\PSoC4/Counter_reset_gen.c **** 
  21:.\Generated_Source\PSoC4/Counter_reset_gen.c **** uint8 Counter_reset_gen_initVar = 0u;
  22:.\Generated_Source\PSoC4/Counter_reset_gen.c **** 
  23:.\Generated_Source\PSoC4/Counter_reset_gen.c **** 
  24:.\Generated_Source\PSoC4/Counter_reset_gen.c **** /*******************************************************************************
  25:.\Generated_Source\PSoC4/Counter_reset_gen.c **** * Function Name: Counter_reset_gen_Init
  26:.\Generated_Source\PSoC4/Counter_reset_gen.c **** ********************************************************************************
ARM GAS  C:\Users\TSUBAS~1\AppData\Local\Temp\ccW5s39m.s 			page 2


  27:.\Generated_Source\PSoC4/Counter_reset_gen.c **** * Summary:
  28:.\Generated_Source\PSoC4/Counter_reset_gen.c **** *     Initialize to the schematic state
  29:.\Generated_Source\PSoC4/Counter_reset_gen.c **** * 
  30:.\Generated_Source\PSoC4/Counter_reset_gen.c **** * Parameters:  
  31:.\Generated_Source\PSoC4/Counter_reset_gen.c **** *  void  
  32:.\Generated_Source\PSoC4/Counter_reset_gen.c **** *
  33:.\Generated_Source\PSoC4/Counter_reset_gen.c **** * Return: 
  34:.\Generated_Source\PSoC4/Counter_reset_gen.c **** *  void
  35:.\Generated_Source\PSoC4/Counter_reset_gen.c **** *
  36:.\Generated_Source\PSoC4/Counter_reset_gen.c **** *******************************************************************************/
  37:.\Generated_Source\PSoC4/Counter_reset_gen.c **** void Counter_reset_gen_Init(void) 
  38:.\Generated_Source\PSoC4/Counter_reset_gen.c **** {
  32              		.loc 1 38 0
  33              		.cfi_startproc
  34 0000 90B5     		push	{r4, r7, lr}
  35              	.LCFI0:
  36              		.cfi_def_cfa_offset 12
  37              		.cfi_offset 4, -12
  38              		.cfi_offset 7, -8
  39              		.cfi_offset 14, -4
  40 0002 83B0     		sub	sp, sp, #12
  41              	.LCFI1:
  42              		.cfi_def_cfa_offset 24
  43 0004 00AF     		add	r7, sp, #0
  44              	.LCFI2:
  45              		.cfi_def_cfa_register 7
  39:.\Generated_Source\PSoC4/Counter_reset_gen.c ****         #if (!Counter_reset_gen_UsingFixedFunction && !Counter_reset_gen_ControlRegRemoved)
  40:.\Generated_Source\PSoC4/Counter_reset_gen.c ****             uint8 ctrl;
  41:.\Generated_Source\PSoC4/Counter_reset_gen.c ****         #endif /* (!Counter_reset_gen_UsingFixedFunction && !Counter_reset_gen_ControlRegRemoved) *
  42:.\Generated_Source\PSoC4/Counter_reset_gen.c ****         
  43:.\Generated_Source\PSoC4/Counter_reset_gen.c ****         #if(!Counter_reset_gen_UsingFixedFunction) 
  44:.\Generated_Source\PSoC4/Counter_reset_gen.c ****             /* Interrupt State Backup for Critical Region*/
  45:.\Generated_Source\PSoC4/Counter_reset_gen.c ****             uint8 Counter_reset_gen_interruptState;
  46:.\Generated_Source\PSoC4/Counter_reset_gen.c ****         #endif /* (!Counter_reset_gen_UsingFixedFunction) */
  47:.\Generated_Source\PSoC4/Counter_reset_gen.c ****         
  48:.\Generated_Source\PSoC4/Counter_reset_gen.c ****         #if (Counter_reset_gen_UsingFixedFunction)
  49:.\Generated_Source\PSoC4/Counter_reset_gen.c ****             /* Clear all bits but the enable bit (if it's already set for Timer operation */
  50:.\Generated_Source\PSoC4/Counter_reset_gen.c ****             Counter_reset_gen_CONTROL &= Counter_reset_gen_CTRL_ENABLE;
  51:.\Generated_Source\PSoC4/Counter_reset_gen.c ****             
  52:.\Generated_Source\PSoC4/Counter_reset_gen.c ****             /* Clear the mode bits for continuous run mode */
  53:.\Generated_Source\PSoC4/Counter_reset_gen.c ****             #if (CY_PSOC5A)
  54:.\Generated_Source\PSoC4/Counter_reset_gen.c ****                 Counter_reset_gen_CONTROL2 &= ((uint8)(~Counter_reset_gen_CTRL_MODE_MASK));
  55:.\Generated_Source\PSoC4/Counter_reset_gen.c ****             #endif /* (CY_PSOC5A) */
  56:.\Generated_Source\PSoC4/Counter_reset_gen.c ****             #if (CY_PSOC3 || CY_PSOC5LP)
  57:.\Generated_Source\PSoC4/Counter_reset_gen.c ****                 Counter_reset_gen_CONTROL3 &= ((uint8)(~Counter_reset_gen_CTRL_MODE_MASK));        
  58:.\Generated_Source\PSoC4/Counter_reset_gen.c ****             #endif /* (CY_PSOC3 || CY_PSOC5LP) */
  59:.\Generated_Source\PSoC4/Counter_reset_gen.c ****             /* Check if One Shot mode is enabled i.e. RunMode !=0*/
  60:.\Generated_Source\PSoC4/Counter_reset_gen.c ****             #if (Counter_reset_gen_RunModeUsed != 0x0u)
  61:.\Generated_Source\PSoC4/Counter_reset_gen.c ****                 /* Set 3rd bit of Control register to enable one shot mode */
  62:.\Generated_Source\PSoC4/Counter_reset_gen.c ****                 Counter_reset_gen_CONTROL |= Counter_reset_gen_ONESHOT;
  63:.\Generated_Source\PSoC4/Counter_reset_gen.c ****             #endif /* (Counter_reset_gen_RunModeUsed != 0x0u) */
  64:.\Generated_Source\PSoC4/Counter_reset_gen.c ****             
  65:.\Generated_Source\PSoC4/Counter_reset_gen.c ****             /* Set the IRQ to use the status register interrupts */
  66:.\Generated_Source\PSoC4/Counter_reset_gen.c ****             Counter_reset_gen_CONTROL2 |= Counter_reset_gen_CTRL2_IRQ_SEL;
  67:.\Generated_Source\PSoC4/Counter_reset_gen.c ****             
  68:.\Generated_Source\PSoC4/Counter_reset_gen.c ****             /* Clear and Set SYNCTC and SYNCCMP bits of RT1 register */
  69:.\Generated_Source\PSoC4/Counter_reset_gen.c ****             Counter_reset_gen_RT1 &= ((uint8)(~Counter_reset_gen_RT1_MASK));
ARM GAS  C:\Users\TSUBAS~1\AppData\Local\Temp\ccW5s39m.s 			page 3


  70:.\Generated_Source\PSoC4/Counter_reset_gen.c ****             Counter_reset_gen_RT1 |= Counter_reset_gen_SYNC;     
  71:.\Generated_Source\PSoC4/Counter_reset_gen.c ****                     
  72:.\Generated_Source\PSoC4/Counter_reset_gen.c ****             /*Enable DSI Sync all all inputs of the Timer*/
  73:.\Generated_Source\PSoC4/Counter_reset_gen.c ****             Counter_reset_gen_RT1 &= ((uint8)(~Counter_reset_gen_SYNCDSI_MASK));
  74:.\Generated_Source\PSoC4/Counter_reset_gen.c ****             Counter_reset_gen_RT1 |= Counter_reset_gen_SYNCDSI_EN;
  75:.\Generated_Source\PSoC4/Counter_reset_gen.c **** 
  76:.\Generated_Source\PSoC4/Counter_reset_gen.c ****         #else
  77:.\Generated_Source\PSoC4/Counter_reset_gen.c ****             #if(!Counter_reset_gen_ControlRegRemoved)
  78:.\Generated_Source\PSoC4/Counter_reset_gen.c ****             /* Set the default compare mode defined in the parameter */
  79:.\Generated_Source\PSoC4/Counter_reset_gen.c ****             ctrl = Counter_reset_gen_CONTROL & ((uint8)(~Counter_reset_gen_CTRL_CMPMODE_MASK));
  80:.\Generated_Source\PSoC4/Counter_reset_gen.c ****             Counter_reset_gen_CONTROL = ctrl | Counter_reset_gen_DEFAULT_COMPARE_MODE;
  81:.\Generated_Source\PSoC4/Counter_reset_gen.c ****             
  82:.\Generated_Source\PSoC4/Counter_reset_gen.c ****             /* Set the default capture mode defined in the parameter */
  83:.\Generated_Source\PSoC4/Counter_reset_gen.c ****             ctrl = Counter_reset_gen_CONTROL & ((uint8)(~Counter_reset_gen_CTRL_CAPMODE_MASK));
  84:.\Generated_Source\PSoC4/Counter_reset_gen.c ****             
  85:.\Generated_Source\PSoC4/Counter_reset_gen.c ****             #if( 0 != Counter_reset_gen_CAPTURE_MODE_CONF)
  86:.\Generated_Source\PSoC4/Counter_reset_gen.c ****                 Counter_reset_gen_CONTROL = ctrl | Counter_reset_gen_DEFAULT_CAPTURE_MODE;
  87:.\Generated_Source\PSoC4/Counter_reset_gen.c ****             #else
  88:.\Generated_Source\PSoC4/Counter_reset_gen.c ****                 Counter_reset_gen_CONTROL = ctrl;
  89:.\Generated_Source\PSoC4/Counter_reset_gen.c ****             #endif /* 0 != Counter_reset_gen_CAPTURE_MODE */ 
  90:.\Generated_Source\PSoC4/Counter_reset_gen.c ****             
  91:.\Generated_Source\PSoC4/Counter_reset_gen.c ****             #endif /* (!Counter_reset_gen_ControlRegRemoved) */
  92:.\Generated_Source\PSoC4/Counter_reset_gen.c ****         #endif /* (Counter_reset_gen_UsingFixedFunction) */
  93:.\Generated_Source\PSoC4/Counter_reset_gen.c ****         
  94:.\Generated_Source\PSoC4/Counter_reset_gen.c ****         /* Clear all data in the FIFO's */
  95:.\Generated_Source\PSoC4/Counter_reset_gen.c ****         #if (!Counter_reset_gen_UsingFixedFunction)
  96:.\Generated_Source\PSoC4/Counter_reset_gen.c ****             Counter_reset_gen_ClearFIFO();
  46              		.loc 1 96 0
  47 0006 FFF7FEFF 		bl	Counter_reset_gen_ClearFIFO
  97:.\Generated_Source\PSoC4/Counter_reset_gen.c ****         #endif /* (!Counter_reset_gen_UsingFixedFunction) */
  98:.\Generated_Source\PSoC4/Counter_reset_gen.c ****         
  99:.\Generated_Source\PSoC4/Counter_reset_gen.c ****         /* Set Initial values from Configuration */
 100:.\Generated_Source\PSoC4/Counter_reset_gen.c ****         Counter_reset_gen_WritePeriod(Counter_reset_gen_INIT_PERIOD_VALUE);
  48              		.loc 1 100 0
  49 000a F920     		mov	r0, #249
  50 000c FFF7FEFF 		bl	Counter_reset_gen_WritePeriod
 101:.\Generated_Source\PSoC4/Counter_reset_gen.c ****         #if (!(Counter_reset_gen_UsingFixedFunction && (CY_PSOC5A)))
 102:.\Generated_Source\PSoC4/Counter_reset_gen.c ****             Counter_reset_gen_WriteCounter(Counter_reset_gen_INIT_COUNTER_VALUE);
  51              		.loc 1 102 0
  52 0010 F920     		mov	r0, #249
  53 0012 FFF7FEFF 		bl	Counter_reset_gen_WriteCounter
 103:.\Generated_Source\PSoC4/Counter_reset_gen.c ****         #endif /* (!(Counter_reset_gen_UsingFixedFunction && (CY_PSOC5A))) */
 104:.\Generated_Source\PSoC4/Counter_reset_gen.c ****         Counter_reset_gen_SetInterruptMode(Counter_reset_gen_INIT_INTERRUPTS_MASK);
  54              		.loc 1 104 0
  55 0016 0C20     		mov	r0, #12
  56 0018 FFF7FEFF 		bl	Counter_reset_gen_SetInterruptMode
 105:.\Generated_Source\PSoC4/Counter_reset_gen.c ****         
 106:.\Generated_Source\PSoC4/Counter_reset_gen.c ****         #if (!Counter_reset_gen_UsingFixedFunction)
 107:.\Generated_Source\PSoC4/Counter_reset_gen.c ****             /* Read the status register to clear the unwanted interrupts */
 108:.\Generated_Source\PSoC4/Counter_reset_gen.c ****             (void)Counter_reset_gen_ReadStatusRegister();
  57              		.loc 1 108 0
  58 001c FFF7FEFF 		bl	Counter_reset_gen_ReadStatusRegister
 109:.\Generated_Source\PSoC4/Counter_reset_gen.c ****             /* Set the compare value (only available to non-fixed function implementation */
 110:.\Generated_Source\PSoC4/Counter_reset_gen.c ****             Counter_reset_gen_WriteCompare(Counter_reset_gen_INIT_COMPARE_VALUE);
  59              		.loc 1 110 0
  60 0020 8020     		mov	r0, #128
  61 0022 FFF7FEFF 		bl	Counter_reset_gen_WriteCompare
ARM GAS  C:\Users\TSUBAS~1\AppData\Local\Temp\ccW5s39m.s 			page 4


 111:.\Generated_Source\PSoC4/Counter_reset_gen.c ****             /* Use the interrupt output of the status register for IRQ output */
 112:.\Generated_Source\PSoC4/Counter_reset_gen.c ****             
 113:.\Generated_Source\PSoC4/Counter_reset_gen.c ****             /* CyEnterCriticalRegion and CyExitCriticalRegion are used to mark following region cri
 114:.\Generated_Source\PSoC4/Counter_reset_gen.c ****             /* Enter Critical Region*/
 115:.\Generated_Source\PSoC4/Counter_reset_gen.c ****             Counter_reset_gen_interruptState = CyEnterCriticalSection();
  62              		.loc 1 115 0
  63 0026 FC1D     		add	r4, r7, #7
  64 0028 FFF7FEFF 		bl	CyEnterCriticalSection
  65 002c 031C     		mov	r3, r0
  66 002e 2370     		strb	r3, [r4]
 116:.\Generated_Source\PSoC4/Counter_reset_gen.c ****             
 117:.\Generated_Source\PSoC4/Counter_reset_gen.c ****             Counter_reset_gen_STATUS_AUX_CTRL |= Counter_reset_gen_STATUS_ACTL_INT_EN_MASK;
  67              		.loc 1 117 0
  68 0030 074B     		ldr	r3, .L2
  69 0032 074A     		ldr	r2, .L2
  70 0034 1278     		ldrb	r2, [r2]
  71 0036 D2B2     		uxtb	r2, r2
  72 0038 1021     		mov	r1, #16
  73 003a 0A43     		orr	r2, r1
  74 003c D2B2     		uxtb	r2, r2
  75 003e 1A70     		strb	r2, [r3]
 118:.\Generated_Source\PSoC4/Counter_reset_gen.c ****             
 119:.\Generated_Source\PSoC4/Counter_reset_gen.c ****             /* Exit Critical Region*/
 120:.\Generated_Source\PSoC4/Counter_reset_gen.c ****             CyExitCriticalSection(Counter_reset_gen_interruptState);
  76              		.loc 1 120 0
  77 0040 FB1D     		add	r3, r7, #7
  78 0042 1B78     		ldrb	r3, [r3]
  79 0044 181C     		mov	r0, r3
  80 0046 FFF7FEFF 		bl	CyExitCriticalSection
 121:.\Generated_Source\PSoC4/Counter_reset_gen.c ****             
 122:.\Generated_Source\PSoC4/Counter_reset_gen.c ****         #endif /* (!Counter_reset_gen_UsingFixedFunction) */
 123:.\Generated_Source\PSoC4/Counter_reset_gen.c **** }
  81              		.loc 1 123 0
  82 004a BD46     		mov	sp, r7
  83 004c 03B0     		add	sp, sp, #12
  84              		@ sp needed for prologue
  85 004e 90BD     		pop	{r4, r7, pc}
  86              	.L3:
  87              		.align	2
  88              	.L2:
  89 0050 91000F40 		.word	1074725009
  90              		.cfi_endproc
  91              	.LFE0:
  92              		.size	Counter_reset_gen_Init, .-Counter_reset_gen_Init
  93              		.section	.text.Counter_reset_gen_Enable,"ax",%progbits
  94              		.align	2
  95              		.global	Counter_reset_gen_Enable
  96              		.code	16
  97              		.thumb_func
  98              		.type	Counter_reset_gen_Enable, %function
  99              	Counter_reset_gen_Enable:
 100              	.LFB1:
 124:.\Generated_Source\PSoC4/Counter_reset_gen.c **** 
 125:.\Generated_Source\PSoC4/Counter_reset_gen.c **** 
 126:.\Generated_Source\PSoC4/Counter_reset_gen.c **** /*******************************************************************************
 127:.\Generated_Source\PSoC4/Counter_reset_gen.c **** * Function Name: Counter_reset_gen_Enable
 128:.\Generated_Source\PSoC4/Counter_reset_gen.c **** ********************************************************************************
ARM GAS  C:\Users\TSUBAS~1\AppData\Local\Temp\ccW5s39m.s 			page 5


 129:.\Generated_Source\PSoC4/Counter_reset_gen.c **** * Summary:
 130:.\Generated_Source\PSoC4/Counter_reset_gen.c **** *     Enable the Counter
 131:.\Generated_Source\PSoC4/Counter_reset_gen.c **** * 
 132:.\Generated_Source\PSoC4/Counter_reset_gen.c **** * Parameters:  
 133:.\Generated_Source\PSoC4/Counter_reset_gen.c **** *  void  
 134:.\Generated_Source\PSoC4/Counter_reset_gen.c **** *
 135:.\Generated_Source\PSoC4/Counter_reset_gen.c **** * Return: 
 136:.\Generated_Source\PSoC4/Counter_reset_gen.c **** *  void
 137:.\Generated_Source\PSoC4/Counter_reset_gen.c **** *
 138:.\Generated_Source\PSoC4/Counter_reset_gen.c **** * Side Effects: 
 139:.\Generated_Source\PSoC4/Counter_reset_gen.c **** *   If the Enable mode is set to Hardware only then this function has no effect 
 140:.\Generated_Source\PSoC4/Counter_reset_gen.c **** *   on the operation of the counter.
 141:.\Generated_Source\PSoC4/Counter_reset_gen.c **** *
 142:.\Generated_Source\PSoC4/Counter_reset_gen.c **** *******************************************************************************/
 143:.\Generated_Source\PSoC4/Counter_reset_gen.c **** void Counter_reset_gen_Enable(void) 
 144:.\Generated_Source\PSoC4/Counter_reset_gen.c **** {
 101              		.loc 1 144 0
 102              		.cfi_startproc
 103 0000 80B5     		push	{r7, lr}
 104              	.LCFI3:
 105              		.cfi_def_cfa_offset 8
 106              		.cfi_offset 7, -8
 107              		.cfi_offset 14, -4
 108 0002 00AF     		add	r7, sp, #0
 109              	.LCFI4:
 110              		.cfi_def_cfa_register 7
 145:.\Generated_Source\PSoC4/Counter_reset_gen.c ****     /* Globally Enable the Fixed Function Block chosen */
 146:.\Generated_Source\PSoC4/Counter_reset_gen.c ****     #if (Counter_reset_gen_UsingFixedFunction)
 147:.\Generated_Source\PSoC4/Counter_reset_gen.c ****         Counter_reset_gen_GLOBAL_ENABLE |= Counter_reset_gen_BLOCK_EN_MASK;
 148:.\Generated_Source\PSoC4/Counter_reset_gen.c ****         Counter_reset_gen_GLOBAL_STBY_ENABLE |= Counter_reset_gen_BLOCK_STBY_EN_MASK;
 149:.\Generated_Source\PSoC4/Counter_reset_gen.c ****     #endif /* (Counter_reset_gen_UsingFixedFunction) */  
 150:.\Generated_Source\PSoC4/Counter_reset_gen.c ****         
 151:.\Generated_Source\PSoC4/Counter_reset_gen.c ****     /* Enable the counter from the control register  */
 152:.\Generated_Source\PSoC4/Counter_reset_gen.c ****     /* If Fixed Function then make sure Mode is set correctly */
 153:.\Generated_Source\PSoC4/Counter_reset_gen.c ****     /* else make sure reset is clear */
 154:.\Generated_Source\PSoC4/Counter_reset_gen.c ****     #if(!Counter_reset_gen_ControlRegRemoved || Counter_reset_gen_UsingFixedFunction)
 155:.\Generated_Source\PSoC4/Counter_reset_gen.c ****         Counter_reset_gen_CONTROL |= Counter_reset_gen_CTRL_ENABLE;                
 156:.\Generated_Source\PSoC4/Counter_reset_gen.c ****     #endif /* (!Counter_reset_gen_ControlRegRemoved || Counter_reset_gen_UsingFixedFunction) */
 157:.\Generated_Source\PSoC4/Counter_reset_gen.c ****     
 158:.\Generated_Source\PSoC4/Counter_reset_gen.c **** }
 111              		.loc 1 158 0
 112 0004 BD46     		mov	sp, r7
 113              		@ sp needed for prologue
 114 0006 80BD     		pop	{r7, pc}
 115              		.cfi_endproc
 116              	.LFE1:
 117              		.size	Counter_reset_gen_Enable, .-Counter_reset_gen_Enable
 118              		.section	.text.Counter_reset_gen_Start,"ax",%progbits
 119              		.align	2
 120              		.global	Counter_reset_gen_Start
 121              		.code	16
 122              		.thumb_func
 123              		.type	Counter_reset_gen_Start, %function
 124              	Counter_reset_gen_Start:
 125              	.LFB2:
 159:.\Generated_Source\PSoC4/Counter_reset_gen.c **** 
 160:.\Generated_Source\PSoC4/Counter_reset_gen.c **** 
ARM GAS  C:\Users\TSUBAS~1\AppData\Local\Temp\ccW5s39m.s 			page 6


 161:.\Generated_Source\PSoC4/Counter_reset_gen.c **** /*******************************************************************************
 162:.\Generated_Source\PSoC4/Counter_reset_gen.c **** * Function Name: Counter_reset_gen_Start
 163:.\Generated_Source\PSoC4/Counter_reset_gen.c **** ********************************************************************************
 164:.\Generated_Source\PSoC4/Counter_reset_gen.c **** * Summary:
 165:.\Generated_Source\PSoC4/Counter_reset_gen.c **** *  Enables the counter for operation 
 166:.\Generated_Source\PSoC4/Counter_reset_gen.c **** *
 167:.\Generated_Source\PSoC4/Counter_reset_gen.c **** * Parameters:  
 168:.\Generated_Source\PSoC4/Counter_reset_gen.c **** *  void  
 169:.\Generated_Source\PSoC4/Counter_reset_gen.c **** *
 170:.\Generated_Source\PSoC4/Counter_reset_gen.c **** * Return: 
 171:.\Generated_Source\PSoC4/Counter_reset_gen.c **** *  void
 172:.\Generated_Source\PSoC4/Counter_reset_gen.c **** *
 173:.\Generated_Source\PSoC4/Counter_reset_gen.c **** * Global variables:
 174:.\Generated_Source\PSoC4/Counter_reset_gen.c **** *  Counter_reset_gen_initVar: Is modified when this function is called for the  
 175:.\Generated_Source\PSoC4/Counter_reset_gen.c **** *   first time. Is used to ensure that initialization happens only once.
 176:.\Generated_Source\PSoC4/Counter_reset_gen.c **** *
 177:.\Generated_Source\PSoC4/Counter_reset_gen.c **** *******************************************************************************/
 178:.\Generated_Source\PSoC4/Counter_reset_gen.c **** void Counter_reset_gen_Start(void) 
 179:.\Generated_Source\PSoC4/Counter_reset_gen.c **** {
 126              		.loc 1 179 0
 127              		.cfi_startproc
 128 0000 80B5     		push	{r7, lr}
 129              	.LCFI5:
 130              		.cfi_def_cfa_offset 8
 131              		.cfi_offset 7, -8
 132              		.cfi_offset 14, -4
 133 0002 00AF     		add	r7, sp, #0
 134              	.LCFI6:
 135              		.cfi_def_cfa_register 7
 180:.\Generated_Source\PSoC4/Counter_reset_gen.c ****     if(Counter_reset_gen_initVar == 0u)
 136              		.loc 1 180 0
 137 0004 064B     		ldr	r3, .L7
 138 0006 1B78     		ldrb	r3, [r3]
 139 0008 002B     		cmp	r3, #0
 140 000a 04D1     		bne	.L6
 181:.\Generated_Source\PSoC4/Counter_reset_gen.c ****     {
 182:.\Generated_Source\PSoC4/Counter_reset_gen.c ****         Counter_reset_gen_Init();
 141              		.loc 1 182 0
 142 000c FFF7FEFF 		bl	Counter_reset_gen_Init
 183:.\Generated_Source\PSoC4/Counter_reset_gen.c ****         
 184:.\Generated_Source\PSoC4/Counter_reset_gen.c ****         Counter_reset_gen_initVar = 1u; /* Clear this bit for Initialization */        
 143              		.loc 1 184 0
 144 0010 034B     		ldr	r3, .L7
 145 0012 0122     		mov	r2, #1
 146 0014 1A70     		strb	r2, [r3]
 147              	.L6:
 185:.\Generated_Source\PSoC4/Counter_reset_gen.c ****     }
 186:.\Generated_Source\PSoC4/Counter_reset_gen.c ****     
 187:.\Generated_Source\PSoC4/Counter_reset_gen.c ****     /* Enable the Counter */
 188:.\Generated_Source\PSoC4/Counter_reset_gen.c ****     Counter_reset_gen_Enable();        
 148              		.loc 1 188 0
 149 0016 FFF7FEFF 		bl	Counter_reset_gen_Enable
 189:.\Generated_Source\PSoC4/Counter_reset_gen.c **** }
 150              		.loc 1 189 0
 151 001a BD46     		mov	sp, r7
 152              		@ sp needed for prologue
 153 001c 80BD     		pop	{r7, pc}
ARM GAS  C:\Users\TSUBAS~1\AppData\Local\Temp\ccW5s39m.s 			page 7


 154              	.L8:
 155 001e C046     		.align	2
 156              	.L7:
 157 0020 00000000 		.word	Counter_reset_gen_initVar
 158              		.cfi_endproc
 159              	.LFE2:
 160              		.size	Counter_reset_gen_Start, .-Counter_reset_gen_Start
 161              		.section	.text.Counter_reset_gen_Stop,"ax",%progbits
 162              		.align	2
 163              		.global	Counter_reset_gen_Stop
 164              		.code	16
 165              		.thumb_func
 166              		.type	Counter_reset_gen_Stop, %function
 167              	Counter_reset_gen_Stop:
 168              	.LFB3:
 190:.\Generated_Source\PSoC4/Counter_reset_gen.c **** 
 191:.\Generated_Source\PSoC4/Counter_reset_gen.c **** 
 192:.\Generated_Source\PSoC4/Counter_reset_gen.c **** /*******************************************************************************
 193:.\Generated_Source\PSoC4/Counter_reset_gen.c **** * Function Name: Counter_reset_gen_Stop
 194:.\Generated_Source\PSoC4/Counter_reset_gen.c **** ********************************************************************************
 195:.\Generated_Source\PSoC4/Counter_reset_gen.c **** * Summary:
 196:.\Generated_Source\PSoC4/Counter_reset_gen.c **** * Halts the counter, but does not change any modes or disable interrupts.
 197:.\Generated_Source\PSoC4/Counter_reset_gen.c **** *
 198:.\Generated_Source\PSoC4/Counter_reset_gen.c **** * Parameters:  
 199:.\Generated_Source\PSoC4/Counter_reset_gen.c **** *  void  
 200:.\Generated_Source\PSoC4/Counter_reset_gen.c **** *
 201:.\Generated_Source\PSoC4/Counter_reset_gen.c **** * Return: 
 202:.\Generated_Source\PSoC4/Counter_reset_gen.c **** *  void
 203:.\Generated_Source\PSoC4/Counter_reset_gen.c **** *
 204:.\Generated_Source\PSoC4/Counter_reset_gen.c **** * Side Effects: If the Enable mode is set to Hardware only then this function
 205:.\Generated_Source\PSoC4/Counter_reset_gen.c **** *               has no effect on the operation of the counter.
 206:.\Generated_Source\PSoC4/Counter_reset_gen.c **** *
 207:.\Generated_Source\PSoC4/Counter_reset_gen.c **** *******************************************************************************/
 208:.\Generated_Source\PSoC4/Counter_reset_gen.c **** void Counter_reset_gen_Stop(void) 
 209:.\Generated_Source\PSoC4/Counter_reset_gen.c **** {
 169              		.loc 1 209 0
 170              		.cfi_startproc
 171 0000 80B5     		push	{r7, lr}
 172              	.LCFI7:
 173              		.cfi_def_cfa_offset 8
 174              		.cfi_offset 7, -8
 175              		.cfi_offset 14, -4
 176 0002 00AF     		add	r7, sp, #0
 177              	.LCFI8:
 178              		.cfi_def_cfa_register 7
 210:.\Generated_Source\PSoC4/Counter_reset_gen.c ****     /* Disable Counter */
 211:.\Generated_Source\PSoC4/Counter_reset_gen.c ****     #if(!Counter_reset_gen_ControlRegRemoved || Counter_reset_gen_UsingFixedFunction)
 212:.\Generated_Source\PSoC4/Counter_reset_gen.c ****         Counter_reset_gen_CONTROL &= ((uint8)(~Counter_reset_gen_CTRL_ENABLE));        
 213:.\Generated_Source\PSoC4/Counter_reset_gen.c ****     #endif /* (!Counter_reset_gen_ControlRegRemoved || Counter_reset_gen_UsingFixedFunction) */
 214:.\Generated_Source\PSoC4/Counter_reset_gen.c ****     
 215:.\Generated_Source\PSoC4/Counter_reset_gen.c ****     /* Globally disable the Fixed Function Block chosen */
 216:.\Generated_Source\PSoC4/Counter_reset_gen.c ****     #if (Counter_reset_gen_UsingFixedFunction)
 217:.\Generated_Source\PSoC4/Counter_reset_gen.c ****         Counter_reset_gen_GLOBAL_ENABLE &= ((uint8)(~Counter_reset_gen_BLOCK_EN_MASK));
 218:.\Generated_Source\PSoC4/Counter_reset_gen.c ****         Counter_reset_gen_GLOBAL_STBY_ENABLE &= ((uint8)(~Counter_reset_gen_BLOCK_STBY_EN_MASK));
 219:.\Generated_Source\PSoC4/Counter_reset_gen.c ****     #endif /* (Counter_reset_gen_UsingFixedFunction) */
 220:.\Generated_Source\PSoC4/Counter_reset_gen.c **** }
 179              		.loc 1 220 0
ARM GAS  C:\Users\TSUBAS~1\AppData\Local\Temp\ccW5s39m.s 			page 8


 180 0004 BD46     		mov	sp, r7
 181              		@ sp needed for prologue
 182 0006 80BD     		pop	{r7, pc}
 183              		.cfi_endproc
 184              	.LFE3:
 185              		.size	Counter_reset_gen_Stop, .-Counter_reset_gen_Stop
 186              		.section	.text.Counter_reset_gen_SetInterruptMode,"ax",%progbits
 187              		.align	2
 188              		.global	Counter_reset_gen_SetInterruptMode
 189              		.code	16
 190              		.thumb_func
 191              		.type	Counter_reset_gen_SetInterruptMode, %function
 192              	Counter_reset_gen_SetInterruptMode:
 193              	.LFB4:
 221:.\Generated_Source\PSoC4/Counter_reset_gen.c **** 
 222:.\Generated_Source\PSoC4/Counter_reset_gen.c **** 
 223:.\Generated_Source\PSoC4/Counter_reset_gen.c **** /*******************************************************************************
 224:.\Generated_Source\PSoC4/Counter_reset_gen.c **** * Function Name: Counter_reset_gen_SetInterruptMode
 225:.\Generated_Source\PSoC4/Counter_reset_gen.c **** ********************************************************************************
 226:.\Generated_Source\PSoC4/Counter_reset_gen.c **** * Summary:
 227:.\Generated_Source\PSoC4/Counter_reset_gen.c **** * Configures which interrupt sources are enabled to generate the final interrupt
 228:.\Generated_Source\PSoC4/Counter_reset_gen.c **** *
 229:.\Generated_Source\PSoC4/Counter_reset_gen.c **** * Parameters:  
 230:.\Generated_Source\PSoC4/Counter_reset_gen.c **** *  InterruptsMask: This parameter is an or'd collection of the status bits
 231:.\Generated_Source\PSoC4/Counter_reset_gen.c **** *                   which will be allowed to generate the counters interrupt.   
 232:.\Generated_Source\PSoC4/Counter_reset_gen.c **** *
 233:.\Generated_Source\PSoC4/Counter_reset_gen.c **** * Return: 
 234:.\Generated_Source\PSoC4/Counter_reset_gen.c **** *  void
 235:.\Generated_Source\PSoC4/Counter_reset_gen.c **** *
 236:.\Generated_Source\PSoC4/Counter_reset_gen.c **** *******************************************************************************/
 237:.\Generated_Source\PSoC4/Counter_reset_gen.c **** void Counter_reset_gen_SetInterruptMode(uint8 interruptsMask) 
 238:.\Generated_Source\PSoC4/Counter_reset_gen.c **** {
 194              		.loc 1 238 0
 195              		.cfi_startproc
 196 0000 80B5     		push	{r7, lr}
 197              	.LCFI9:
 198              		.cfi_def_cfa_offset 8
 199              		.cfi_offset 7, -8
 200              		.cfi_offset 14, -4
 201 0002 82B0     		sub	sp, sp, #8
 202              	.LCFI10:
 203              		.cfi_def_cfa_offset 16
 204 0004 00AF     		add	r7, sp, #0
 205              	.LCFI11:
 206              		.cfi_def_cfa_register 7
 207 0006 021C     		mov	r2, r0
 208 0008 FB1D     		add	r3, r7, #7
 209 000a 1A70     		strb	r2, [r3]
 239:.\Generated_Source\PSoC4/Counter_reset_gen.c ****     Counter_reset_gen_STATUS_MASK = interruptsMask;
 210              		.loc 1 239 0
 211 000c 034B     		ldr	r3, .L11
 212 000e FA1D     		add	r2, r7, #7
 213 0010 1278     		ldrb	r2, [r2]
 214 0012 1A70     		strb	r2, [r3]
 240:.\Generated_Source\PSoC4/Counter_reset_gen.c **** }
 215              		.loc 1 240 0
 216 0014 BD46     		mov	sp, r7
ARM GAS  C:\Users\TSUBAS~1\AppData\Local\Temp\ccW5s39m.s 			page 9


 217 0016 02B0     		add	sp, sp, #8
 218              		@ sp needed for prologue
 219 0018 80BD     		pop	{r7, pc}
 220              	.L12:
 221 001a C046     		.align	2
 222              	.L11:
 223 001c 81000F40 		.word	1074724993
 224              		.cfi_endproc
 225              	.LFE4:
 226              		.size	Counter_reset_gen_SetInterruptMode, .-Counter_reset_gen_SetInterruptMode
 227              		.section	.text.Counter_reset_gen_ReadStatusRegister,"ax",%progbits
 228              		.align	2
 229              		.global	Counter_reset_gen_ReadStatusRegister
 230              		.code	16
 231              		.thumb_func
 232              		.type	Counter_reset_gen_ReadStatusRegister, %function
 233              	Counter_reset_gen_ReadStatusRegister:
 234              	.LFB5:
 241:.\Generated_Source\PSoC4/Counter_reset_gen.c **** 
 242:.\Generated_Source\PSoC4/Counter_reset_gen.c **** 
 243:.\Generated_Source\PSoC4/Counter_reset_gen.c **** /*******************************************************************************
 244:.\Generated_Source\PSoC4/Counter_reset_gen.c **** * Function Name: Counter_reset_gen_ReadStatusRegister
 245:.\Generated_Source\PSoC4/Counter_reset_gen.c **** ********************************************************************************
 246:.\Generated_Source\PSoC4/Counter_reset_gen.c **** * Summary:
 247:.\Generated_Source\PSoC4/Counter_reset_gen.c **** *   Reads the status register and returns it's state. This function should use
 248:.\Generated_Source\PSoC4/Counter_reset_gen.c **** *       defined types for the bit-field information as the bits in this
 249:.\Generated_Source\PSoC4/Counter_reset_gen.c **** *       register may be permuteable.
 250:.\Generated_Source\PSoC4/Counter_reset_gen.c **** *
 251:.\Generated_Source\PSoC4/Counter_reset_gen.c **** * Parameters:  
 252:.\Generated_Source\PSoC4/Counter_reset_gen.c **** *  void
 253:.\Generated_Source\PSoC4/Counter_reset_gen.c **** *
 254:.\Generated_Source\PSoC4/Counter_reset_gen.c **** * Return: 
 255:.\Generated_Source\PSoC4/Counter_reset_gen.c **** *  (uint8) The contents of the status register
 256:.\Generated_Source\PSoC4/Counter_reset_gen.c **** *
 257:.\Generated_Source\PSoC4/Counter_reset_gen.c **** * Side Effects:
 258:.\Generated_Source\PSoC4/Counter_reset_gen.c **** *   Status register bits may be clear on read. 
 259:.\Generated_Source\PSoC4/Counter_reset_gen.c **** *
 260:.\Generated_Source\PSoC4/Counter_reset_gen.c **** *******************************************************************************/
 261:.\Generated_Source\PSoC4/Counter_reset_gen.c **** uint8   Counter_reset_gen_ReadStatusRegister(void) 
 262:.\Generated_Source\PSoC4/Counter_reset_gen.c **** {
 235              		.loc 1 262 0
 236              		.cfi_startproc
 237 0000 80B5     		push	{r7, lr}
 238              	.LCFI12:
 239              		.cfi_def_cfa_offset 8
 240              		.cfi_offset 7, -8
 241              		.cfi_offset 14, -4
 242 0002 00AF     		add	r7, sp, #0
 243              	.LCFI13:
 244              		.cfi_def_cfa_register 7
 263:.\Generated_Source\PSoC4/Counter_reset_gen.c ****     return Counter_reset_gen_STATUS;
 245              		.loc 1 263 0
 246 0004 024B     		ldr	r3, .L15
 247 0006 1B78     		ldrb	r3, [r3]
 248 0008 DBB2     		uxtb	r3, r3
 264:.\Generated_Source\PSoC4/Counter_reset_gen.c **** }
 249              		.loc 1 264 0
ARM GAS  C:\Users\TSUBAS~1\AppData\Local\Temp\ccW5s39m.s 			page 10


 250 000a 181C     		mov	r0, r3
 251 000c BD46     		mov	sp, r7
 252              		@ sp needed for prologue
 253 000e 80BD     		pop	{r7, pc}
 254              	.L16:
 255              		.align	2
 256              	.L15:
 257 0010 61000F40 		.word	1074724961
 258              		.cfi_endproc
 259              	.LFE5:
 260              		.size	Counter_reset_gen_ReadStatusRegister, .-Counter_reset_gen_ReadStatusRegister
 261              		.section	.text.Counter_reset_gen_WriteCounter,"ax",%progbits
 262              		.align	2
 263              		.global	Counter_reset_gen_WriteCounter
 264              		.code	16
 265              		.thumb_func
 266              		.type	Counter_reset_gen_WriteCounter, %function
 267              	Counter_reset_gen_WriteCounter:
 268              	.LFB6:
 265:.\Generated_Source\PSoC4/Counter_reset_gen.c **** 
 266:.\Generated_Source\PSoC4/Counter_reset_gen.c **** 
 267:.\Generated_Source\PSoC4/Counter_reset_gen.c **** #if(!Counter_reset_gen_ControlRegRemoved)
 268:.\Generated_Source\PSoC4/Counter_reset_gen.c **** /*******************************************************************************
 269:.\Generated_Source\PSoC4/Counter_reset_gen.c **** * Function Name: Counter_reset_gen_ReadControlRegister
 270:.\Generated_Source\PSoC4/Counter_reset_gen.c **** ********************************************************************************
 271:.\Generated_Source\PSoC4/Counter_reset_gen.c **** * Summary:
 272:.\Generated_Source\PSoC4/Counter_reset_gen.c **** *   Reads the control register and returns it's state. This function should use
 273:.\Generated_Source\PSoC4/Counter_reset_gen.c **** *       defined types for the bit-field information as the bits in this
 274:.\Generated_Source\PSoC4/Counter_reset_gen.c **** *       register may be permuteable.
 275:.\Generated_Source\PSoC4/Counter_reset_gen.c **** *
 276:.\Generated_Source\PSoC4/Counter_reset_gen.c **** * Parameters:  
 277:.\Generated_Source\PSoC4/Counter_reset_gen.c **** *  void
 278:.\Generated_Source\PSoC4/Counter_reset_gen.c **** *
 279:.\Generated_Source\PSoC4/Counter_reset_gen.c **** * Return: 
 280:.\Generated_Source\PSoC4/Counter_reset_gen.c **** *  (uint8) The contents of the control register
 281:.\Generated_Source\PSoC4/Counter_reset_gen.c **** *
 282:.\Generated_Source\PSoC4/Counter_reset_gen.c **** *******************************************************************************/
 283:.\Generated_Source\PSoC4/Counter_reset_gen.c **** uint8   Counter_reset_gen_ReadControlRegister(void) 
 284:.\Generated_Source\PSoC4/Counter_reset_gen.c **** {
 285:.\Generated_Source\PSoC4/Counter_reset_gen.c ****     return Counter_reset_gen_CONTROL;
 286:.\Generated_Source\PSoC4/Counter_reset_gen.c **** }
 287:.\Generated_Source\PSoC4/Counter_reset_gen.c **** 
 288:.\Generated_Source\PSoC4/Counter_reset_gen.c **** 
 289:.\Generated_Source\PSoC4/Counter_reset_gen.c **** /*******************************************************************************
 290:.\Generated_Source\PSoC4/Counter_reset_gen.c **** * Function Name: Counter_reset_gen_WriteControlRegister
 291:.\Generated_Source\PSoC4/Counter_reset_gen.c **** ********************************************************************************
 292:.\Generated_Source\PSoC4/Counter_reset_gen.c **** * Summary:
 293:.\Generated_Source\PSoC4/Counter_reset_gen.c **** *   Sets the bit-field of the control register.  This function should use
 294:.\Generated_Source\PSoC4/Counter_reset_gen.c **** *       defined types for the bit-field information as the bits in this
 295:.\Generated_Source\PSoC4/Counter_reset_gen.c **** *       register may be permuteable.
 296:.\Generated_Source\PSoC4/Counter_reset_gen.c **** *
 297:.\Generated_Source\PSoC4/Counter_reset_gen.c **** * Parameters:  
 298:.\Generated_Source\PSoC4/Counter_reset_gen.c **** *  void
 299:.\Generated_Source\PSoC4/Counter_reset_gen.c **** *
 300:.\Generated_Source\PSoC4/Counter_reset_gen.c **** * Return: 
 301:.\Generated_Source\PSoC4/Counter_reset_gen.c **** *  (uint8) The contents of the control register
 302:.\Generated_Source\PSoC4/Counter_reset_gen.c **** *
ARM GAS  C:\Users\TSUBAS~1\AppData\Local\Temp\ccW5s39m.s 			page 11


 303:.\Generated_Source\PSoC4/Counter_reset_gen.c **** *******************************************************************************/
 304:.\Generated_Source\PSoC4/Counter_reset_gen.c **** void    Counter_reset_gen_WriteControlRegister(uint8 control) 
 305:.\Generated_Source\PSoC4/Counter_reset_gen.c **** {
 306:.\Generated_Source\PSoC4/Counter_reset_gen.c ****     Counter_reset_gen_CONTROL = control;
 307:.\Generated_Source\PSoC4/Counter_reset_gen.c **** }
 308:.\Generated_Source\PSoC4/Counter_reset_gen.c **** 
 309:.\Generated_Source\PSoC4/Counter_reset_gen.c **** #endif  /* (!Counter_reset_gen_ControlRegRemoved) */
 310:.\Generated_Source\PSoC4/Counter_reset_gen.c **** 
 311:.\Generated_Source\PSoC4/Counter_reset_gen.c **** 
 312:.\Generated_Source\PSoC4/Counter_reset_gen.c **** #if (!(Counter_reset_gen_UsingFixedFunction && (CY_PSOC5A)))
 313:.\Generated_Source\PSoC4/Counter_reset_gen.c **** /*******************************************************************************
 314:.\Generated_Source\PSoC4/Counter_reset_gen.c **** * Function Name: Counter_reset_gen_WriteCounter
 315:.\Generated_Source\PSoC4/Counter_reset_gen.c **** ********************************************************************************
 316:.\Generated_Source\PSoC4/Counter_reset_gen.c **** * Summary:
 317:.\Generated_Source\PSoC4/Counter_reset_gen.c **** *   This funtion is used to set the counter to a specific value
 318:.\Generated_Source\PSoC4/Counter_reset_gen.c **** *
 319:.\Generated_Source\PSoC4/Counter_reset_gen.c **** * Parameters:  
 320:.\Generated_Source\PSoC4/Counter_reset_gen.c **** *  counter:  New counter value. 
 321:.\Generated_Source\PSoC4/Counter_reset_gen.c **** *
 322:.\Generated_Source\PSoC4/Counter_reset_gen.c **** * Return: 
 323:.\Generated_Source\PSoC4/Counter_reset_gen.c **** *  void 
 324:.\Generated_Source\PSoC4/Counter_reset_gen.c **** *
 325:.\Generated_Source\PSoC4/Counter_reset_gen.c **** *******************************************************************************/
 326:.\Generated_Source\PSoC4/Counter_reset_gen.c **** void Counter_reset_gen_WriteCounter(uint8 counter) \
 327:.\Generated_Source\PSoC4/Counter_reset_gen.c ****                                    
 328:.\Generated_Source\PSoC4/Counter_reset_gen.c **** {
 269              		.loc 1 328 0
 270              		.cfi_startproc
 271 0000 80B5     		push	{r7, lr}
 272              	.LCFI14:
 273              		.cfi_def_cfa_offset 8
 274              		.cfi_offset 7, -8
 275              		.cfi_offset 14, -4
 276 0002 82B0     		sub	sp, sp, #8
 277              	.LCFI15:
 278              		.cfi_def_cfa_offset 16
 279 0004 00AF     		add	r7, sp, #0
 280              	.LCFI16:
 281              		.cfi_def_cfa_register 7
 282 0006 021C     		mov	r2, r0
 283 0008 FB1D     		add	r3, r7, #7
 284 000a 1A70     		strb	r2, [r3]
 329:.\Generated_Source\PSoC4/Counter_reset_gen.c ****     #if(Counter_reset_gen_UsingFixedFunction)
 330:.\Generated_Source\PSoC4/Counter_reset_gen.c ****         /* assert if block is already enabled */
 331:.\Generated_Source\PSoC4/Counter_reset_gen.c ****         CYASSERT (0u == (Counter_reset_gen_GLOBAL_ENABLE & Counter_reset_gen_BLOCK_EN_MASK));
 332:.\Generated_Source\PSoC4/Counter_reset_gen.c ****         /* If block is disabled, enable it and then write the counter */
 333:.\Generated_Source\PSoC4/Counter_reset_gen.c ****         Counter_reset_gen_GLOBAL_ENABLE |= Counter_reset_gen_BLOCK_EN_MASK;
 334:.\Generated_Source\PSoC4/Counter_reset_gen.c ****         CY_SET_REG16(Counter_reset_gen_COUNTER_LSB_PTR, (uint16)counter);
 335:.\Generated_Source\PSoC4/Counter_reset_gen.c ****         Counter_reset_gen_GLOBAL_ENABLE &= ((uint8)(~Counter_reset_gen_BLOCK_EN_MASK));
 336:.\Generated_Source\PSoC4/Counter_reset_gen.c ****     #else
 337:.\Generated_Source\PSoC4/Counter_reset_gen.c ****         CY_SET_REG8(Counter_reset_gen_COUNTER_LSB_PTR, counter);
 285              		.loc 1 337 0
 286 000c 034B     		ldr	r3, .L18
 287 000e FA1D     		add	r2, r7, #7
 288 0010 1278     		ldrb	r2, [r2]
 289 0012 1A70     		strb	r2, [r3]
 338:.\Generated_Source\PSoC4/Counter_reset_gen.c ****     #endif /* (Counter_reset_gen_UsingFixedFunction) */
ARM GAS  C:\Users\TSUBAS~1\AppData\Local\Temp\ccW5s39m.s 			page 12


 339:.\Generated_Source\PSoC4/Counter_reset_gen.c **** }
 290              		.loc 1 339 0
 291 0014 BD46     		mov	sp, r7
 292 0016 02B0     		add	sp, sp, #8
 293              		@ sp needed for prologue
 294 0018 80BD     		pop	{r7, pc}
 295              	.L19:
 296 001a C046     		.align	2
 297              	.L18:
 298 001c 01000F40 		.word	1074724865
 299              		.cfi_endproc
 300              	.LFE6:
 301              		.size	Counter_reset_gen_WriteCounter, .-Counter_reset_gen_WriteCounter
 302              		.section	.text.Counter_reset_gen_ReadCounter,"ax",%progbits
 303              		.align	2
 304              		.global	Counter_reset_gen_ReadCounter
 305              		.code	16
 306              		.thumb_func
 307              		.type	Counter_reset_gen_ReadCounter, %function
 308              	Counter_reset_gen_ReadCounter:
 309              	.LFB7:
 340:.\Generated_Source\PSoC4/Counter_reset_gen.c **** #endif /* (!(Counter_reset_gen_UsingFixedFunction && (CY_PSOC5A))) */
 341:.\Generated_Source\PSoC4/Counter_reset_gen.c **** 
 342:.\Generated_Source\PSoC4/Counter_reset_gen.c **** 
 343:.\Generated_Source\PSoC4/Counter_reset_gen.c **** /*******************************************************************************
 344:.\Generated_Source\PSoC4/Counter_reset_gen.c **** * Function Name: Counter_reset_gen_ReadCounter
 345:.\Generated_Source\PSoC4/Counter_reset_gen.c **** ********************************************************************************
 346:.\Generated_Source\PSoC4/Counter_reset_gen.c **** * Summary:
 347:.\Generated_Source\PSoC4/Counter_reset_gen.c **** * Returns the current value of the counter.  It doesn't matter
 348:.\Generated_Source\PSoC4/Counter_reset_gen.c **** * if the counter is enabled or running.
 349:.\Generated_Source\PSoC4/Counter_reset_gen.c **** *
 350:.\Generated_Source\PSoC4/Counter_reset_gen.c **** * Parameters:  
 351:.\Generated_Source\PSoC4/Counter_reset_gen.c **** *  void:  
 352:.\Generated_Source\PSoC4/Counter_reset_gen.c **** *
 353:.\Generated_Source\PSoC4/Counter_reset_gen.c **** * Return: 
 354:.\Generated_Source\PSoC4/Counter_reset_gen.c **** *  (uint8) The present value of the counter.
 355:.\Generated_Source\PSoC4/Counter_reset_gen.c **** *
 356:.\Generated_Source\PSoC4/Counter_reset_gen.c **** *******************************************************************************/
 357:.\Generated_Source\PSoC4/Counter_reset_gen.c **** uint8 Counter_reset_gen_ReadCounter(void) 
 358:.\Generated_Source\PSoC4/Counter_reset_gen.c **** {
 310              		.loc 1 358 0
 311              		.cfi_startproc
 312 0000 80B5     		push	{r7, lr}
 313              	.LCFI17:
 314              		.cfi_def_cfa_offset 8
 315              		.cfi_offset 7, -8
 316              		.cfi_offset 14, -4
 317 0002 00AF     		add	r7, sp, #0
 318              	.LCFI18:
 319              		.cfi_def_cfa_register 7
 359:.\Generated_Source\PSoC4/Counter_reset_gen.c ****     /* Force capture by reading Accumulator */
 360:.\Generated_Source\PSoC4/Counter_reset_gen.c ****     /* Must first do a software capture to be able to read the counter */
 361:.\Generated_Source\PSoC4/Counter_reset_gen.c ****     /* It is up to the user code to make sure there isn't already captured data in the FIFO */
 362:.\Generated_Source\PSoC4/Counter_reset_gen.c ****     #if(Counter_reset_gen_UsingFixedFunction)
 363:.\Generated_Source\PSoC4/Counter_reset_gen.c **** 		(void)CY_GET_REG16(Counter_reset_gen_COUNTER_LSB_PTR);
 364:.\Generated_Source\PSoC4/Counter_reset_gen.c **** 	#else
 365:.\Generated_Source\PSoC4/Counter_reset_gen.c **** 		(void)CY_GET_REG8(Counter_reset_gen_COUNTER_LSB_PTR_8BIT);
ARM GAS  C:\Users\TSUBAS~1\AppData\Local\Temp\ccW5s39m.s 			page 13


 320              		.loc 1 365 0
 321 0004 034B     		ldr	r3, .L22
 322 0006 1B78     		ldrb	r3, [r3]
 366:.\Generated_Source\PSoC4/Counter_reset_gen.c **** 	#endif/* (Counter_reset_gen_UsingFixedFunction) */
 367:.\Generated_Source\PSoC4/Counter_reset_gen.c ****     
 368:.\Generated_Source\PSoC4/Counter_reset_gen.c ****     /* Read the data from the FIFO (or capture register for Fixed Function)*/
 369:.\Generated_Source\PSoC4/Counter_reset_gen.c ****     #if(Counter_reset_gen_UsingFixedFunction)
 370:.\Generated_Source\PSoC4/Counter_reset_gen.c ****         return ((uint8)CY_GET_REG16(Counter_reset_gen_STATICCOUNT_LSB_PTR));
 371:.\Generated_Source\PSoC4/Counter_reset_gen.c ****     #else
 372:.\Generated_Source\PSoC4/Counter_reset_gen.c ****         return (CY_GET_REG8(Counter_reset_gen_STATICCOUNT_LSB_PTR));
 323              		.loc 1 372 0
 324 0008 034B     		ldr	r3, .L22+4
 325 000a 1B78     		ldrb	r3, [r3]
 326 000c DBB2     		uxtb	r3, r3
 373:.\Generated_Source\PSoC4/Counter_reset_gen.c ****     #endif /* (Counter_reset_gen_UsingFixedFunction) */
 374:.\Generated_Source\PSoC4/Counter_reset_gen.c **** }
 327              		.loc 1 374 0
 328 000e 181C     		mov	r0, r3
 329 0010 BD46     		mov	sp, r7
 330              		@ sp needed for prologue
 331 0012 80BD     		pop	{r7, pc}
 332              	.L23:
 333              		.align	2
 334              	.L22:
 335 0014 01000F40 		.word	1074724865
 336 0018 41000F40 		.word	1074724929
 337              		.cfi_endproc
 338              	.LFE7:
 339              		.size	Counter_reset_gen_ReadCounter, .-Counter_reset_gen_ReadCounter
 340              		.section	.text.Counter_reset_gen_ReadCapture,"ax",%progbits
 341              		.align	2
 342              		.global	Counter_reset_gen_ReadCapture
 343              		.code	16
 344              		.thumb_func
 345              		.type	Counter_reset_gen_ReadCapture, %function
 346              	Counter_reset_gen_ReadCapture:
 347              	.LFB8:
 375:.\Generated_Source\PSoC4/Counter_reset_gen.c **** 
 376:.\Generated_Source\PSoC4/Counter_reset_gen.c **** 
 377:.\Generated_Source\PSoC4/Counter_reset_gen.c **** /*******************************************************************************
 378:.\Generated_Source\PSoC4/Counter_reset_gen.c **** * Function Name: Counter_reset_gen_ReadCapture
 379:.\Generated_Source\PSoC4/Counter_reset_gen.c **** ********************************************************************************
 380:.\Generated_Source\PSoC4/Counter_reset_gen.c **** * Summary:
 381:.\Generated_Source\PSoC4/Counter_reset_gen.c **** *   This function returns the last value captured.
 382:.\Generated_Source\PSoC4/Counter_reset_gen.c **** *
 383:.\Generated_Source\PSoC4/Counter_reset_gen.c **** * Parameters:  
 384:.\Generated_Source\PSoC4/Counter_reset_gen.c **** *  void
 385:.\Generated_Source\PSoC4/Counter_reset_gen.c **** *
 386:.\Generated_Source\PSoC4/Counter_reset_gen.c **** * Return: 
 387:.\Generated_Source\PSoC4/Counter_reset_gen.c **** *  (uint8) Present Capture value.
 388:.\Generated_Source\PSoC4/Counter_reset_gen.c **** *
 389:.\Generated_Source\PSoC4/Counter_reset_gen.c **** *******************************************************************************/
 390:.\Generated_Source\PSoC4/Counter_reset_gen.c **** uint8 Counter_reset_gen_ReadCapture(void) 
 391:.\Generated_Source\PSoC4/Counter_reset_gen.c **** {
 348              		.loc 1 391 0
 349              		.cfi_startproc
 350 0000 80B5     		push	{r7, lr}
ARM GAS  C:\Users\TSUBAS~1\AppData\Local\Temp\ccW5s39m.s 			page 14


 351              	.LCFI19:
 352              		.cfi_def_cfa_offset 8
 353              		.cfi_offset 7, -8
 354              		.cfi_offset 14, -4
 355 0002 00AF     		add	r7, sp, #0
 356              	.LCFI20:
 357              		.cfi_def_cfa_register 7
 392:.\Generated_Source\PSoC4/Counter_reset_gen.c ****     #if(Counter_reset_gen_UsingFixedFunction)
 393:.\Generated_Source\PSoC4/Counter_reset_gen.c ****         return ((uint8)CY_GET_REG16(Counter_reset_gen_STATICCOUNT_LSB_PTR));
 394:.\Generated_Source\PSoC4/Counter_reset_gen.c ****     #else
 395:.\Generated_Source\PSoC4/Counter_reset_gen.c ****         return (CY_GET_REG8(Counter_reset_gen_STATICCOUNT_LSB_PTR));
 358              		.loc 1 395 0
 359 0004 024B     		ldr	r3, .L26
 360 0006 1B78     		ldrb	r3, [r3]
 361 0008 DBB2     		uxtb	r3, r3
 396:.\Generated_Source\PSoC4/Counter_reset_gen.c ****     #endif /* (Counter_reset_gen_UsingFixedFunction) */
 397:.\Generated_Source\PSoC4/Counter_reset_gen.c **** }
 362              		.loc 1 397 0
 363 000a 181C     		mov	r0, r3
 364 000c BD46     		mov	sp, r7
 365              		@ sp needed for prologue
 366 000e 80BD     		pop	{r7, pc}
 367              	.L27:
 368              		.align	2
 369              	.L26:
 370 0010 41000F40 		.word	1074724929
 371              		.cfi_endproc
 372              	.LFE8:
 373              		.size	Counter_reset_gen_ReadCapture, .-Counter_reset_gen_ReadCapture
 374              		.section	.text.Counter_reset_gen_WritePeriod,"ax",%progbits
 375              		.align	2
 376              		.global	Counter_reset_gen_WritePeriod
 377              		.code	16
 378              		.thumb_func
 379              		.type	Counter_reset_gen_WritePeriod, %function
 380              	Counter_reset_gen_WritePeriod:
 381              	.LFB9:
 398:.\Generated_Source\PSoC4/Counter_reset_gen.c **** 
 399:.\Generated_Source\PSoC4/Counter_reset_gen.c **** 
 400:.\Generated_Source\PSoC4/Counter_reset_gen.c **** /*******************************************************************************
 401:.\Generated_Source\PSoC4/Counter_reset_gen.c **** * Function Name: Counter_reset_gen_WritePeriod
 402:.\Generated_Source\PSoC4/Counter_reset_gen.c **** ********************************************************************************
 403:.\Generated_Source\PSoC4/Counter_reset_gen.c **** * Summary:
 404:.\Generated_Source\PSoC4/Counter_reset_gen.c **** * Changes the period of the counter.  The new period 
 405:.\Generated_Source\PSoC4/Counter_reset_gen.c **** * will be loaded the next time terminal count is detected.
 406:.\Generated_Source\PSoC4/Counter_reset_gen.c **** *
 407:.\Generated_Source\PSoC4/Counter_reset_gen.c **** * Parameters:  
 408:.\Generated_Source\PSoC4/Counter_reset_gen.c **** *  period: (uint8) A value of 0 will result in
 409:.\Generated_Source\PSoC4/Counter_reset_gen.c **** *         the counter remaining at zero.  
 410:.\Generated_Source\PSoC4/Counter_reset_gen.c **** *
 411:.\Generated_Source\PSoC4/Counter_reset_gen.c **** * Return: 
 412:.\Generated_Source\PSoC4/Counter_reset_gen.c **** *  void
 413:.\Generated_Source\PSoC4/Counter_reset_gen.c **** *
 414:.\Generated_Source\PSoC4/Counter_reset_gen.c **** *******************************************************************************/
 415:.\Generated_Source\PSoC4/Counter_reset_gen.c **** void Counter_reset_gen_WritePeriod(uint8 period) 
 416:.\Generated_Source\PSoC4/Counter_reset_gen.c **** {
 382              		.loc 1 416 0
ARM GAS  C:\Users\TSUBAS~1\AppData\Local\Temp\ccW5s39m.s 			page 15


 383              		.cfi_startproc
 384 0000 80B5     		push	{r7, lr}
 385              	.LCFI21:
 386              		.cfi_def_cfa_offset 8
 387              		.cfi_offset 7, -8
 388              		.cfi_offset 14, -4
 389 0002 82B0     		sub	sp, sp, #8
 390              	.LCFI22:
 391              		.cfi_def_cfa_offset 16
 392 0004 00AF     		add	r7, sp, #0
 393              	.LCFI23:
 394              		.cfi_def_cfa_register 7
 395 0006 021C     		mov	r2, r0
 396 0008 FB1D     		add	r3, r7, #7
 397 000a 1A70     		strb	r2, [r3]
 417:.\Generated_Source\PSoC4/Counter_reset_gen.c ****     #if(Counter_reset_gen_UsingFixedFunction)
 418:.\Generated_Source\PSoC4/Counter_reset_gen.c ****         CY_SET_REG16(Counter_reset_gen_PERIOD_LSB_PTR,(uint16)period);
 419:.\Generated_Source\PSoC4/Counter_reset_gen.c ****     #else
 420:.\Generated_Source\PSoC4/Counter_reset_gen.c ****         CY_SET_REG8(Counter_reset_gen_PERIOD_LSB_PTR, period);
 398              		.loc 1 420 0
 399 000c 034B     		ldr	r3, .L29
 400 000e FA1D     		add	r2, r7, #7
 401 0010 1278     		ldrb	r2, [r2]
 402 0012 1A70     		strb	r2, [r3]
 421:.\Generated_Source\PSoC4/Counter_reset_gen.c ****     #endif /* (Counter_reset_gen_UsingFixedFunction) */
 422:.\Generated_Source\PSoC4/Counter_reset_gen.c **** }
 403              		.loc 1 422 0
 404 0014 BD46     		mov	sp, r7
 405 0016 02B0     		add	sp, sp, #8
 406              		@ sp needed for prologue
 407 0018 80BD     		pop	{r7, pc}
 408              	.L30:
 409 001a C046     		.align	2
 410              	.L29:
 411 001c 21000F40 		.word	1074724897
 412              		.cfi_endproc
 413              	.LFE9:
 414              		.size	Counter_reset_gen_WritePeriod, .-Counter_reset_gen_WritePeriod
 415              		.section	.text.Counter_reset_gen_ReadPeriod,"ax",%progbits
 416              		.align	2
 417              		.global	Counter_reset_gen_ReadPeriod
 418              		.code	16
 419              		.thumb_func
 420              		.type	Counter_reset_gen_ReadPeriod, %function
 421              	Counter_reset_gen_ReadPeriod:
 422              	.LFB10:
 423:.\Generated_Source\PSoC4/Counter_reset_gen.c **** 
 424:.\Generated_Source\PSoC4/Counter_reset_gen.c **** 
 425:.\Generated_Source\PSoC4/Counter_reset_gen.c **** /*******************************************************************************
 426:.\Generated_Source\PSoC4/Counter_reset_gen.c **** * Function Name: Counter_reset_gen_ReadPeriod
 427:.\Generated_Source\PSoC4/Counter_reset_gen.c **** ********************************************************************************
 428:.\Generated_Source\PSoC4/Counter_reset_gen.c **** * Summary:
 429:.\Generated_Source\PSoC4/Counter_reset_gen.c **** * Reads the current period value without affecting counter operation.
 430:.\Generated_Source\PSoC4/Counter_reset_gen.c **** *
 431:.\Generated_Source\PSoC4/Counter_reset_gen.c **** * Parameters:  
 432:.\Generated_Source\PSoC4/Counter_reset_gen.c **** *  void:  
 433:.\Generated_Source\PSoC4/Counter_reset_gen.c **** *
ARM GAS  C:\Users\TSUBAS~1\AppData\Local\Temp\ccW5s39m.s 			page 16


 434:.\Generated_Source\PSoC4/Counter_reset_gen.c **** * Return: 
 435:.\Generated_Source\PSoC4/Counter_reset_gen.c **** *  (uint8) Present period value.
 436:.\Generated_Source\PSoC4/Counter_reset_gen.c **** *
 437:.\Generated_Source\PSoC4/Counter_reset_gen.c **** *******************************************************************************/
 438:.\Generated_Source\PSoC4/Counter_reset_gen.c **** uint8 Counter_reset_gen_ReadPeriod(void) 
 439:.\Generated_Source\PSoC4/Counter_reset_gen.c **** {
 423              		.loc 1 439 0
 424              		.cfi_startproc
 425 0000 80B5     		push	{r7, lr}
 426              	.LCFI24:
 427              		.cfi_def_cfa_offset 8
 428              		.cfi_offset 7, -8
 429              		.cfi_offset 14, -4
 430 0002 00AF     		add	r7, sp, #0
 431              	.LCFI25:
 432              		.cfi_def_cfa_register 7
 440:.\Generated_Source\PSoC4/Counter_reset_gen.c ****     #if(Counter_reset_gen_UsingFixedFunction)
 441:.\Generated_Source\PSoC4/Counter_reset_gen.c ****         return ((uint8)CY_GET_REG16(Counter_reset_gen_PERIOD_LSB_PTR));
 442:.\Generated_Source\PSoC4/Counter_reset_gen.c ****     #else
 443:.\Generated_Source\PSoC4/Counter_reset_gen.c ****         return (CY_GET_REG8(Counter_reset_gen_PERIOD_LSB_PTR));
 433              		.loc 1 443 0
 434 0004 024B     		ldr	r3, .L33
 435 0006 1B78     		ldrb	r3, [r3]
 436 0008 DBB2     		uxtb	r3, r3
 444:.\Generated_Source\PSoC4/Counter_reset_gen.c ****     #endif /* (Counter_reset_gen_UsingFixedFunction) */
 445:.\Generated_Source\PSoC4/Counter_reset_gen.c **** }
 437              		.loc 1 445 0
 438 000a 181C     		mov	r0, r3
 439 000c BD46     		mov	sp, r7
 440              		@ sp needed for prologue
 441 000e 80BD     		pop	{r7, pc}
 442              	.L34:
 443              		.align	2
 444              	.L33:
 445 0010 21000F40 		.word	1074724897
 446              		.cfi_endproc
 447              	.LFE10:
 448              		.size	Counter_reset_gen_ReadPeriod, .-Counter_reset_gen_ReadPeriod
 449              		.section	.text.Counter_reset_gen_WriteCompare,"ax",%progbits
 450              		.align	2
 451              		.global	Counter_reset_gen_WriteCompare
 452              		.code	16
 453              		.thumb_func
 454              		.type	Counter_reset_gen_WriteCompare, %function
 455              	Counter_reset_gen_WriteCompare:
 456              	.LFB11:
 446:.\Generated_Source\PSoC4/Counter_reset_gen.c **** 
 447:.\Generated_Source\PSoC4/Counter_reset_gen.c **** 
 448:.\Generated_Source\PSoC4/Counter_reset_gen.c **** #if (!Counter_reset_gen_UsingFixedFunction)
 449:.\Generated_Source\PSoC4/Counter_reset_gen.c **** /*******************************************************************************
 450:.\Generated_Source\PSoC4/Counter_reset_gen.c **** * Function Name: Counter_reset_gen_WriteCompare
 451:.\Generated_Source\PSoC4/Counter_reset_gen.c **** ********************************************************************************
 452:.\Generated_Source\PSoC4/Counter_reset_gen.c **** * Summary:
 453:.\Generated_Source\PSoC4/Counter_reset_gen.c **** * Changes the compare value.  The compare output will 
 454:.\Generated_Source\PSoC4/Counter_reset_gen.c **** * reflect the new value on the next UDB clock.  The compare output will be 
 455:.\Generated_Source\PSoC4/Counter_reset_gen.c **** * driven high when the present counter value compares true based on the 
 456:.\Generated_Source\PSoC4/Counter_reset_gen.c **** * configured compare mode setting. 
ARM GAS  C:\Users\TSUBAS~1\AppData\Local\Temp\ccW5s39m.s 			page 17


 457:.\Generated_Source\PSoC4/Counter_reset_gen.c **** *
 458:.\Generated_Source\PSoC4/Counter_reset_gen.c **** * Parameters:  
 459:.\Generated_Source\PSoC4/Counter_reset_gen.c **** *  Compare:  New compare value. 
 460:.\Generated_Source\PSoC4/Counter_reset_gen.c **** *
 461:.\Generated_Source\PSoC4/Counter_reset_gen.c **** * Return: 
 462:.\Generated_Source\PSoC4/Counter_reset_gen.c **** *  void
 463:.\Generated_Source\PSoC4/Counter_reset_gen.c **** *
 464:.\Generated_Source\PSoC4/Counter_reset_gen.c **** *******************************************************************************/
 465:.\Generated_Source\PSoC4/Counter_reset_gen.c **** void Counter_reset_gen_WriteCompare(uint8 compare) \
 466:.\Generated_Source\PSoC4/Counter_reset_gen.c ****                                    
 467:.\Generated_Source\PSoC4/Counter_reset_gen.c **** {
 457              		.loc 1 467 0
 458              		.cfi_startproc
 459 0000 80B5     		push	{r7, lr}
 460              	.LCFI26:
 461              		.cfi_def_cfa_offset 8
 462              		.cfi_offset 7, -8
 463              		.cfi_offset 14, -4
 464 0002 82B0     		sub	sp, sp, #8
 465              	.LCFI27:
 466              		.cfi_def_cfa_offset 16
 467 0004 00AF     		add	r7, sp, #0
 468              	.LCFI28:
 469              		.cfi_def_cfa_register 7
 470 0006 021C     		mov	r2, r0
 471 0008 FB1D     		add	r3, r7, #7
 472 000a 1A70     		strb	r2, [r3]
 468:.\Generated_Source\PSoC4/Counter_reset_gen.c ****     #if(Counter_reset_gen_UsingFixedFunction)
 469:.\Generated_Source\PSoC4/Counter_reset_gen.c ****         CY_SET_REG16(Counter_reset_gen_COMPARE_LSB_PTR, (uint16)compare);
 470:.\Generated_Source\PSoC4/Counter_reset_gen.c ****     #else
 471:.\Generated_Source\PSoC4/Counter_reset_gen.c ****         CY_SET_REG8(Counter_reset_gen_COMPARE_LSB_PTR, compare);
 473              		.loc 1 471 0
 474 000c 034B     		ldr	r3, .L36
 475 000e FA1D     		add	r2, r7, #7
 476 0010 1278     		ldrb	r2, [r2]
 477 0012 1A70     		strb	r2, [r3]
 472:.\Generated_Source\PSoC4/Counter_reset_gen.c ****     #endif /* (Counter_reset_gen_UsingFixedFunction) */
 473:.\Generated_Source\PSoC4/Counter_reset_gen.c **** }
 478              		.loc 1 473 0
 479 0014 BD46     		mov	sp, r7
 480 0016 02B0     		add	sp, sp, #8
 481              		@ sp needed for prologue
 482 0018 80BD     		pop	{r7, pc}
 483              	.L37:
 484 001a C046     		.align	2
 485              	.L36:
 486 001c 31000F40 		.word	1074724913
 487              		.cfi_endproc
 488              	.LFE11:
 489              		.size	Counter_reset_gen_WriteCompare, .-Counter_reset_gen_WriteCompare
 490              		.section	.text.Counter_reset_gen_ReadCompare,"ax",%progbits
 491              		.align	2
 492              		.global	Counter_reset_gen_ReadCompare
 493              		.code	16
 494              		.thumb_func
 495              		.type	Counter_reset_gen_ReadCompare, %function
 496              	Counter_reset_gen_ReadCompare:
ARM GAS  C:\Users\TSUBAS~1\AppData\Local\Temp\ccW5s39m.s 			page 18


 497              	.LFB12:
 474:.\Generated_Source\PSoC4/Counter_reset_gen.c **** 
 475:.\Generated_Source\PSoC4/Counter_reset_gen.c **** 
 476:.\Generated_Source\PSoC4/Counter_reset_gen.c **** /*******************************************************************************
 477:.\Generated_Source\PSoC4/Counter_reset_gen.c **** * Function Name: Counter_reset_gen_ReadCompare
 478:.\Generated_Source\PSoC4/Counter_reset_gen.c **** ********************************************************************************
 479:.\Generated_Source\PSoC4/Counter_reset_gen.c **** * Summary:
 480:.\Generated_Source\PSoC4/Counter_reset_gen.c **** * Returns the compare value.
 481:.\Generated_Source\PSoC4/Counter_reset_gen.c **** *
 482:.\Generated_Source\PSoC4/Counter_reset_gen.c **** * Parameters:  
 483:.\Generated_Source\PSoC4/Counter_reset_gen.c **** *  void:
 484:.\Generated_Source\PSoC4/Counter_reset_gen.c **** *
 485:.\Generated_Source\PSoC4/Counter_reset_gen.c **** * Return: 
 486:.\Generated_Source\PSoC4/Counter_reset_gen.c **** *  (uint8) Present compare value.
 487:.\Generated_Source\PSoC4/Counter_reset_gen.c **** *
 488:.\Generated_Source\PSoC4/Counter_reset_gen.c **** *******************************************************************************/
 489:.\Generated_Source\PSoC4/Counter_reset_gen.c **** uint8 Counter_reset_gen_ReadCompare(void) 
 490:.\Generated_Source\PSoC4/Counter_reset_gen.c **** {
 498              		.loc 1 490 0
 499              		.cfi_startproc
 500 0000 80B5     		push	{r7, lr}
 501              	.LCFI29:
 502              		.cfi_def_cfa_offset 8
 503              		.cfi_offset 7, -8
 504              		.cfi_offset 14, -4
 505 0002 00AF     		add	r7, sp, #0
 506              	.LCFI30:
 507              		.cfi_def_cfa_register 7
 491:.\Generated_Source\PSoC4/Counter_reset_gen.c ****     return (CY_GET_REG8(Counter_reset_gen_COMPARE_LSB_PTR));
 508              		.loc 1 491 0
 509 0004 024B     		ldr	r3, .L40
 510 0006 1B78     		ldrb	r3, [r3]
 511 0008 DBB2     		uxtb	r3, r3
 492:.\Generated_Source\PSoC4/Counter_reset_gen.c **** }
 512              		.loc 1 492 0
 513 000a 181C     		mov	r0, r3
 514 000c BD46     		mov	sp, r7
 515              		@ sp needed for prologue
 516 000e 80BD     		pop	{r7, pc}
 517              	.L41:
 518              		.align	2
 519              	.L40:
 520 0010 31000F40 		.word	1074724913
 521              		.cfi_endproc
 522              	.LFE12:
 523              		.size	Counter_reset_gen_ReadCompare, .-Counter_reset_gen_ReadCompare
 524              		.section	.text.Counter_reset_gen_ClearFIFO,"ax",%progbits
 525              		.align	2
 526              		.global	Counter_reset_gen_ClearFIFO
 527              		.code	16
 528              		.thumb_func
 529              		.type	Counter_reset_gen_ClearFIFO, %function
 530              	Counter_reset_gen_ClearFIFO:
 531              	.LFB13:
 493:.\Generated_Source\PSoC4/Counter_reset_gen.c **** 
 494:.\Generated_Source\PSoC4/Counter_reset_gen.c **** 
 495:.\Generated_Source\PSoC4/Counter_reset_gen.c **** #if (Counter_reset_gen_COMPARE_MODE_SOFTWARE)
ARM GAS  C:\Users\TSUBAS~1\AppData\Local\Temp\ccW5s39m.s 			page 19


 496:.\Generated_Source\PSoC4/Counter_reset_gen.c **** /*******************************************************************************
 497:.\Generated_Source\PSoC4/Counter_reset_gen.c **** * Function Name: Counter_reset_gen_SetCompareMode
 498:.\Generated_Source\PSoC4/Counter_reset_gen.c **** ********************************************************************************
 499:.\Generated_Source\PSoC4/Counter_reset_gen.c **** * Summary:
 500:.\Generated_Source\PSoC4/Counter_reset_gen.c **** *  Sets the software controlled Compare Mode.
 501:.\Generated_Source\PSoC4/Counter_reset_gen.c **** *
 502:.\Generated_Source\PSoC4/Counter_reset_gen.c **** * Parameters:
 503:.\Generated_Source\PSoC4/Counter_reset_gen.c **** *  compareMode:  Compare Mode Enumerated Type.
 504:.\Generated_Source\PSoC4/Counter_reset_gen.c **** *
 505:.\Generated_Source\PSoC4/Counter_reset_gen.c **** * Return:
 506:.\Generated_Source\PSoC4/Counter_reset_gen.c **** *  void
 507:.\Generated_Source\PSoC4/Counter_reset_gen.c **** *
 508:.\Generated_Source\PSoC4/Counter_reset_gen.c **** *******************************************************************************/
 509:.\Generated_Source\PSoC4/Counter_reset_gen.c **** void Counter_reset_gen_SetCompareMode(uint8 compareMode) 
 510:.\Generated_Source\PSoC4/Counter_reset_gen.c **** {
 511:.\Generated_Source\PSoC4/Counter_reset_gen.c ****     /* Clear the compare mode bits in the control register */
 512:.\Generated_Source\PSoC4/Counter_reset_gen.c ****     Counter_reset_gen_CONTROL &= ((uint8)(~Counter_reset_gen_CTRL_CMPMODE_MASK));
 513:.\Generated_Source\PSoC4/Counter_reset_gen.c ****     
 514:.\Generated_Source\PSoC4/Counter_reset_gen.c ****     /* Write the new setting */
 515:.\Generated_Source\PSoC4/Counter_reset_gen.c ****     Counter_reset_gen_CONTROL |= compareMode;
 516:.\Generated_Source\PSoC4/Counter_reset_gen.c **** }
 517:.\Generated_Source\PSoC4/Counter_reset_gen.c **** #endif  /* (Counter_reset_gen_COMPARE_MODE_SOFTWARE) */
 518:.\Generated_Source\PSoC4/Counter_reset_gen.c **** 
 519:.\Generated_Source\PSoC4/Counter_reset_gen.c **** 
 520:.\Generated_Source\PSoC4/Counter_reset_gen.c **** #if (Counter_reset_gen_CAPTURE_MODE_SOFTWARE)
 521:.\Generated_Source\PSoC4/Counter_reset_gen.c **** /*******************************************************************************
 522:.\Generated_Source\PSoC4/Counter_reset_gen.c **** * Function Name: Counter_reset_gen_SetCaptureMode
 523:.\Generated_Source\PSoC4/Counter_reset_gen.c **** ********************************************************************************
 524:.\Generated_Source\PSoC4/Counter_reset_gen.c **** * Summary:
 525:.\Generated_Source\PSoC4/Counter_reset_gen.c **** *  Sets the software controlled Capture Mode.
 526:.\Generated_Source\PSoC4/Counter_reset_gen.c **** *
 527:.\Generated_Source\PSoC4/Counter_reset_gen.c **** * Parameters:
 528:.\Generated_Source\PSoC4/Counter_reset_gen.c **** *  captureMode:  Capture Mode Enumerated Type.
 529:.\Generated_Source\PSoC4/Counter_reset_gen.c **** *
 530:.\Generated_Source\PSoC4/Counter_reset_gen.c **** * Return:
 531:.\Generated_Source\PSoC4/Counter_reset_gen.c **** *  void
 532:.\Generated_Source\PSoC4/Counter_reset_gen.c **** *
 533:.\Generated_Source\PSoC4/Counter_reset_gen.c **** *******************************************************************************/
 534:.\Generated_Source\PSoC4/Counter_reset_gen.c **** void Counter_reset_gen_SetCaptureMode(uint8 captureMode) 
 535:.\Generated_Source\PSoC4/Counter_reset_gen.c **** {
 536:.\Generated_Source\PSoC4/Counter_reset_gen.c ****     /* Clear the capture mode bits in the control register */
 537:.\Generated_Source\PSoC4/Counter_reset_gen.c ****     Counter_reset_gen_CONTROL &= ((uint8)(~Counter_reset_gen_CTRL_CAPMODE_MASK));
 538:.\Generated_Source\PSoC4/Counter_reset_gen.c ****     
 539:.\Generated_Source\PSoC4/Counter_reset_gen.c ****     /* Write the new setting */
 540:.\Generated_Source\PSoC4/Counter_reset_gen.c ****     Counter_reset_gen_CONTROL |= ((uint8)((uint8)captureMode << Counter_reset_gen_CTRL_CAPMODE0_SHI
 541:.\Generated_Source\PSoC4/Counter_reset_gen.c **** }
 542:.\Generated_Source\PSoC4/Counter_reset_gen.c **** #endif  /* (Counter_reset_gen_CAPTURE_MODE_SOFTWARE) */
 543:.\Generated_Source\PSoC4/Counter_reset_gen.c **** 
 544:.\Generated_Source\PSoC4/Counter_reset_gen.c **** 
 545:.\Generated_Source\PSoC4/Counter_reset_gen.c **** /*******************************************************************************
 546:.\Generated_Source\PSoC4/Counter_reset_gen.c **** * Function Name: Counter_reset_gen_ClearFIFO
 547:.\Generated_Source\PSoC4/Counter_reset_gen.c **** ********************************************************************************
 548:.\Generated_Source\PSoC4/Counter_reset_gen.c **** * Summary:
 549:.\Generated_Source\PSoC4/Counter_reset_gen.c **** *   This function clears all capture data from the capture FIFO
 550:.\Generated_Source\PSoC4/Counter_reset_gen.c **** *
 551:.\Generated_Source\PSoC4/Counter_reset_gen.c **** * Parameters:  
 552:.\Generated_Source\PSoC4/Counter_reset_gen.c **** *  void:
ARM GAS  C:\Users\TSUBAS~1\AppData\Local\Temp\ccW5s39m.s 			page 20


 553:.\Generated_Source\PSoC4/Counter_reset_gen.c **** *
 554:.\Generated_Source\PSoC4/Counter_reset_gen.c **** * Return: 
 555:.\Generated_Source\PSoC4/Counter_reset_gen.c **** *  None
 556:.\Generated_Source\PSoC4/Counter_reset_gen.c **** *
 557:.\Generated_Source\PSoC4/Counter_reset_gen.c **** *******************************************************************************/
 558:.\Generated_Source\PSoC4/Counter_reset_gen.c **** void Counter_reset_gen_ClearFIFO(void) 
 559:.\Generated_Source\PSoC4/Counter_reset_gen.c **** {
 532              		.loc 1 559 0
 533              		.cfi_startproc
 534 0000 80B5     		push	{r7, lr}
 535              	.LCFI31:
 536              		.cfi_def_cfa_offset 8
 537              		.cfi_offset 7, -8
 538              		.cfi_offset 14, -4
 539 0002 00AF     		add	r7, sp, #0
 540              	.LCFI32:
 541              		.cfi_def_cfa_register 7
 560:.\Generated_Source\PSoC4/Counter_reset_gen.c **** 
 561:.\Generated_Source\PSoC4/Counter_reset_gen.c ****     while(0u != (Counter_reset_gen_ReadStatusRegister() & Counter_reset_gen_STATUS_FIFONEMP))
 542              		.loc 1 561 0
 543 0004 01E0     		b	.L43
 544              	.L44:
 562:.\Generated_Source\PSoC4/Counter_reset_gen.c ****     {
 563:.\Generated_Source\PSoC4/Counter_reset_gen.c ****         (void)Counter_reset_gen_ReadCapture();
 545              		.loc 1 563 0
 546 0006 FFF7FEFF 		bl	Counter_reset_gen_ReadCapture
 547              	.L43:
 561:.\Generated_Source\PSoC4/Counter_reset_gen.c ****     while(0u != (Counter_reset_gen_ReadStatusRegister() & Counter_reset_gen_STATUS_FIFONEMP))
 548              		.loc 1 561 0 discriminator 1
 549 000a FFF7FEFF 		bl	Counter_reset_gen_ReadStatusRegister
 550 000e 031C     		mov	r3, r0
 551 0010 1A1C     		mov	r2, r3
 552 0012 4023     		mov	r3, #64
 553 0014 1340     		and	r3, r2
 554 0016 F6D1     		bne	.L44
 564:.\Generated_Source\PSoC4/Counter_reset_gen.c ****     }
 565:.\Generated_Source\PSoC4/Counter_reset_gen.c **** 
 566:.\Generated_Source\PSoC4/Counter_reset_gen.c **** }
 555              		.loc 1 566 0
 556 0018 BD46     		mov	sp, r7
 557              		@ sp needed for prologue
 558 001a 80BD     		pop	{r7, pc}
 559              		.cfi_endproc
 560              	.LFE13:
 561              		.size	Counter_reset_gen_ClearFIFO, .-Counter_reset_gen_ClearFIFO
 562              		.text
 563              	.Letext0:
 564              		.file 2 ".\\Generated_Source\\PSoC4\\cytypes.h"