ARM GAS  C:\Users\TSUBAS~1\AppData\Local\Temp\ccIc8AZO.s 			page 1


   1              		.cpu cortex-m0
   2              		.fpu softvfp
   3              		.eabi_attribute 20, 1
   4              		.eabi_attribute 21, 1
   5              		.eabi_attribute 23, 3
   6              		.eabi_attribute 24, 1
   7              		.eabi_attribute 25, 1
   8              		.eabi_attribute 26, 1
   9              		.eabi_attribute 30, 6
  10              		.eabi_attribute 34, 0
  11              		.eabi_attribute 18, 4
  12              		.code	16
  13              		.file	"cyfitter_cfg.c"
  14              		.text
  15              	.Ltext0:
  16              		.cfi_sections	.debug_frame
  17              		.section	.text.CYMEMZERO,"ax",%progbits
  18              		.align	2
  19              		.code	16
  20              		.thumb_func
  21              		.type	CYMEMZERO, %function
  22              	CYMEMZERO:
  23              	.LFB0:
  24              		.file 1 ".\\Generated_Source\\PSoC4\\cyfitter_cfg.c"
   1:.\Generated_Source\PSoC4/cyfitter_cfg.c **** /*******************************************************************************
   2:.\Generated_Source\PSoC4/cyfitter_cfg.c **** * FILENAME: cyfitter_cfg.c
   3:.\Generated_Source\PSoC4/cyfitter_cfg.c **** * PSoC Creator 3.0 SP1
   4:.\Generated_Source\PSoC4/cyfitter_cfg.c **** *
   5:.\Generated_Source\PSoC4/cyfitter_cfg.c **** * Description:
   6:.\Generated_Source\PSoC4/cyfitter_cfg.c **** * This file is automatically generated by PSoC Creator with device 
   7:.\Generated_Source\PSoC4/cyfitter_cfg.c **** * initialization code.  Except for the user defined sections in
   8:.\Generated_Source\PSoC4/cyfitter_cfg.c **** * CyClockStartupError(), this file should not be modified.
   9:.\Generated_Source\PSoC4/cyfitter_cfg.c **** *
  10:.\Generated_Source\PSoC4/cyfitter_cfg.c **** ********************************************************************************
  11:.\Generated_Source\PSoC4/cyfitter_cfg.c **** * Copyright 2013, Cypress Semiconductor Corporation.  All rights reserved.
  12:.\Generated_Source\PSoC4/cyfitter_cfg.c **** * You may use this file only in accordance with the license, terms, conditions, 
  13:.\Generated_Source\PSoC4/cyfitter_cfg.c **** * disclaimers, and limitations in the end user license agreement accompanying 
  14:.\Generated_Source\PSoC4/cyfitter_cfg.c **** * the software package with which this file was provided.
  15:.\Generated_Source\PSoC4/cyfitter_cfg.c **** ********************************************************************************/
  16:.\Generated_Source\PSoC4/cyfitter_cfg.c **** 
  17:.\Generated_Source\PSoC4/cyfitter_cfg.c **** #include <string.h>
  18:.\Generated_Source\PSoC4/cyfitter_cfg.c **** #include <cytypes.h>
  19:.\Generated_Source\PSoC4/cyfitter_cfg.c **** #include <cydevice_trm.h>
  20:.\Generated_Source\PSoC4/cyfitter_cfg.c **** #include <cyfitter.h>
  21:.\Generated_Source\PSoC4/cyfitter_cfg.c **** #include <CyLib.h>
  22:.\Generated_Source\PSoC4/cyfitter_cfg.c **** #include <cyfitter_cfg.h>
  23:.\Generated_Source\PSoC4/cyfitter_cfg.c **** 
  24:.\Generated_Source\PSoC4/cyfitter_cfg.c **** 
  25:.\Generated_Source\PSoC4/cyfitter_cfg.c **** #if defined(__GNUC__) || defined(__ARMCC_VERSION)
  26:.\Generated_Source\PSoC4/cyfitter_cfg.c ****     #define CYPACKED 
  27:.\Generated_Source\PSoC4/cyfitter_cfg.c ****     #define CYPACKED_ATTR __attribute__ ((packed))
  28:.\Generated_Source\PSoC4/cyfitter_cfg.c ****     #define CYALIGNED __attribute__ ((aligned))
  29:.\Generated_Source\PSoC4/cyfitter_cfg.c ****     #define CY_CFG_UNUSED __attribute__ ((unused))
  30:.\Generated_Source\PSoC4/cyfitter_cfg.c ****     #define CY_CFG_SECTION __attribute__ ((section(".psocinit")))
  31:.\Generated_Source\PSoC4/cyfitter_cfg.c ****     
  32:.\Generated_Source\PSoC4/cyfitter_cfg.c ****     #if defined(__ARMCC_VERSION)
  33:.\Generated_Source\PSoC4/cyfitter_cfg.c ****         #define CY_CFG_MEMORY_BARRIER() __memory_changed()
ARM GAS  C:\Users\TSUBAS~1\AppData\Local\Temp\ccIc8AZO.s 			page 2


  34:.\Generated_Source\PSoC4/cyfitter_cfg.c ****     #else
  35:.\Generated_Source\PSoC4/cyfitter_cfg.c ****         #define CY_CFG_MEMORY_BARRIER() __sync_synchronize()
  36:.\Generated_Source\PSoC4/cyfitter_cfg.c ****     #endif
  37:.\Generated_Source\PSoC4/cyfitter_cfg.c ****     
  38:.\Generated_Source\PSoC4/cyfitter_cfg.c **** #elif defined(__ICCARM__)
  39:.\Generated_Source\PSoC4/cyfitter_cfg.c ****     #include <intrinsics.h>
  40:.\Generated_Source\PSoC4/cyfitter_cfg.c **** 
  41:.\Generated_Source\PSoC4/cyfitter_cfg.c ****     #define CYPACKED __packed
  42:.\Generated_Source\PSoC4/cyfitter_cfg.c ****     #define CYPACKED_ATTR 
  43:.\Generated_Source\PSoC4/cyfitter_cfg.c ****     #define CYALIGNED _Pragma("data_alignment=4")
  44:.\Generated_Source\PSoC4/cyfitter_cfg.c ****     #define CY_CFG_UNUSED _Pragma("diag_suppress=Pe177")
  45:.\Generated_Source\PSoC4/cyfitter_cfg.c ****     #define CY_CFG_SECTION _Pragma("location=\".psocinit\"")
  46:.\Generated_Source\PSoC4/cyfitter_cfg.c ****     
  47:.\Generated_Source\PSoC4/cyfitter_cfg.c ****     #define CY_CFG_MEMORY_BARRIER() __DMB()
  48:.\Generated_Source\PSoC4/cyfitter_cfg.c ****     
  49:.\Generated_Source\PSoC4/cyfitter_cfg.c **** #else
  50:.\Generated_Source\PSoC4/cyfitter_cfg.c ****     #error Unsupported toolchain
  51:.\Generated_Source\PSoC4/cyfitter_cfg.c **** #endif
  52:.\Generated_Source\PSoC4/cyfitter_cfg.c **** 
  53:.\Generated_Source\PSoC4/cyfitter_cfg.c **** 
  54:.\Generated_Source\PSoC4/cyfitter_cfg.c **** CY_CFG_UNUSED
  55:.\Generated_Source\PSoC4/cyfitter_cfg.c **** static void CYMEMZERO(void *s, size_t n);
  56:.\Generated_Source\PSoC4/cyfitter_cfg.c **** CY_CFG_UNUSED
  57:.\Generated_Source\PSoC4/cyfitter_cfg.c **** static void CYMEMZERO(void *s, size_t n)
  58:.\Generated_Source\PSoC4/cyfitter_cfg.c **** {
  25              		.loc 1 58 0
  26              		.cfi_startproc
  27 0000 80B5     		push	{r7, lr}
  28              	.LCFI0:
  29              		.cfi_def_cfa_offset 8
  30              		.cfi_offset 7, -8
  31              		.cfi_offset 14, -4
  32 0002 82B0     		sub	sp, sp, #8
  33              	.LCFI1:
  34              		.cfi_def_cfa_offset 16
  35 0004 00AF     		add	r7, sp, #0
  36              	.LCFI2:
  37              		.cfi_def_cfa_register 7
  38 0006 7860     		str	r0, [r7, #4]
  39 0008 3960     		str	r1, [r7]
  59:.\Generated_Source\PSoC4/cyfitter_cfg.c **** 	(void)memset(s, 0, n);
  40              		.loc 1 59 0
  41 000a 7A68     		ldr	r2, [r7, #4]
  42 000c 3B68     		ldr	r3, [r7]
  43 000e 101C     		mov	r0, r2
  44 0010 0021     		mov	r1, #0
  45 0012 1A1C     		mov	r2, r3
  46 0014 FFF7FEFF 		bl	memset
  60:.\Generated_Source\PSoC4/cyfitter_cfg.c **** }
  47              		.loc 1 60 0
  48 0018 BD46     		mov	sp, r7
  49 001a 02B0     		add	sp, sp, #8
  50              		@ sp needed for prologue
  51 001c 80BD     		pop	{r7, pc}
  52              		.cfi_endproc
  53              	.LFE0:
  54              		.size	CYMEMZERO, .-CYMEMZERO
ARM GAS  C:\Users\TSUBAS~1\AppData\Local\Temp\ccIc8AZO.s 			page 3


  55 001e C046     		.section	.text.CYCONFIGCPY,"ax",%progbits
  56              		.align	2
  57              		.code	16
  58              		.thumb_func
  59              		.type	CYCONFIGCPY, %function
  60              	CYCONFIGCPY:
  61              	.LFB1:
  61:.\Generated_Source\PSoC4/cyfitter_cfg.c **** CY_CFG_UNUSED
  62:.\Generated_Source\PSoC4/cyfitter_cfg.c **** static void CYCONFIGCPY(void *dest, const void *src, size_t n);
  63:.\Generated_Source\PSoC4/cyfitter_cfg.c **** CY_CFG_UNUSED
  64:.\Generated_Source\PSoC4/cyfitter_cfg.c **** static void CYCONFIGCPY(void *dest, const void *src, size_t n)
  65:.\Generated_Source\PSoC4/cyfitter_cfg.c **** {
  62              		.loc 1 65 0
  63              		.cfi_startproc
  64 0000 80B5     		push	{r7, lr}
  65              	.LCFI3:
  66              		.cfi_def_cfa_offset 8
  67              		.cfi_offset 7, -8
  68              		.cfi_offset 14, -4
  69 0002 84B0     		sub	sp, sp, #16
  70              	.LCFI4:
  71              		.cfi_def_cfa_offset 24
  72 0004 00AF     		add	r7, sp, #0
  73              	.LCFI5:
  74              		.cfi_def_cfa_register 7
  75 0006 F860     		str	r0, [r7, #12]
  76 0008 B960     		str	r1, [r7, #8]
  77 000a 7A60     		str	r2, [r7, #4]
  66:.\Generated_Source\PSoC4/cyfitter_cfg.c **** 	(void)memcpy(dest, src, n);
  78              		.loc 1 66 0
  79 000c F968     		ldr	r1, [r7, #12]
  80 000e BA68     		ldr	r2, [r7, #8]
  81 0010 7B68     		ldr	r3, [r7, #4]
  82 0012 081C     		mov	r0, r1
  83 0014 111C     		mov	r1, r2
  84 0016 1A1C     		mov	r2, r3
  85 0018 FFF7FEFF 		bl	memcpy
  67:.\Generated_Source\PSoC4/cyfitter_cfg.c **** }
  86              		.loc 1 67 0
  87 001c BD46     		mov	sp, r7
  88 001e 04B0     		add	sp, sp, #16
  89              		@ sp needed for prologue
  90 0020 80BD     		pop	{r7, pc}
  91              		.cfi_endproc
  92              	.LFE1:
  93              		.size	CYCONFIGCPY, .-CYCONFIGCPY
  94 0022 C046     		.section	.text.CYCONFIGCPYCODE,"ax",%progbits
  95              		.align	2
  96              		.code	16
  97              		.thumb_func
  98              		.type	CYCONFIGCPYCODE, %function
  99              	CYCONFIGCPYCODE:
 100              	.LFB2:
  68:.\Generated_Source\PSoC4/cyfitter_cfg.c **** CY_CFG_UNUSED
  69:.\Generated_Source\PSoC4/cyfitter_cfg.c **** static void CYCONFIGCPYCODE(void *dest, const void *src, size_t n);
  70:.\Generated_Source\PSoC4/cyfitter_cfg.c **** CY_CFG_UNUSED
  71:.\Generated_Source\PSoC4/cyfitter_cfg.c **** static void CYCONFIGCPYCODE(void *dest, const void *src, size_t n)
ARM GAS  C:\Users\TSUBAS~1\AppData\Local\Temp\ccIc8AZO.s 			page 4


  72:.\Generated_Source\PSoC4/cyfitter_cfg.c **** {
 101              		.loc 1 72 0
 102              		.cfi_startproc
 103 0000 80B5     		push	{r7, lr}
 104              	.LCFI6:
 105              		.cfi_def_cfa_offset 8
 106              		.cfi_offset 7, -8
 107              		.cfi_offset 14, -4
 108 0002 84B0     		sub	sp, sp, #16
 109              	.LCFI7:
 110              		.cfi_def_cfa_offset 24
 111 0004 00AF     		add	r7, sp, #0
 112              	.LCFI8:
 113              		.cfi_def_cfa_register 7
 114 0006 F860     		str	r0, [r7, #12]
 115 0008 B960     		str	r1, [r7, #8]
 116 000a 7A60     		str	r2, [r7, #4]
  73:.\Generated_Source\PSoC4/cyfitter_cfg.c **** 	(void)memcpy(dest, src, n);
 117              		.loc 1 73 0
 118 000c F968     		ldr	r1, [r7, #12]
 119 000e BA68     		ldr	r2, [r7, #8]
 120 0010 7B68     		ldr	r3, [r7, #4]
 121 0012 081C     		mov	r0, r1
 122 0014 111C     		mov	r1, r2
 123 0016 1A1C     		mov	r2, r3
 124 0018 FFF7FEFF 		bl	memcpy
  74:.\Generated_Source\PSoC4/cyfitter_cfg.c **** }
 125              		.loc 1 74 0
 126 001c BD46     		mov	sp, r7
 127 001e 04B0     		add	sp, sp, #16
 128              		@ sp needed for prologue
 129 0020 80BD     		pop	{r7, pc}
 130              		.cfi_endproc
 131              	.LFE2:
 132              		.size	CYCONFIGCPYCODE, .-CYCONFIGCPYCODE
 133 0022 C046     		.section	.text.cfg_write_bytes32,"ax",%progbits
 134              		.align	2
 135              		.code	16
 136              		.thumb_func
 137              		.type	cfg_write_bytes32, %function
 138              	cfg_write_bytes32:
 139              	.LFB3:
  75:.\Generated_Source\PSoC4/cyfitter_cfg.c **** 
  76:.\Generated_Source\PSoC4/cyfitter_cfg.c **** 
  77:.\Generated_Source\PSoC4/cyfitter_cfg.c **** 
  78:.\Generated_Source\PSoC4/cyfitter_cfg.c **** /* Clock startup error codes                                                   */
  79:.\Generated_Source\PSoC4/cyfitter_cfg.c **** #define CYCLOCKSTART_NO_ERROR    0u
  80:.\Generated_Source\PSoC4/cyfitter_cfg.c **** #define CYCLOCKSTART_XTAL_ERROR  1u
  81:.\Generated_Source\PSoC4/cyfitter_cfg.c **** #define CYCLOCKSTART_32KHZ_ERROR 2u
  82:.\Generated_Source\PSoC4/cyfitter_cfg.c **** #define CYCLOCKSTART_PLL_ERROR   3u
  83:.\Generated_Source\PSoC4/cyfitter_cfg.c **** 
  84:.\Generated_Source\PSoC4/cyfitter_cfg.c **** #ifdef CY_NEED_CYCLOCKSTARTUPERROR
  85:.\Generated_Source\PSoC4/cyfitter_cfg.c **** /*******************************************************************************
  86:.\Generated_Source\PSoC4/cyfitter_cfg.c **** * Function Name: CyClockStartupError
  87:.\Generated_Source\PSoC4/cyfitter_cfg.c **** ********************************************************************************
  88:.\Generated_Source\PSoC4/cyfitter_cfg.c **** * Summary:
  89:.\Generated_Source\PSoC4/cyfitter_cfg.c **** *  If an error is encountered during clock configuration (crystal startup error,
ARM GAS  C:\Users\TSUBAS~1\AppData\Local\Temp\ccIc8AZO.s 			page 5


  90:.\Generated_Source\PSoC4/cyfitter_cfg.c **** *  PLL lock error, etc.), the system will end up here.  Unless reimplemented by
  91:.\Generated_Source\PSoC4/cyfitter_cfg.c **** *  the customer, this function will stop in an infinite loop.
  92:.\Generated_Source\PSoC4/cyfitter_cfg.c **** *
  93:.\Generated_Source\PSoC4/cyfitter_cfg.c **** * Parameters:
  94:.\Generated_Source\PSoC4/cyfitter_cfg.c **** *   void
  95:.\Generated_Source\PSoC4/cyfitter_cfg.c **** *
  96:.\Generated_Source\PSoC4/cyfitter_cfg.c **** * Return:
  97:.\Generated_Source\PSoC4/cyfitter_cfg.c **** *   void
  98:.\Generated_Source\PSoC4/cyfitter_cfg.c **** *
  99:.\Generated_Source\PSoC4/cyfitter_cfg.c **** *******************************************************************************/
 100:.\Generated_Source\PSoC4/cyfitter_cfg.c **** CY_CFG_UNUSED
 101:.\Generated_Source\PSoC4/cyfitter_cfg.c **** static void CyClockStartupError(uint8 errorCode);
 102:.\Generated_Source\PSoC4/cyfitter_cfg.c **** CY_CFG_UNUSED
 103:.\Generated_Source\PSoC4/cyfitter_cfg.c **** static void CyClockStartupError(uint8 errorCode)
 104:.\Generated_Source\PSoC4/cyfitter_cfg.c **** {
 105:.\Generated_Source\PSoC4/cyfitter_cfg.c ****     /* To remove the compiler warning if errorCode not used.                */
 106:.\Generated_Source\PSoC4/cyfitter_cfg.c ****     errorCode = errorCode;
 107:.\Generated_Source\PSoC4/cyfitter_cfg.c **** 
 108:.\Generated_Source\PSoC4/cyfitter_cfg.c ****     /* `#START CyClockStartupError` */
 109:.\Generated_Source\PSoC4/cyfitter_cfg.c **** 
 110:.\Generated_Source\PSoC4/cyfitter_cfg.c ****     /* If we have a clock startup error (bad MHz crystal, PLL lock, etc.),  */
 111:.\Generated_Source\PSoC4/cyfitter_cfg.c ****     /* we will end up here to allow the customer to implement something to  */
 112:.\Generated_Source\PSoC4/cyfitter_cfg.c ****     /* deal with the clock condition.                                       */
 113:.\Generated_Source\PSoC4/cyfitter_cfg.c **** 
 114:.\Generated_Source\PSoC4/cyfitter_cfg.c ****     /* `#END` */
 115:.\Generated_Source\PSoC4/cyfitter_cfg.c **** 
 116:.\Generated_Source\PSoC4/cyfitter_cfg.c ****     /* If nothing else, stop here since the clocks have not started         */
 117:.\Generated_Source\PSoC4/cyfitter_cfg.c ****     /* correctly.                                                           */
 118:.\Generated_Source\PSoC4/cyfitter_cfg.c ****     while(1) {}
 119:.\Generated_Source\PSoC4/cyfitter_cfg.c **** }
 120:.\Generated_Source\PSoC4/cyfitter_cfg.c **** #endif
 121:.\Generated_Source\PSoC4/cyfitter_cfg.c **** 
 122:.\Generated_Source\PSoC4/cyfitter_cfg.c **** #define CY_CFG_BASE_ADDR_COUNT 8u
 123:.\Generated_Source\PSoC4/cyfitter_cfg.c **** CYPACKED typedef struct
 124:.\Generated_Source\PSoC4/cyfitter_cfg.c **** {
 125:.\Generated_Source\PSoC4/cyfitter_cfg.c **** 	uint8 offset;
 126:.\Generated_Source\PSoC4/cyfitter_cfg.c **** 	uint8 value;
 127:.\Generated_Source\PSoC4/cyfitter_cfg.c **** } CYPACKED_ATTR cy_cfg_addrvalue_t;
 128:.\Generated_Source\PSoC4/cyfitter_cfg.c **** 
 129:.\Generated_Source\PSoC4/cyfitter_cfg.c **** 
 130:.\Generated_Source\PSoC4/cyfitter_cfg.c **** 
 131:.\Generated_Source\PSoC4/cyfitter_cfg.c **** /*******************************************************************************
 132:.\Generated_Source\PSoC4/cyfitter_cfg.c **** * Function Name: cfg_write_bytes32
 133:.\Generated_Source\PSoC4/cyfitter_cfg.c **** ********************************************************************************
 134:.\Generated_Source\PSoC4/cyfitter_cfg.c **** * Summary:
 135:.\Generated_Source\PSoC4/cyfitter_cfg.c **** *  This function is used for setting up the chip configuration areas that
 136:.\Generated_Source\PSoC4/cyfitter_cfg.c **** *  contain relatively sparse data.
 137:.\Generated_Source\PSoC4/cyfitter_cfg.c **** *
 138:.\Generated_Source\PSoC4/cyfitter_cfg.c **** * Parameters:
 139:.\Generated_Source\PSoC4/cyfitter_cfg.c **** *   void
 140:.\Generated_Source\PSoC4/cyfitter_cfg.c **** *
 141:.\Generated_Source\PSoC4/cyfitter_cfg.c **** * Return:
 142:.\Generated_Source\PSoC4/cyfitter_cfg.c **** *   void
 143:.\Generated_Source\PSoC4/cyfitter_cfg.c **** *
 144:.\Generated_Source\PSoC4/cyfitter_cfg.c **** *******************************************************************************/
 145:.\Generated_Source\PSoC4/cyfitter_cfg.c **** static void cfg_write_bytes32(const uint32 addr_table[], const cy_cfg_addrvalue_t data_table[]);
 146:.\Generated_Source\PSoC4/cyfitter_cfg.c **** static void cfg_write_bytes32(const uint32 addr_table[], const cy_cfg_addrvalue_t data_table[])
ARM GAS  C:\Users\TSUBAS~1\AppData\Local\Temp\ccIc8AZO.s 			page 6


 147:.\Generated_Source\PSoC4/cyfitter_cfg.c **** {
 140              		.loc 1 147 0
 141              		.cfi_startproc
 142 0000 80B5     		push	{r7, lr}
 143              	.LCFI9:
 144              		.cfi_def_cfa_offset 8
 145              		.cfi_offset 7, -8
 146              		.cfi_offset 14, -4
 147 0002 86B0     		sub	sp, sp, #24
 148              	.LCFI10:
 149              		.cfi_def_cfa_offset 32
 150 0004 00AF     		add	r7, sp, #0
 151              	.LCFI11:
 152              		.cfi_def_cfa_register 7
 153 0006 7860     		str	r0, [r7, #4]
 154 0008 3960     		str	r1, [r7]
 148:.\Generated_Source\PSoC4/cyfitter_cfg.c **** 	/* For 32-bit little-endian architectures */
 149:.\Generated_Source\PSoC4/cyfitter_cfg.c **** 	uint32 i, j = 0u;
 155              		.loc 1 149 0
 156 000a 0023     		mov	r3, #0
 157 000c 3B61     		str	r3, [r7, #16]
 150:.\Generated_Source\PSoC4/cyfitter_cfg.c **** 	for (i = 0u; i < CY_CFG_BASE_ADDR_COUNT; i++)
 158              		.loc 1 150 0
 159 000e 0023     		mov	r3, #0
 160 0010 7B61     		str	r3, [r7, #20]
 161 0012 2EE0     		b	.L5
 162              	.L8:
 163              	.LBB2:
 151:.\Generated_Source\PSoC4/cyfitter_cfg.c **** 	{
 152:.\Generated_Source\PSoC4/cyfitter_cfg.c **** 		uint32 baseAddr = addr_table[i];
 164              		.loc 1 152 0
 165 0014 7B69     		ldr	r3, [r7, #20]
 166 0016 9B00     		lsl	r3, r3, #2
 167 0018 7A68     		ldr	r2, [r7, #4]
 168 001a D318     		add	r3, r2, r3
 169 001c 1B68     		ldr	r3, [r3]
 170 001e BB60     		str	r3, [r7, #8]
 153:.\Generated_Source\PSoC4/cyfitter_cfg.c **** 		uint8 count = (uint8)baseAddr;
 171              		.loc 1 153 0
 172 0020 3B1C     		mov	r3, r7
 173 0022 0F33     		add	r3, r3, #15
 174 0024 BA68     		ldr	r2, [r7, #8]
 175 0026 1A70     		strb	r2, [r3]
 154:.\Generated_Source\PSoC4/cyfitter_cfg.c **** 		baseAddr &= 0xFFFFFF00u;
 176              		.loc 1 154 0
 177 0028 BB68     		ldr	r3, [r7, #8]
 178 002a FF22     		mov	r2, #255
 179 002c 9343     		bic	r3, r2
 180 002e BB60     		str	r3, [r7, #8]
 155:.\Generated_Source\PSoC4/cyfitter_cfg.c **** 		while (count != 0u)
 181              		.loc 1 155 0
 182 0030 17E0     		b	.L6
 183              	.L7:
 156:.\Generated_Source\PSoC4/cyfitter_cfg.c **** 		{
 157:.\Generated_Source\PSoC4/cyfitter_cfg.c **** 			CY_SET_XTND_REG8((void CYFAR *)(baseAddr + data_table[j].offset), data_table[j].value);
 184              		.loc 1 157 0
 185 0032 3B69     		ldr	r3, [r7, #16]
ARM GAS  C:\Users\TSUBAS~1\AppData\Local\Temp\ccIc8AZO.s 			page 7


 186 0034 5B00     		lsl	r3, r3, #1
 187 0036 3A68     		ldr	r2, [r7]
 188 0038 D318     		add	r3, r2, r3
 189 003a 1B78     		ldrb	r3, [r3]
 190 003c 1A1C     		mov	r2, r3
 191 003e BB68     		ldr	r3, [r7, #8]
 192 0040 D318     		add	r3, r2, r3
 193 0042 3A69     		ldr	r2, [r7, #16]
 194 0044 5200     		lsl	r2, r2, #1
 195 0046 3968     		ldr	r1, [r7]
 196 0048 8A18     		add	r2, r1, r2
 197 004a 5278     		ldrb	r2, [r2, #1]
 198 004c 1A70     		strb	r2, [r3]
 158:.\Generated_Source\PSoC4/cyfitter_cfg.c **** 			j++;
 199              		.loc 1 158 0
 200 004e 3B69     		ldr	r3, [r7, #16]
 201 0050 0133     		add	r3, r3, #1
 202 0052 3B61     		str	r3, [r7, #16]
 159:.\Generated_Source\PSoC4/cyfitter_cfg.c **** 			count--;
 203              		.loc 1 159 0
 204 0054 3B1C     		mov	r3, r7
 205 0056 0F33     		add	r3, r3, #15
 206 0058 3A1C     		mov	r2, r7
 207 005a 0F32     		add	r2, r2, #15
 208 005c 1278     		ldrb	r2, [r2]
 209 005e 013A     		sub	r2, r2, #1
 210 0060 1A70     		strb	r2, [r3]
 211              	.L6:
 155:.\Generated_Source\PSoC4/cyfitter_cfg.c **** 		while (count != 0u)
 212              		.loc 1 155 0 discriminator 1
 213 0062 3B1C     		mov	r3, r7
 214 0064 0F33     		add	r3, r3, #15
 215 0066 1B78     		ldrb	r3, [r3]
 216 0068 002B     		cmp	r3, #0
 217 006a E2D1     		bne	.L7
 218              	.LBE2:
 150:.\Generated_Source\PSoC4/cyfitter_cfg.c **** 	for (i = 0u; i < CY_CFG_BASE_ADDR_COUNT; i++)
 219              		.loc 1 150 0
 220 006c 7B69     		ldr	r3, [r7, #20]
 221 006e 0133     		add	r3, r3, #1
 222 0070 7B61     		str	r3, [r7, #20]
 223              	.L5:
 150:.\Generated_Source\PSoC4/cyfitter_cfg.c **** 	for (i = 0u; i < CY_CFG_BASE_ADDR_COUNT; i++)
 224              		.loc 1 150 0 is_stmt 0 discriminator 1
 225 0072 7B69     		ldr	r3, [r7, #20]
 226 0074 072B     		cmp	r3, #7
 227 0076 CDD9     		bls	.L8
 160:.\Generated_Source\PSoC4/cyfitter_cfg.c **** 		}
 161:.\Generated_Source\PSoC4/cyfitter_cfg.c **** 	}
 162:.\Generated_Source\PSoC4/cyfitter_cfg.c **** }
 228              		.loc 1 162 0 is_stmt 1
 229 0078 BD46     		mov	sp, r7
 230 007a 06B0     		add	sp, sp, #24
 231              		@ sp needed for prologue
 232 007c 80BD     		pop	{r7, pc}
 233              		.cfi_endproc
 234              	.LFE3:
ARM GAS  C:\Users\TSUBAS~1\AppData\Local\Temp\ccIc8AZO.s 			page 8


 235              		.size	cfg_write_bytes32, .-cfg_write_bytes32
 236 007e C046     		.section	.psocinit,"ax",%progbits
 237              		.align	2
 238              		.code	16
 239              		.thumb_func
 240              		.type	SetIMOBGTrims, %function
 241              	SetIMOBGTrims:
 242              	.LFB4:
 163:.\Generated_Source\PSoC4/cyfitter_cfg.c **** 
 164:.\Generated_Source\PSoC4/cyfitter_cfg.c **** /*******************************************************************************
 165:.\Generated_Source\PSoC4/cyfitter_cfg.c **** * Function Name: SetIMOBGTrims
 166:.\Generated_Source\PSoC4/cyfitter_cfg.c **** ********************************************************************************
 167:.\Generated_Source\PSoC4/cyfitter_cfg.c **** *
 168:.\Generated_Source\PSoC4/cyfitter_cfg.c **** * Summary:
 169:.\Generated_Source\PSoC4/cyfitter_cfg.c **** *   Performs the configuration of the bandgap trim for the IMO based on the given
 170:.\Generated_Source\PSoC4/cyfitter_cfg.c **** *   expected frequency of the IMO. 
 171:.\Generated_Source\PSoC4/cyfitter_cfg.c **** *
 172:.\Generated_Source\PSoC4/cyfitter_cfg.c **** * Parameters:
 173:.\Generated_Source\PSoC4/cyfitter_cfg.c **** *   imoFreq: Frequency for operation of the IMO.
 174:.\Generated_Source\PSoC4/cyfitter_cfg.c **** *
 175:.\Generated_Source\PSoC4/cyfitter_cfg.c **** * Return:
 176:.\Generated_Source\PSoC4/cyfitter_cfg.c **** *   void
 177:.\Generated_Source\PSoC4/cyfitter_cfg.c **** *
 178:.\Generated_Source\PSoC4/cyfitter_cfg.c **** *******************************************************************************/
 179:.\Generated_Source\PSoC4/cyfitter_cfg.c **** static void SetIMOBGTrims(uint8 imoFreq);
 180:.\Generated_Source\PSoC4/cyfitter_cfg.c **** CY_CFG_SECTION
 181:.\Generated_Source\PSoC4/cyfitter_cfg.c **** static void SetIMOBGTrims(uint8 imoFreq)
 182:.\Generated_Source\PSoC4/cyfitter_cfg.c **** {
 243              		.loc 1 182 0
 244              		.cfi_startproc
 245 0000 80B5     		push	{r7, lr}
 246              	.LCFI12:
 247              		.cfi_def_cfa_offset 8
 248              		.cfi_offset 7, -8
 249              		.cfi_offset 14, -4
 250 0002 84B0     		sub	sp, sp, #16
 251              	.LCFI13:
 252              		.cfi_def_cfa_offset 24
 253 0004 00AF     		add	r7, sp, #0
 254              	.LCFI14:
 255              		.cfi_def_cfa_register 7
 256 0006 021C     		mov	r2, r0
 257 0008 FB1D     		add	r3, r7, #7
 258 000a 1A70     		strb	r2, [r3]
 183:.\Generated_Source\PSoC4/cyfitter_cfg.c **** 	CYPACKED typedef struct {
 184:.\Generated_Source\PSoC4/cyfitter_cfg.c **** 		uint8 freq;
 185:.\Generated_Source\PSoC4/cyfitter_cfg.c **** 		uint8 absolute;
 186:.\Generated_Source\PSoC4/cyfitter_cfg.c **** 		uint8 tmpco;
 187:.\Generated_Source\PSoC4/cyfitter_cfg.c **** 	} CYPACKED_ATTR imo_trim_entry_t;
 188:.\Generated_Source\PSoC4/cyfitter_cfg.c **** 
 189:.\Generated_Source\PSoC4/cyfitter_cfg.c **** 	CYPACKED typedef struct {
 190:.\Generated_Source\PSoC4/cyfitter_cfg.c **** 		imo_trim_entry_t entries[4];
 191:.\Generated_Source\PSoC4/cyfitter_cfg.c **** 	} CYPACKED_ATTR imo_trim_table_t;
 192:.\Generated_Source\PSoC4/cyfitter_cfg.c **** 
 193:.\Generated_Source\PSoC4/cyfitter_cfg.c **** 	static const imo_trim_table_t *imo_trim_table = (const imo_trim_table_t *)CYREG_SFLASH_IMO_MAXF0;
 194:.\Generated_Source\PSoC4/cyfitter_cfg.c **** 	static const uint32 IMO_TRIM_FREQ_TABLE_ENTRIES = sizeof(imo_trim_table->entries)/sizeof(imo_trim_
 195:.\Generated_Source\PSoC4/cyfitter_cfg.c **** 
ARM GAS  C:\Users\TSUBAS~1\AppData\Local\Temp\ccIc8AZO.s 			page 9


 196:.\Generated_Source\PSoC4/cyfitter_cfg.c **** 	int32 imoTrimIndex;
 197:.\Generated_Source\PSoC4/cyfitter_cfg.c **** 	uint8 setAbs;
 198:.\Generated_Source\PSoC4/cyfitter_cfg.c **** 	uint8 setTmpCo;
 199:.\Generated_Source\PSoC4/cyfitter_cfg.c **** 
 200:.\Generated_Source\PSoC4/cyfitter_cfg.c **** 	/* Traverse the SFLASH IMO frequency-dependent bandgap trim table to
 201:.\Generated_Source\PSoC4/cyfitter_cfg.c **** 	 * locate the appropriate value to trim the IMO bandgap based on freq. */
 202:.\Generated_Source\PSoC4/cyfitter_cfg.c **** 	setAbs = CY_GET_REG8((const void *)CYREG_SFLASH_IMO_ABS4);
 259              		.loc 1 202 0
 260 000c 224A     		ldr	r2, .L13
 261 000e 3B1C     		mov	r3, r7
 262 0010 0B33     		add	r3, r3, #11
 263 0012 1278     		ldrb	r2, [r2]
 264 0014 1A70     		strb	r2, [r3]
 203:.\Generated_Source\PSoC4/cyfitter_cfg.c **** 	setTmpCo = CY_GET_REG8((const void *)CYREG_SFLASH_IMO_TMPCO4);
 265              		.loc 1 203 0
 266 0016 214A     		ldr	r2, .L13+4
 267 0018 3B1C     		mov	r3, r7
 268 001a 0A33     		add	r3, r3, #10
 269 001c 1278     		ldrb	r2, [r2]
 270 001e 1A70     		strb	r2, [r3]
 204:.\Generated_Source\PSoC4/cyfitter_cfg.c **** 	for (imoTrimIndex = ((int32)IMO_TRIM_FREQ_TABLE_ENTRIES)-1;
 271              		.loc 1 204 0
 272 0020 1F4B     		ldr	r3, .L13+8
 273 0022 1B68     		ldr	r3, [r3]
 274 0024 013B     		sub	r3, r3, #1
 275 0026 FB60     		str	r3, [r7, #12]
 276 0028 1AE0     		b	.L10
 277              	.L12:
 205:.\Generated_Source\PSoC4/cyfitter_cfg.c **** 	     (imoTrimIndex >= 0) && (imoFreq <= imo_trim_table->entries[imoTrimIndex].freq);
 206:.\Generated_Source\PSoC4/cyfitter_cfg.c **** 	     imoTrimIndex--)
 207:.\Generated_Source\PSoC4/cyfitter_cfg.c **** 	{
 208:.\Generated_Source\PSoC4/cyfitter_cfg.c **** 		setAbs = imo_trim_table->entries[imoTrimIndex].absolute;
 278              		.loc 1 208 0
 279 002a 1E4B     		ldr	r3, .L13+12
 280 002c 1868     		ldr	r0, [r3]
 281 002e 391C     		mov	r1, r7
 282 0030 0B31     		add	r1, r1, #11
 283 0032 FA68     		ldr	r2, [r7, #12]
 284 0034 131C     		mov	r3, r2
 285 0036 5B00     		lsl	r3, r3, #1
 286 0038 9B18     		add	r3, r3, r2
 287 003a C318     		add	r3, r0, r3
 288 003c 0133     		add	r3, r3, #1
 289 003e 1B78     		ldrb	r3, [r3]
 290 0040 0B70     		strb	r3, [r1]
 209:.\Generated_Source\PSoC4/cyfitter_cfg.c **** 		setTmpCo = imo_trim_table->entries[imoTrimIndex].tmpco;
 291              		.loc 1 209 0
 292 0042 184B     		ldr	r3, .L13+12
 293 0044 1868     		ldr	r0, [r3]
 294 0046 391C     		mov	r1, r7
 295 0048 0A31     		add	r1, r1, #10
 296 004a FA68     		ldr	r2, [r7, #12]
 297 004c 131C     		mov	r3, r2
 298 004e 5B00     		lsl	r3, r3, #1
 299 0050 9B18     		add	r3, r3, r2
 300 0052 C318     		add	r3, r0, r3
 301 0054 0233     		add	r3, r3, #2
ARM GAS  C:\Users\TSUBAS~1\AppData\Local\Temp\ccIc8AZO.s 			page 10


 302 0056 1B78     		ldrb	r3, [r3]
 303 0058 0B70     		strb	r3, [r1]
 206:.\Generated_Source\PSoC4/cyfitter_cfg.c **** 	     imoTrimIndex--)
 304              		.loc 1 206 0
 305 005a FB68     		ldr	r3, [r7, #12]
 306 005c 013B     		sub	r3, r3, #1
 307 005e FB60     		str	r3, [r7, #12]
 308              	.L10:
 204:.\Generated_Source\PSoC4/cyfitter_cfg.c **** 	for (imoTrimIndex = ((int32)IMO_TRIM_FREQ_TABLE_ENTRIES)-1;
 309              		.loc 1 204 0 discriminator 1
 310 0060 FB68     		ldr	r3, [r7, #12]
 311 0062 002B     		cmp	r3, #0
 312 0064 0ADB     		blt	.L11
 205:.\Generated_Source\PSoC4/cyfitter_cfg.c **** 	     (imoTrimIndex >= 0) && (imoFreq <= imo_trim_table->entries[imoTrimIndex].freq);
 313              		.loc 1 205 0
 314 0066 0F4B     		ldr	r3, .L13+12
 315 0068 1968     		ldr	r1, [r3]
 316 006a FA68     		ldr	r2, [r7, #12]
 317 006c 131C     		mov	r3, r2
 318 006e 5B00     		lsl	r3, r3, #1
 319 0070 9B18     		add	r3, r3, r2
 320 0072 5B5C     		ldrb	r3, [r3, r1]
 321 0074 FA1D     		add	r2, r7, #7
 322 0076 1278     		ldrb	r2, [r2]
 323 0078 9A42     		cmp	r2, r3
 324 007a D6D9     		bls	.L12
 325              	.L11:
 210:.\Generated_Source\PSoC4/cyfitter_cfg.c **** 	}
 211:.\Generated_Source\PSoC4/cyfitter_cfg.c **** 
 212:.\Generated_Source\PSoC4/cyfitter_cfg.c **** 	CY_SET_REG32((void *)CYREG_PWR_BG_TRIM4, setAbs);
 326              		.loc 1 212 0
 327 007c 0A4B     		ldr	r3, .L13+16
 328 007e 3A1C     		mov	r2, r7
 329 0080 0B32     		add	r2, r2, #11
 330 0082 1278     		ldrb	r2, [r2]
 331 0084 1A60     		str	r2, [r3]
 213:.\Generated_Source\PSoC4/cyfitter_cfg.c **** 	CY_SET_REG32((void *)CYREG_PWR_BG_TRIM5, setTmpCo);
 332              		.loc 1 213 0
 333 0086 094B     		ldr	r3, .L13+20
 334 0088 3A1C     		mov	r2, r7
 335 008a 0A32     		add	r2, r2, #10
 336 008c 1278     		ldrb	r2, [r2]
 337 008e 1A60     		str	r2, [r3]
 214:.\Generated_Source\PSoC4/cyfitter_cfg.c **** }
 338              		.loc 1 214 0
 339 0090 BD46     		mov	sp, r7
 340 0092 04B0     		add	sp, sp, #16
 341              		@ sp needed for prologue
 342 0094 80BD     		pop	{r7, pc}
 343              	.L14:
 344 0096 C046     		.align	2
 345              	.L13:
 346 0098 CCF1FF0F 		.word	268431820
 347 009c CDF1FF0F 		.word	268431821
 348 00a0 10020000 		.word	IMO_TRIM_FREQ_TABLE_ENTRIES.4642
 349 00a4 00000000 		.word	imo_trim_table.4641
 350 00a8 1CFF0B40 		.word	1074528028
ARM GAS  C:\Users\TSUBAS~1\AppData\Local\Temp\ccIc8AZO.s 			page 11


 351 00ac 20FF0B40 		.word	1074528032
 352              		.cfi_endproc
 353              	.LFE4:
 354              		.size	SetIMOBGTrims, .-SetIMOBGTrims
 355              		.align	2
 356              		.code	16
 357              		.thumb_func
 358              		.type	ClockSetup, %function
 359              	ClockSetup:
 360              	.LFB5:
 215:.\Generated_Source\PSoC4/cyfitter_cfg.c **** 
 216:.\Generated_Source\PSoC4/cyfitter_cfg.c **** 
 217:.\Generated_Source\PSoC4/cyfitter_cfg.c **** 
 218:.\Generated_Source\PSoC4/cyfitter_cfg.c **** /*******************************************************************************
 219:.\Generated_Source\PSoC4/cyfitter_cfg.c **** * Function Name: ClockSetup
 220:.\Generated_Source\PSoC4/cyfitter_cfg.c **** ********************************************************************************
 221:.\Generated_Source\PSoC4/cyfitter_cfg.c **** *
 222:.\Generated_Source\PSoC4/cyfitter_cfg.c **** * Summary:
 223:.\Generated_Source\PSoC4/cyfitter_cfg.c **** *   Performs the initialization of all of the clocks in the device based on the
 224:.\Generated_Source\PSoC4/cyfitter_cfg.c **** *   settings in the Clock tab of the DWR.  This includes enabling the requested
 225:.\Generated_Source\PSoC4/cyfitter_cfg.c **** *   clocks and setting the necessary dividers to produce the desired frequency. 
 226:.\Generated_Source\PSoC4/cyfitter_cfg.c **** *
 227:.\Generated_Source\PSoC4/cyfitter_cfg.c **** * Parameters:
 228:.\Generated_Source\PSoC4/cyfitter_cfg.c **** *   void
 229:.\Generated_Source\PSoC4/cyfitter_cfg.c **** *
 230:.\Generated_Source\PSoC4/cyfitter_cfg.c **** * Return:
 231:.\Generated_Source\PSoC4/cyfitter_cfg.c **** *   void
 232:.\Generated_Source\PSoC4/cyfitter_cfg.c **** *
 233:.\Generated_Source\PSoC4/cyfitter_cfg.c **** *******************************************************************************/
 234:.\Generated_Source\PSoC4/cyfitter_cfg.c **** static void ClockSetup(void);
 235:.\Generated_Source\PSoC4/cyfitter_cfg.c **** CY_CFG_SECTION
 236:.\Generated_Source\PSoC4/cyfitter_cfg.c **** static void ClockSetup(void)
 237:.\Generated_Source\PSoC4/cyfitter_cfg.c **** {
 361              		.loc 1 237 0
 362              		.cfi_startproc
 363 00b0 80B5     		push	{r7, lr}
 364              	.LCFI15:
 365              		.cfi_def_cfa_offset 8
 366              		.cfi_offset 7, -8
 367              		.cfi_offset 14, -4
 368 00b2 00AF     		add	r7, sp, #0
 369              	.LCFI16:
 370              		.cfi_def_cfa_register 7
 238:.\Generated_Source\PSoC4/cyfitter_cfg.c **** 	/* Enable HALF_EN before trimming for the flash accelerator. */
 239:.\Generated_Source\PSoC4/cyfitter_cfg.c **** 	CY_SET_REG32((void CYXDATA *)(CYREG_CLK_SELECT), (CY_GET_REG32((void *)CYREG_CLK_SELECT) | 0x00040
 371              		.loc 1 239 0
 372 00b4 144B     		ldr	r3, .L16
 373 00b6 144A     		ldr	r2, .L16
 374 00b8 1268     		ldr	r2, [r2]
 375 00ba 8021     		mov	r1, #128
 376 00bc C902     		lsl	r1, r1, #11
 377 00be 0A43     		orr	r2, r1
 378 00c0 1A60     		str	r2, [r3]
 240:.\Generated_Source\PSoC4/cyfitter_cfg.c **** 
 241:.\Generated_Source\PSoC4/cyfitter_cfg.c **** 	/* Trim IMO BG based on desired frequency. */
 242:.\Generated_Source\PSoC4/cyfitter_cfg.c **** 	SetIMOBGTrims(40u);
 379              		.loc 1 242 0
ARM GAS  C:\Users\TSUBAS~1\AppData\Local\Temp\ccIc8AZO.s 			page 12


 380 00c2 2820     		mov	r0, #40
 381 00c4 FFF79CFF 		bl	SetIMOBGTrims
 243:.\Generated_Source\PSoC4/cyfitter_cfg.c **** 
 244:.\Generated_Source\PSoC4/cyfitter_cfg.c **** 	/* Going faster than 24MHz, so update trim value then adjust to new clock speed. */
 245:.\Generated_Source\PSoC4/cyfitter_cfg.c **** 	CY_SET_REG32((void CYXDATA *)(CYREG_CLK_IMO_TRIM1), (CY_GET_REG8((void *)CYREG_SFLASH_IMO_TRIM37))
 382              		.loc 1 245 0
 383 00c8 104B     		ldr	r3, .L16+4
 384 00ca 114A     		ldr	r2, .L16+8
 385 00cc 1278     		ldrb	r2, [r2]
 386 00ce D2B2     		uxtb	r2, r2
 387 00d0 1A60     		str	r2, [r3]
 246:.\Generated_Source\PSoC4/cyfitter_cfg.c **** 	CyDelayUs(5u);
 388              		.loc 1 246 0
 389 00d2 0520     		mov	r0, #5
 390 00d4 FFF7FEFF 		bl	CyDelayUs
 247:.\Generated_Source\PSoC4/cyfitter_cfg.c **** 	CY_SET_REG32((void CYXDATA *)(CYREG_CLK_IMO_TRIM2), (43u));
 391              		.loc 1 247 0
 392 00d8 0E4B     		ldr	r3, .L16+12
 393 00da 2B22     		mov	r2, #43
 394 00dc 1A60     		str	r2, [r3]
 248:.\Generated_Source\PSoC4/cyfitter_cfg.c **** 
 249:.\Generated_Source\PSoC4/cyfitter_cfg.c **** 	/* CYDEV_CLK_SELECT00 Starting address: CYDEV_CLK_SELECT00 */
 250:.\Generated_Source\PSoC4/cyfitter_cfg.c **** 	CY_SET_XTND_REG32((void CYFAR *)(CYREG_CLK_SELECT12), 0x00000010u);
 395              		.loc 1 250 0
 396 00de 0E4B     		ldr	r3, .L16+16
 397 00e0 1022     		mov	r2, #16
 398 00e2 1A60     		str	r2, [r3]
 251:.\Generated_Source\PSoC4/cyfitter_cfg.c **** 
 252:.\Generated_Source\PSoC4/cyfitter_cfg.c **** 	/* CYDEV_CLK_IMO_CONFIG Starting address: CYDEV_CLK_IMO_CONFIG */
 253:.\Generated_Source\PSoC4/cyfitter_cfg.c **** 	CY_SET_XTND_REG32((void CYFAR *)(CYREG_CLK_IMO_CONFIG), 0x80000000u);
 399              		.loc 1 253 0
 400 00e4 0D4B     		ldr	r3, .L16+20
 401 00e6 8022     		mov	r2, #128
 402 00e8 1206     		lsl	r2, r2, #24
 403 00ea 1A60     		str	r2, [r3]
 254:.\Generated_Source\PSoC4/cyfitter_cfg.c **** 
 255:.\Generated_Source\PSoC4/cyfitter_cfg.c **** 	/* CYDEV_CLK_ILO_CONFIG Starting address: CYDEV_CLK_ILO_CONFIG */
 256:.\Generated_Source\PSoC4/cyfitter_cfg.c **** 	CY_SET_XTND_REG32((void CYFAR *)(CYREG_CLK_ILO_CONFIG), 0x80000000u);
 404              		.loc 1 256 0
 405 00ec 0C4B     		ldr	r3, .L16+24
 406 00ee 8022     		mov	r2, #128
 407 00f0 1206     		lsl	r2, r2, #24
 408 00f2 1A60     		str	r2, [r3]
 257:.\Generated_Source\PSoC4/cyfitter_cfg.c **** 
 258:.\Generated_Source\PSoC4/cyfitter_cfg.c **** 	/* CYDEV_CLK_SELECT Starting address: CYDEV_CLK_SELECT */
 259:.\Generated_Source\PSoC4/cyfitter_cfg.c **** 	CY_SET_XTND_REG32((void CYFAR *)(CYREG_CLK_SELECT), 0x00040000u);
 409              		.loc 1 259 0
 410 00f4 044B     		ldr	r3, .L16
 411 00f6 8022     		mov	r2, #128
 412 00f8 D202     		lsl	r2, r2, #11
 413 00fa 1A60     		str	r2, [r3]
 260:.\Generated_Source\PSoC4/cyfitter_cfg.c **** 
 261:.\Generated_Source\PSoC4/cyfitter_cfg.c **** 	/* CYDEV_CLK_DIVIDER_A00 Starting address: CYDEV_CLK_DIVIDER_A00 */
 262:.\Generated_Source\PSoC4/cyfitter_cfg.c **** 	CY_SET_XTND_REG32((void CYFAR *)(CYREG_CLK_DIVIDER_A00), 0x80000001u);
 414              		.loc 1 262 0
 415 00fc 094B     		ldr	r3, .L16+28
 416 00fe 0A4A     		ldr	r2, .L16+32
ARM GAS  C:\Users\TSUBAS~1\AppData\Local\Temp\ccIc8AZO.s 			page 13


 417 0100 1A60     		str	r2, [r3]
 263:.\Generated_Source\PSoC4/cyfitter_cfg.c **** 
 264:.\Generated_Source\PSoC4/cyfitter_cfg.c **** }
 418              		.loc 1 264 0
 419 0102 BD46     		mov	sp, r7
 420              		@ sp needed for prologue
 421 0104 80BD     		pop	{r7, pc}
 422              	.L17:
 423 0106 C046     		.align	2
 424              	.L16:
 425 0108 00010B40 		.word	1074462976
 426 010c 28FF0B40 		.word	1074528040
 427 0110 F5F1FF0F 		.word	268431861
 428 0114 2CFF0B40 		.word	1074528044
 429 0118 30020240 		.word	1073873456
 430 011c 08010B40 		.word	1074462984
 431 0120 04010B40 		.word	1074462980
 432 0124 00000240 		.word	1073872896
 433 0128 01000080 		.word	-2147483647
 434              		.cfi_endproc
 435              	.LFE5:
 436              		.size	ClockSetup, .-ClockSetup
 437              		.section	.text.AnalogSetDefault,"ax",%progbits
 438              		.align	2
 439              		.code	16
 440              		.thumb_func
 441              		.type	AnalogSetDefault, %function
 442              	AnalogSetDefault:
 443              	.LFB6:
 265:.\Generated_Source\PSoC4/cyfitter_cfg.c **** 
 266:.\Generated_Source\PSoC4/cyfitter_cfg.c **** 
 267:.\Generated_Source\PSoC4/cyfitter_cfg.c **** /* Analog API Functions */
 268:.\Generated_Source\PSoC4/cyfitter_cfg.c **** 
 269:.\Generated_Source\PSoC4/cyfitter_cfg.c **** 
 270:.\Generated_Source\PSoC4/cyfitter_cfg.c **** /*******************************************************************************
 271:.\Generated_Source\PSoC4/cyfitter_cfg.c **** * Function Name: AnalogSetDefault
 272:.\Generated_Source\PSoC4/cyfitter_cfg.c **** ********************************************************************************
 273:.\Generated_Source\PSoC4/cyfitter_cfg.c **** *
 274:.\Generated_Source\PSoC4/cyfitter_cfg.c **** * Summary:
 275:.\Generated_Source\PSoC4/cyfitter_cfg.c **** *  Sets up the analog portions of the chip to default values based on chip
 276:.\Generated_Source\PSoC4/cyfitter_cfg.c **** *  configuration options from the project.
 277:.\Generated_Source\PSoC4/cyfitter_cfg.c **** *
 278:.\Generated_Source\PSoC4/cyfitter_cfg.c **** * Parameters:
 279:.\Generated_Source\PSoC4/cyfitter_cfg.c **** *  void
 280:.\Generated_Source\PSoC4/cyfitter_cfg.c **** *
 281:.\Generated_Source\PSoC4/cyfitter_cfg.c **** * Return:
 282:.\Generated_Source\PSoC4/cyfitter_cfg.c **** *  void
 283:.\Generated_Source\PSoC4/cyfitter_cfg.c **** *
 284:.\Generated_Source\PSoC4/cyfitter_cfg.c **** *******************************************************************************/
 285:.\Generated_Source\PSoC4/cyfitter_cfg.c **** static void AnalogSetDefault(void);
 286:.\Generated_Source\PSoC4/cyfitter_cfg.c **** static void AnalogSetDefault(void)
 287:.\Generated_Source\PSoC4/cyfitter_cfg.c **** {
 444              		.loc 1 287 0
 445              		.cfi_startproc
 446 0000 80B5     		push	{r7, lr}
 447              	.LCFI17:
 448              		.cfi_def_cfa_offset 8
ARM GAS  C:\Users\TSUBAS~1\AppData\Local\Temp\ccIc8AZO.s 			page 14


 449              		.cfi_offset 7, -8
 450              		.cfi_offset 14, -4
 451 0002 00AF     		add	r7, sp, #0
 452              	.LCFI18:
 453              		.cfi_def_cfa_register 7
 288:.\Generated_Source\PSoC4/cyfitter_cfg.c **** }
 454              		.loc 1 288 0
 455 0004 BD46     		mov	sp, r7
 456              		@ sp needed for prologue
 457 0006 80BD     		pop	{r7, pc}
 458              		.cfi_endproc
 459              	.LFE6:
 460              		.size	AnalogSetDefault, .-AnalogSetDefault
 461              		.section	.psocinit
 462              		.align	2
 463              		.global	cyfitter_cfg
 464              		.code	16
 465              		.thumb_func
 466              		.type	cyfitter_cfg, %function
 467              	cyfitter_cfg:
 468              	.LFB7:
 289:.\Generated_Source\PSoC4/cyfitter_cfg.c **** 
 290:.\Generated_Source\PSoC4/cyfitter_cfg.c **** #define CY_AMUX_UNUSED CYREG_CM0_ROM_DWT
 291:.\Generated_Source\PSoC4/cyfitter_cfg.c **** 
 292:.\Generated_Source\PSoC4/cyfitter_cfg.c **** 
 293:.\Generated_Source\PSoC4/cyfitter_cfg.c **** /*******************************************************************************
 294:.\Generated_Source\PSoC4/cyfitter_cfg.c **** * Function Name: cyfitter_cfg
 295:.\Generated_Source\PSoC4/cyfitter_cfg.c **** ********************************************************************************
 296:.\Generated_Source\PSoC4/cyfitter_cfg.c **** * Summary:
 297:.\Generated_Source\PSoC4/cyfitter_cfg.c **** *  This function is called by the start-up code for the selected device. It
 298:.\Generated_Source\PSoC4/cyfitter_cfg.c **** *  performs all of the necessary device configuration based on the design
 299:.\Generated_Source\PSoC4/cyfitter_cfg.c **** *  settings.  This includes settings from the Design Wide Resources (DWR) such
 300:.\Generated_Source\PSoC4/cyfitter_cfg.c **** *  as Clocks and Pins as well as any component configuration that is necessary.
 301:.\Generated_Source\PSoC4/cyfitter_cfg.c **** *
 302:.\Generated_Source\PSoC4/cyfitter_cfg.c **** * Parameters:  
 303:.\Generated_Source\PSoC4/cyfitter_cfg.c **** *   void
 304:.\Generated_Source\PSoC4/cyfitter_cfg.c **** *
 305:.\Generated_Source\PSoC4/cyfitter_cfg.c **** * Return:
 306:.\Generated_Source\PSoC4/cyfitter_cfg.c **** *   void
 307:.\Generated_Source\PSoC4/cyfitter_cfg.c **** *
 308:.\Generated_Source\PSoC4/cyfitter_cfg.c **** *******************************************************************************/
 309:.\Generated_Source\PSoC4/cyfitter_cfg.c **** CY_CFG_SECTION
 310:.\Generated_Source\PSoC4/cyfitter_cfg.c **** void cyfitter_cfg(void)
 311:.\Generated_Source\PSoC4/cyfitter_cfg.c **** {
 469              		.loc 1 311 0
 470              		.cfi_startproc
 471 012c 80B5     		push	{r7, lr}
 472              	.LCFI19:
 473              		.cfi_def_cfa_offset 8
 474              		.cfi_offset 7, -8
 475              		.cfi_offset 14, -4
 476 012e 86B0     		sub	sp, sp, #24
 477              	.LCFI20:
 478              		.cfi_def_cfa_offset 32
 479 0130 00AF     		add	r7, sp, #0
 480              	.LCFI21:
 481              		.cfi_def_cfa_register 7
ARM GAS  C:\Users\TSUBAS~1\AppData\Local\Temp\ccIc8AZO.s 			page 15


 312:.\Generated_Source\PSoC4/cyfitter_cfg.c **** 	/* Disable interrupts by default. Let user enable if/when they want. */
 313:.\Generated_Source\PSoC4/cyfitter_cfg.c **** 	CyGlobalIntDisable;
 482              		.loc 1 313 0
 483              	@ 313 ".\Generated_Source\PSoC4\cyfitter_cfg.c" 1
 484 0132 72B6     		CPSID   i
 485              	@ 0 "" 2
 486              		.code	16
 487              	.LBB3:
 314:.\Generated_Source\PSoC4/cyfitter_cfg.c **** 
 315:.\Generated_Source\PSoC4/cyfitter_cfg.c **** 	{
 316:.\Generated_Source\PSoC4/cyfitter_cfg.c **** 		static const uint32 CYCODE cy_cfg_addr_table[] = {
 317:.\Generated_Source\PSoC4/cyfitter_cfg.c **** 			0x400F0004u, /* Base address: 0x400F0000 Count: 4 */
 318:.\Generated_Source\PSoC4/cyfitter_cfg.c **** 			0x400F303Au, /* Base address: 0x400F3000 Count: 58 */
 319:.\Generated_Source\PSoC4/cyfitter_cfg.c **** 			0x400F3125u, /* Base address: 0x400F3100 Count: 37 */
 320:.\Generated_Source\PSoC4/cyfitter_cfg.c **** 			0x400F320Bu, /* Base address: 0x400F3200 Count: 11 */
 321:.\Generated_Source\PSoC4/cyfitter_cfg.c **** 			0x400F332Cu, /* Base address: 0x400F3300 Count: 44 */
 322:.\Generated_Source\PSoC4/cyfitter_cfg.c **** 			0x400F4207u, /* Base address: 0x400F4200 Count: 7 */
 323:.\Generated_Source\PSoC4/cyfitter_cfg.c **** 			0x400F4305u, /* Base address: 0x400F4300 Count: 5 */
 324:.\Generated_Source\PSoC4/cyfitter_cfg.c **** 			0x400F6002u, /* Base address: 0x400F6000 Count: 2 */
 325:.\Generated_Source\PSoC4/cyfitter_cfg.c **** 		};
 326:.\Generated_Source\PSoC4/cyfitter_cfg.c **** 
 327:.\Generated_Source\PSoC4/cyfitter_cfg.c **** 		static const cy_cfg_addrvalue_t CYCODE cy_cfg_data_table[] = {
 328:.\Generated_Source\PSoC4/cyfitter_cfg.c **** 			{0x00u, 0x17u},
 329:.\Generated_Source\PSoC4/cyfitter_cfg.c **** 			{0x10u, 0x05u},
 330:.\Generated_Source\PSoC4/cyfitter_cfg.c **** 			{0x20u, 0x17u},
 331:.\Generated_Source\PSoC4/cyfitter_cfg.c **** 			{0x30u, 0x01u},
 332:.\Generated_Source\PSoC4/cyfitter_cfg.c **** 			{0x04u, 0x01u},
 333:.\Generated_Source\PSoC4/cyfitter_cfg.c **** 			{0x05u, 0x0Au},
 334:.\Generated_Source\PSoC4/cyfitter_cfg.c **** 			{0x06u, 0x1Eu},
 335:.\Generated_Source\PSoC4/cyfitter_cfg.c **** 			{0x07u, 0x14u},
 336:.\Generated_Source\PSoC4/cyfitter_cfg.c **** 			{0x0Eu, 0x09u},
 337:.\Generated_Source\PSoC4/cyfitter_cfg.c **** 			{0x15u, 0x01u},
 338:.\Generated_Source\PSoC4/cyfitter_cfg.c **** 			{0x18u, 0x03u},
 339:.\Generated_Source\PSoC4/cyfitter_cfg.c **** 			{0x19u, 0x04u},
 340:.\Generated_Source\PSoC4/cyfitter_cfg.c **** 			{0x1Au, 0x1Cu},
 341:.\Generated_Source\PSoC4/cyfitter_cfg.c **** 			{0x1Fu, 0x10u},
 342:.\Generated_Source\PSoC4/cyfitter_cfg.c **** 			{0x20u, 0x04u},
 343:.\Generated_Source\PSoC4/cyfitter_cfg.c **** 			{0x26u, 0x12u},
 344:.\Generated_Source\PSoC4/cyfitter_cfg.c **** 			{0x29u, 0x0Cu},
 345:.\Generated_Source\PSoC4/cyfitter_cfg.c **** 			{0x2Bu, 0x12u},
 346:.\Generated_Source\PSoC4/cyfitter_cfg.c **** 			{0x31u, 0x06u},
 347:.\Generated_Source\PSoC4/cyfitter_cfg.c **** 			{0x32u, 0x10u},
 348:.\Generated_Source\PSoC4/cyfitter_cfg.c **** 			{0x34u, 0x0Fu},
 349:.\Generated_Source\PSoC4/cyfitter_cfg.c **** 			{0x35u, 0x18u},
 350:.\Generated_Source\PSoC4/cyfitter_cfg.c **** 			{0x37u, 0x01u},
 351:.\Generated_Source\PSoC4/cyfitter_cfg.c **** 			{0x38u, 0x02u},
 352:.\Generated_Source\PSoC4/cyfitter_cfg.c **** 			{0x39u, 0x20u},
 353:.\Generated_Source\PSoC4/cyfitter_cfg.c **** 			{0x3Eu, 0x01u},
 354:.\Generated_Source\PSoC4/cyfitter_cfg.c **** 			{0x3Fu, 0x40u},
 355:.\Generated_Source\PSoC4/cyfitter_cfg.c **** 			{0x40u, 0x26u},
 356:.\Generated_Source\PSoC4/cyfitter_cfg.c **** 			{0x45u, 0x24u},
 357:.\Generated_Source\PSoC4/cyfitter_cfg.c **** 			{0x48u, 0x03u},
 358:.\Generated_Source\PSoC4/cyfitter_cfg.c **** 			{0x49u, 0xFFu},
 359:.\Generated_Source\PSoC4/cyfitter_cfg.c **** 			{0x4Au, 0xFFu},
 360:.\Generated_Source\PSoC4/cyfitter_cfg.c **** 			{0x4Bu, 0xFFu},
 361:.\Generated_Source\PSoC4/cyfitter_cfg.c **** 			{0x4Du, 0x90u},
 362:.\Generated_Source\PSoC4/cyfitter_cfg.c **** 			{0x4Fu, 0x20u},
ARM GAS  C:\Users\TSUBAS~1\AppData\Local\Temp\ccIc8AZO.s 			page 16


 363:.\Generated_Source\PSoC4/cyfitter_cfg.c **** 			{0x50u, 0x04u},
 364:.\Generated_Source\PSoC4/cyfitter_cfg.c **** 			{0x58u, 0x04u},
 365:.\Generated_Source\PSoC4/cyfitter_cfg.c **** 			{0x59u, 0x04u},
 366:.\Generated_Source\PSoC4/cyfitter_cfg.c **** 			{0x5Au, 0x04u},
 367:.\Generated_Source\PSoC4/cyfitter_cfg.c **** 			{0x5Bu, 0x04u},
 368:.\Generated_Source\PSoC4/cyfitter_cfg.c **** 			{0x5Fu, 0x01u},
 369:.\Generated_Source\PSoC4/cyfitter_cfg.c **** 			{0x62u, 0x98u},
 370:.\Generated_Source\PSoC4/cyfitter_cfg.c **** 			{0x64u, 0x40u},
 371:.\Generated_Source\PSoC4/cyfitter_cfg.c **** 			{0x65u, 0x40u},
 372:.\Generated_Source\PSoC4/cyfitter_cfg.c **** 			{0x66u, 0x41u},
 373:.\Generated_Source\PSoC4/cyfitter_cfg.c **** 			{0x67u, 0x40u},
 374:.\Generated_Source\PSoC4/cyfitter_cfg.c **** 			{0x80u, 0x01u},
 375:.\Generated_Source\PSoC4/cyfitter_cfg.c **** 			{0x82u, 0x02u},
 376:.\Generated_Source\PSoC4/cyfitter_cfg.c **** 			{0x8Eu, 0x03u},
 377:.\Generated_Source\PSoC4/cyfitter_cfg.c **** 			{0x93u, 0x02u},
 378:.\Generated_Source\PSoC4/cyfitter_cfg.c **** 			{0x94u, 0x01u},
 379:.\Generated_Source\PSoC4/cyfitter_cfg.c **** 			{0x95u, 0x02u},
 380:.\Generated_Source\PSoC4/cyfitter_cfg.c **** 			{0x97u, 0x01u},
 381:.\Generated_Source\PSoC4/cyfitter_cfg.c **** 			{0xA4u, 0x02u},
 382:.\Generated_Source\PSoC4/cyfitter_cfg.c **** 			{0xADu, 0x01u},
 383:.\Generated_Source\PSoC4/cyfitter_cfg.c **** 			{0xAFu, 0x02u},
 384:.\Generated_Source\PSoC4/cyfitter_cfg.c **** 			{0xB2u, 0x03u},
 385:.\Generated_Source\PSoC4/cyfitter_cfg.c **** 			{0xB5u, 0x03u},
 386:.\Generated_Source\PSoC4/cyfitter_cfg.c **** 			{0xBAu, 0x08u},
 387:.\Generated_Source\PSoC4/cyfitter_cfg.c **** 			{0xD8u, 0x04u},
 388:.\Generated_Source\PSoC4/cyfitter_cfg.c **** 			{0xD9u, 0x04u},
 389:.\Generated_Source\PSoC4/cyfitter_cfg.c **** 			{0xDFu, 0x01u},
 390:.\Generated_Source\PSoC4/cyfitter_cfg.c **** 			{0x00u, 0x04u},
 391:.\Generated_Source\PSoC4/cyfitter_cfg.c **** 			{0x01u, 0x80u},
 392:.\Generated_Source\PSoC4/cyfitter_cfg.c **** 			{0x05u, 0xC1u},
 393:.\Generated_Source\PSoC4/cyfitter_cfg.c **** 			{0x0Au, 0x04u},
 394:.\Generated_Source\PSoC4/cyfitter_cfg.c **** 			{0x0Eu, 0x20u},
 395:.\Generated_Source\PSoC4/cyfitter_cfg.c **** 			{0x10u, 0xA0u},
 396:.\Generated_Source\PSoC4/cyfitter_cfg.c **** 			{0x17u, 0x08u},
 397:.\Generated_Source\PSoC4/cyfitter_cfg.c **** 			{0x19u, 0x10u},
 398:.\Generated_Source\PSoC4/cyfitter_cfg.c **** 			{0x1Au, 0x54u},
 399:.\Generated_Source\PSoC4/cyfitter_cfg.c **** 			{0x1Eu, 0x20u},
 400:.\Generated_Source\PSoC4/cyfitter_cfg.c **** 			{0x20u, 0x04u},
 401:.\Generated_Source\PSoC4/cyfitter_cfg.c **** 			{0x22u, 0x82u},
 402:.\Generated_Source\PSoC4/cyfitter_cfg.c **** 			{0x25u, 0x10u},
 403:.\Generated_Source\PSoC4/cyfitter_cfg.c **** 			{0x27u, 0x08u},
 404:.\Generated_Source\PSoC4/cyfitter_cfg.c **** 			{0x29u, 0x10u},
 405:.\Generated_Source\PSoC4/cyfitter_cfg.c **** 			{0x2Du, 0x80u},
 406:.\Generated_Source\PSoC4/cyfitter_cfg.c **** 			{0x30u, 0xACu},
 407:.\Generated_Source\PSoC4/cyfitter_cfg.c **** 			{0x35u, 0x01u},
 408:.\Generated_Source\PSoC4/cyfitter_cfg.c **** 			{0x37u, 0x08u},
 409:.\Generated_Source\PSoC4/cyfitter_cfg.c **** 			{0x38u, 0x04u},
 410:.\Generated_Source\PSoC4/cyfitter_cfg.c **** 			{0x40u, 0x04u},
 411:.\Generated_Source\PSoC4/cyfitter_cfg.c **** 			{0x48u, 0xA0u},
 412:.\Generated_Source\PSoC4/cyfitter_cfg.c **** 			{0x49u, 0x10u},
 413:.\Generated_Source\PSoC4/cyfitter_cfg.c **** 			{0x58u, 0x04u},
 414:.\Generated_Source\PSoC4/cyfitter_cfg.c **** 			{0x5Au, 0x40u},
 415:.\Generated_Source\PSoC4/cyfitter_cfg.c **** 			{0x62u, 0x80u},
 416:.\Generated_Source\PSoC4/cyfitter_cfg.c **** 			{0x89u, 0x04u},
 417:.\Generated_Source\PSoC4/cyfitter_cfg.c **** 			{0xC0u, 0x95u},
 418:.\Generated_Source\PSoC4/cyfitter_cfg.c **** 			{0xC2u, 0x22u},
 419:.\Generated_Source\PSoC4/cyfitter_cfg.c **** 			{0xC4u, 0x2Cu},
ARM GAS  C:\Users\TSUBAS~1\AppData\Local\Temp\ccIc8AZO.s 			page 17


 420:.\Generated_Source\PSoC4/cyfitter_cfg.c **** 			{0xCAu, 0x14u},
 421:.\Generated_Source\PSoC4/cyfitter_cfg.c **** 			{0xCCu, 0xCEu},
 422:.\Generated_Source\PSoC4/cyfitter_cfg.c **** 			{0xCEu, 0x02u},
 423:.\Generated_Source\PSoC4/cyfitter_cfg.c **** 			{0xD0u, 0x04u},
 424:.\Generated_Source\PSoC4/cyfitter_cfg.c **** 			{0xD2u, 0x04u},
 425:.\Generated_Source\PSoC4/cyfitter_cfg.c **** 			{0xD6u, 0x0Au},
 426:.\Generated_Source\PSoC4/cyfitter_cfg.c **** 			{0xD8u, 0x08u},
 427:.\Generated_Source\PSoC4/cyfitter_cfg.c **** 			{0x00u, 0x01u},
 428:.\Generated_Source\PSoC4/cyfitter_cfg.c **** 			{0x02u, 0x02u},
 429:.\Generated_Source\PSoC4/cyfitter_cfg.c **** 			{0x0Cu, 0x01u},
 430:.\Generated_Source\PSoC4/cyfitter_cfg.c **** 			{0x0Eu, 0x02u},
 431:.\Generated_Source\PSoC4/cyfitter_cfg.c **** 			{0x14u, 0x02u},
 432:.\Generated_Source\PSoC4/cyfitter_cfg.c **** 			{0x18u, 0x02u},
 433:.\Generated_Source\PSoC4/cyfitter_cfg.c **** 			{0x20u, 0x02u},
 434:.\Generated_Source\PSoC4/cyfitter_cfg.c **** 			{0x30u, 0x03u},
 435:.\Generated_Source\PSoC4/cyfitter_cfg.c **** 			{0x38u, 0x02u},
 436:.\Generated_Source\PSoC4/cyfitter_cfg.c **** 			{0x58u, 0x04u},
 437:.\Generated_Source\PSoC4/cyfitter_cfg.c **** 			{0x5Fu, 0x01u},
 438:.\Generated_Source\PSoC4/cyfitter_cfg.c **** 			{0x01u, 0x8Au},
 439:.\Generated_Source\PSoC4/cyfitter_cfg.c **** 			{0x05u, 0x41u},
 440:.\Generated_Source\PSoC4/cyfitter_cfg.c **** 			{0x09u, 0x12u},
 441:.\Generated_Source\PSoC4/cyfitter_cfg.c **** 			{0x0Au, 0x12u},
 442:.\Generated_Source\PSoC4/cyfitter_cfg.c **** 			{0x0Bu, 0x04u},
 443:.\Generated_Source\PSoC4/cyfitter_cfg.c **** 			{0x0Cu, 0x04u},
 444:.\Generated_Source\PSoC4/cyfitter_cfg.c **** 			{0x0Eu, 0x20u},
 445:.\Generated_Source\PSoC4/cyfitter_cfg.c **** 			{0x0Fu, 0x04u},
 446:.\Generated_Source\PSoC4/cyfitter_cfg.c **** 			{0x10u, 0xA6u},
 447:.\Generated_Source\PSoC4/cyfitter_cfg.c **** 			{0x15u, 0x02u},
 448:.\Generated_Source\PSoC4/cyfitter_cfg.c **** 			{0x18u, 0x06u},
 449:.\Generated_Source\PSoC4/cyfitter_cfg.c **** 			{0x19u, 0xCAu},
 450:.\Generated_Source\PSoC4/cyfitter_cfg.c **** 			{0x1Bu, 0x01u},
 451:.\Generated_Source\PSoC4/cyfitter_cfg.c **** 			{0x1Du, 0x03u},
 452:.\Generated_Source\PSoC4/cyfitter_cfg.c **** 			{0x20u, 0x08u},
 453:.\Generated_Source\PSoC4/cyfitter_cfg.c **** 			{0x21u, 0x05u},
 454:.\Generated_Source\PSoC4/cyfitter_cfg.c **** 			{0x22u, 0x01u},
 455:.\Generated_Source\PSoC4/cyfitter_cfg.c **** 			{0x29u, 0x09u},
 456:.\Generated_Source\PSoC4/cyfitter_cfg.c **** 			{0x2Bu, 0x01u},
 457:.\Generated_Source\PSoC4/cyfitter_cfg.c **** 			{0x30u, 0x04u},
 458:.\Generated_Source\PSoC4/cyfitter_cfg.c **** 			{0x32u, 0x01u},
 459:.\Generated_Source\PSoC4/cyfitter_cfg.c **** 			{0x38u, 0x02u},
 460:.\Generated_Source\PSoC4/cyfitter_cfg.c **** 			{0x3Bu, 0x04u},
 461:.\Generated_Source\PSoC4/cyfitter_cfg.c **** 			{0x40u, 0x04u},
 462:.\Generated_Source\PSoC4/cyfitter_cfg.c **** 			{0x41u, 0x06u},
 463:.\Generated_Source\PSoC4/cyfitter_cfg.c **** 			{0x48u, 0xA4u},
 464:.\Generated_Source\PSoC4/cyfitter_cfg.c **** 			{0x49u, 0x40u},
 465:.\Generated_Source\PSoC4/cyfitter_cfg.c **** 			{0x50u, 0x0Au},
 466:.\Generated_Source\PSoC4/cyfitter_cfg.c **** 			{0x8Cu, 0x04u},
 467:.\Generated_Source\PSoC4/cyfitter_cfg.c **** 			{0x92u, 0x10u},
 468:.\Generated_Source\PSoC4/cyfitter_cfg.c **** 			{0x95u, 0x08u},
 469:.\Generated_Source\PSoC4/cyfitter_cfg.c **** 			{0x9Du, 0x41u},
 470:.\Generated_Source\PSoC4/cyfitter_cfg.c **** 			{0xA1u, 0x10u},
 471:.\Generated_Source\PSoC4/cyfitter_cfg.c **** 			{0xA2u, 0x10u},
 472:.\Generated_Source\PSoC4/cyfitter_cfg.c **** 			{0xA4u, 0x08u},
 473:.\Generated_Source\PSoC4/cyfitter_cfg.c **** 			{0xB2u, 0x02u},
 474:.\Generated_Source\PSoC4/cyfitter_cfg.c **** 			{0xC0u, 0x9Du},
 475:.\Generated_Source\PSoC4/cyfitter_cfg.c **** 			{0xC2u, 0x6Fu},
 476:.\Generated_Source\PSoC4/cyfitter_cfg.c **** 			{0xC4u, 0x1Fu},
ARM GAS  C:\Users\TSUBAS~1\AppData\Local\Temp\ccIc8AZO.s 			page 18


 477:.\Generated_Source\PSoC4/cyfitter_cfg.c **** 			{0xCAu, 0x0Bu},
 478:.\Generated_Source\PSoC4/cyfitter_cfg.c **** 			{0xCCu, 0x03u},
 479:.\Generated_Source\PSoC4/cyfitter_cfg.c **** 			{0xCEu, 0x03u},
 480:.\Generated_Source\PSoC4/cyfitter_cfg.c **** 			{0xD0u, 0x07u},
 481:.\Generated_Source\PSoC4/cyfitter_cfg.c **** 			{0xD2u, 0x0Cu},
 482:.\Generated_Source\PSoC4/cyfitter_cfg.c **** 			{0x52u, 0x01u},
 483:.\Generated_Source\PSoC4/cyfitter_cfg.c **** 			{0x56u, 0x40u},
 484:.\Generated_Source\PSoC4/cyfitter_cfg.c **** 			{0x5Fu, 0x20u},
 485:.\Generated_Source\PSoC4/cyfitter_cfg.c **** 			{0x8Au, 0x40u},
 486:.\Generated_Source\PSoC4/cyfitter_cfg.c **** 			{0xD4u, 0x03u},
 487:.\Generated_Source\PSoC4/cyfitter_cfg.c **** 			{0xD6u, 0x04u},
 488:.\Generated_Source\PSoC4/cyfitter_cfg.c **** 			{0xE4u, 0x01u},
 489:.\Generated_Source\PSoC4/cyfitter_cfg.c **** 			{0x8Eu, 0x01u},
 490:.\Generated_Source\PSoC4/cyfitter_cfg.c **** 			{0x9Eu, 0x01u},
 491:.\Generated_Source\PSoC4/cyfitter_cfg.c **** 			{0xB3u, 0x20u},
 492:.\Generated_Source\PSoC4/cyfitter_cfg.c **** 			{0xE4u, 0x02u},
 493:.\Generated_Source\PSoC4/cyfitter_cfg.c **** 			{0xECu, 0x04u},
 494:.\Generated_Source\PSoC4/cyfitter_cfg.c **** 			{0x01u, 0x01u},
 495:.\Generated_Source\PSoC4/cyfitter_cfg.c **** 			{0x10u, 0x01u},
 496:.\Generated_Source\PSoC4/cyfitter_cfg.c **** 		};
 497:.\Generated_Source\PSoC4/cyfitter_cfg.c **** 
 498:.\Generated_Source\PSoC4/cyfitter_cfg.c **** 
 499:.\Generated_Source\PSoC4/cyfitter_cfg.c **** 
 500:.\Generated_Source\PSoC4/cyfitter_cfg.c **** 		CYPACKED typedef struct {
 501:.\Generated_Source\PSoC4/cyfitter_cfg.c **** 			void CYFAR *address;
 502:.\Generated_Source\PSoC4/cyfitter_cfg.c **** 			uint16 size;
 503:.\Generated_Source\PSoC4/cyfitter_cfg.c **** 		} CYPACKED_ATTR cfg_memset_t;
 504:.\Generated_Source\PSoC4/cyfitter_cfg.c **** 
 505:.\Generated_Source\PSoC4/cyfitter_cfg.c **** 
 506:.\Generated_Source\PSoC4/cyfitter_cfg.c **** 		CYPACKED typedef struct {
 507:.\Generated_Source\PSoC4/cyfitter_cfg.c **** 			void CYFAR *dest;
 508:.\Generated_Source\PSoC4/cyfitter_cfg.c **** 			const void CYCODE *src;
 509:.\Generated_Source\PSoC4/cyfitter_cfg.c **** 			uint16 size;
 510:.\Generated_Source\PSoC4/cyfitter_cfg.c **** 		} CYPACKED_ATTR cfg_memcpy_t;
 511:.\Generated_Source\PSoC4/cyfitter_cfg.c **** 
 512:.\Generated_Source\PSoC4/cyfitter_cfg.c **** 		static const cfg_memset_t CYCODE cfg_memset_list [] = {
 513:.\Generated_Source\PSoC4/cyfitter_cfg.c **** 			/* address, size */
 514:.\Generated_Source\PSoC4/cyfitter_cfg.c **** 			{(void CYFAR *)(CYDEV_UDB_P0_U0_BASE), 640u},
 515:.\Generated_Source\PSoC4/cyfitter_cfg.c **** 			{(void CYFAR *)(CYDEV_UDB_P1_ROUTE_BASE), 256u},
 516:.\Generated_Source\PSoC4/cyfitter_cfg.c **** 			{(void CYFAR *)(CYDEV_UDB_DSI0_BASE), 1024u},
 517:.\Generated_Source\PSoC4/cyfitter_cfg.c **** 		};
 518:.\Generated_Source\PSoC4/cyfitter_cfg.c **** 
 519:.\Generated_Source\PSoC4/cyfitter_cfg.c **** 		/* UDB_0_0_0_CONFIG Address: CYDEV_UDB_P1_U1_BASE Size (bytes): 128 */
 520:.\Generated_Source\PSoC4/cyfitter_cfg.c **** 		static const uint8 CYCODE BS_UDB_0_0_0_CONFIG_VAL[] = {
 521:.\Generated_Source\PSoC4/cyfitter_cfg.c **** 			0x28u, 0x00u, 0x10u, 0x06u, 0x18u, 0x04u, 0x60u, 0x00u, 0x00u, 0x00u, 0x00u, 0x00u, 0x03u, 0x00u
 522:.\Generated_Source\PSoC4/cyfitter_cfg.c **** 			0x02u, 0x02u, 0x05u, 0x00u, 0x00u, 0x04u, 0x01u, 0x00u, 0x04u, 0x00u, 0x00u, 0x00u, 0x04u, 0x00u
 523:.\Generated_Source\PSoC4/cyfitter_cfg.c **** 			0x08u, 0x02u, 0x00u, 0x04u, 0x10u, 0x00u, 0x00u, 0x01u, 0x04u, 0x00u, 0x00u, 0x00u, 0x00u, 0x00u
 524:.\Generated_Source\PSoC4/cyfitter_cfg.c **** 			0x40u, 0x06u, 0x18u, 0x01u, 0x20u, 0x01u, 0x07u, 0x00u, 0x00u, 0x20u, 0x02u, 0x02u, 0x00u, 0x00u
 525:.\Generated_Source\PSoC4/cyfitter_cfg.c **** 			0x45u, 0x02u, 0x03u, 0x06u, 0x00u, 0xDCu, 0x00u, 0xEBu, 0x33u, 0xFFu, 0xFFu, 0xFFu, 0x00u, 0x00u
 526:.\Generated_Source\PSoC4/cyfitter_cfg.c **** 			0x14u, 0x01u, 0x00u, 0x00u, 0x00u, 0x00u, 0x00u, 0x00u, 0x04u, 0x04u, 0x04u, 0x00u, 0x00u, 0x00u
 527:.\Generated_Source\PSoC4/cyfitter_cfg.c **** 			0x00u, 0x00u, 0xC0u, 0x01u, 0x00u, 0x01u, 0x40u, 0x01u, 0x30u, 0x00u, 0xF0u, 0x01u, 0x30u, 0x01u
 528:.\Generated_Source\PSoC4/cyfitter_cfg.c **** 			0x00u, 0x00u, 0x00u, 0x00u, 0x00u, 0x00u, 0x00u, 0x00u, 0x00u, 0x00u, 0x00u, 0x00u, 0x00u, 0x00u
 529:.\Generated_Source\PSoC4/cyfitter_cfg.c **** 
 530:.\Generated_Source\PSoC4/cyfitter_cfg.c **** 		static const cfg_memcpy_t CYCODE cfg_memcpy_list [] = {
 531:.\Generated_Source\PSoC4/cyfitter_cfg.c **** 			/* dest, src, size */
 532:.\Generated_Source\PSoC4/cyfitter_cfg.c **** 			{(void CYFAR *)(CYDEV_UDB_P1_U1_BASE), BS_UDB_0_0_0_CONFIG_VAL, 128u},
 533:.\Generated_Source\PSoC4/cyfitter_cfg.c **** 		};
ARM GAS  C:\Users\TSUBAS~1\AppData\Local\Temp\ccIc8AZO.s 			page 19


 534:.\Generated_Source\PSoC4/cyfitter_cfg.c **** 
 535:.\Generated_Source\PSoC4/cyfitter_cfg.c **** 		uint8 CYDATA i;
 536:.\Generated_Source\PSoC4/cyfitter_cfg.c **** 
 537:.\Generated_Source\PSoC4/cyfitter_cfg.c **** 		/* Zero out critical memory blocks before beginning configuration */
 538:.\Generated_Source\PSoC4/cyfitter_cfg.c **** 		for (i = 0u; i < (sizeof(cfg_memset_list)/sizeof(cfg_memset_list[0])); i++)
 488              		.loc 1 538 0
 489 0134 3B1C     		mov	r3, r7
 490 0136 1733     		add	r3, r3, #23
 491 0138 0022     		mov	r2, #0
 492 013a 1A70     		strb	r2, [r3]
 493 013c 26E0     		b	.L20
 494              	.L21:
 495              	.LBB4:
 539:.\Generated_Source\PSoC4/cyfitter_cfg.c **** 		{
 540:.\Generated_Source\PSoC4/cyfitter_cfg.c **** 			const cfg_memset_t CYCODE * CYDATA ms = &cfg_memset_list[i];
 496              		.loc 1 540 0 discriminator 2
 497 013e 3B1C     		mov	r3, r7
 498 0140 1733     		add	r3, r3, #23
 499 0142 1A78     		ldrb	r2, [r3]
 500 0144 131C     		mov	r3, r2
 501 0146 5B00     		lsl	r3, r3, #1
 502 0148 9B18     		add	r3, r3, r2
 503 014a 5B00     		lsl	r3, r3, #1
 504 014c 4E4A     		ldr	r2, .L24
 505 014e 9B18     		add	r3, r3, r2
 506 0150 3B61     		str	r3, [r7, #16]
 541:.\Generated_Source\PSoC4/cyfitter_cfg.c **** 			CYMEMZERO(ms->address, (uint32)(ms->size));
 507              		.loc 1 541 0 discriminator 2
 508 0152 3B69     		ldr	r3, [r7, #16]
 509 0154 1A78     		ldrb	r2, [r3]
 510 0156 5978     		ldrb	r1, [r3, #1]
 511 0158 0902     		lsl	r1, r1, #8
 512 015a 0A43     		orr	r2, r1
 513 015c 9978     		ldrb	r1, [r3, #2]
 514 015e 0904     		lsl	r1, r1, #16
 515 0160 0A43     		orr	r2, r1
 516 0162 DB78     		ldrb	r3, [r3, #3]
 517 0164 1B06     		lsl	r3, r3, #24
 518 0166 1343     		orr	r3, r2
 519 0168 1A1C     		mov	r2, r3
 520 016a 3B69     		ldr	r3, [r7, #16]
 521 016c 1979     		ldrb	r1, [r3, #4]
 522 016e 5B79     		ldrb	r3, [r3, #5]
 523 0170 1B02     		lsl	r3, r3, #8
 524 0172 0B43     		orr	r3, r1
 525 0174 9BB2     		uxth	r3, r3
 526 0176 101C     		mov	r0, r2
 527 0178 191C     		mov	r1, r3
 528 017a FFF7FEFF 		bl	CYMEMZERO
 529              	.LBE4:
 538:.\Generated_Source\PSoC4/cyfitter_cfg.c **** 		for (i = 0u; i < (sizeof(cfg_memset_list)/sizeof(cfg_memset_list[0])); i++)
 530              		.loc 1 538 0 discriminator 2
 531 017e 3B1C     		mov	r3, r7
 532 0180 1733     		add	r3, r3, #23
 533 0182 3A1C     		mov	r2, r7
 534 0184 1732     		add	r2, r2, #23
 535 0186 1278     		ldrb	r2, [r2]
ARM GAS  C:\Users\TSUBAS~1\AppData\Local\Temp\ccIc8AZO.s 			page 20


 536 0188 0132     		add	r2, r2, #1
 537 018a 1A70     		strb	r2, [r3]
 538              	.L20:
 538:.\Generated_Source\PSoC4/cyfitter_cfg.c **** 		for (i = 0u; i < (sizeof(cfg_memset_list)/sizeof(cfg_memset_list[0])); i++)
 539              		.loc 1 538 0 is_stmt 0 discriminator 1
 540 018c 3B1C     		mov	r3, r7
 541 018e 1733     		add	r3, r3, #23
 542 0190 1B78     		ldrb	r3, [r3]
 543 0192 022B     		cmp	r3, #2
 544 0194 D3D9     		bls	.L21
 542:.\Generated_Source\PSoC4/cyfitter_cfg.c **** 		}
 543:.\Generated_Source\PSoC4/cyfitter_cfg.c **** 
 544:.\Generated_Source\PSoC4/cyfitter_cfg.c **** 		/* Copy device configuration data into registers */
 545:.\Generated_Source\PSoC4/cyfitter_cfg.c **** 		for (i = 0u; i < (sizeof(cfg_memcpy_list)/sizeof(cfg_memcpy_list[0])); i++)
 545              		.loc 1 545 0 is_stmt 1
 546 0196 3B1C     		mov	r3, r7
 547 0198 1733     		add	r3, r3, #23
 548 019a 0022     		mov	r2, #0
 549 019c 1A70     		strb	r2, [r3]
 550 019e 38E0     		b	.L22
 551              	.L23:
 552              	.LBB5:
 546:.\Generated_Source\PSoC4/cyfitter_cfg.c **** 		{
 547:.\Generated_Source\PSoC4/cyfitter_cfg.c **** 			const cfg_memcpy_t CYCODE * CYDATA mc = &cfg_memcpy_list[i];
 553              		.loc 1 547 0 discriminator 2
 554 01a0 3B1C     		mov	r3, r7
 555 01a2 1733     		add	r3, r3, #23
 556 01a4 1A78     		ldrb	r2, [r3]
 557 01a6 131C     		mov	r3, r2
 558 01a8 9B00     		lsl	r3, r3, #2
 559 01aa 9B18     		add	r3, r3, r2
 560 01ac 5B00     		lsl	r3, r3, #1
 561 01ae 374A     		ldr	r2, .L24+4
 562 01b0 9B18     		add	r3, r3, r2
 563 01b2 FB60     		str	r3, [r7, #12]
 548:.\Generated_Source\PSoC4/cyfitter_cfg.c **** 			void * CYDATA destPtr = mc->dest;
 564              		.loc 1 548 0 discriminator 2
 565 01b4 FB68     		ldr	r3, [r7, #12]
 566 01b6 1A78     		ldrb	r2, [r3]
 567 01b8 5978     		ldrb	r1, [r3, #1]
 568 01ba 0902     		lsl	r1, r1, #8
 569 01bc 0A43     		orr	r2, r1
 570 01be 9978     		ldrb	r1, [r3, #2]
 571 01c0 0904     		lsl	r1, r1, #16
 572 01c2 0A43     		orr	r2, r1
 573 01c4 DB78     		ldrb	r3, [r3, #3]
 574 01c6 1B06     		lsl	r3, r3, #24
 575 01c8 1343     		orr	r3, r2
 576 01ca BB60     		str	r3, [r7, #8]
 549:.\Generated_Source\PSoC4/cyfitter_cfg.c **** 			const void CYCODE * CYDATA srcPtr = mc->src;
 577              		.loc 1 549 0 discriminator 2
 578 01cc FB68     		ldr	r3, [r7, #12]
 579 01ce 1A79     		ldrb	r2, [r3, #4]
 580 01d0 5979     		ldrb	r1, [r3, #5]
 581 01d2 0902     		lsl	r1, r1, #8
 582 01d4 0A43     		orr	r2, r1
 583 01d6 9979     		ldrb	r1, [r3, #6]
ARM GAS  C:\Users\TSUBAS~1\AppData\Local\Temp\ccIc8AZO.s 			page 21


 584 01d8 0904     		lsl	r1, r1, #16
 585 01da 0A43     		orr	r2, r1
 586 01dc DB79     		ldrb	r3, [r3, #7]
 587 01de 1B06     		lsl	r3, r3, #24
 588 01e0 1343     		orr	r3, r2
 589 01e2 7B60     		str	r3, [r7, #4]
 550:.\Generated_Source\PSoC4/cyfitter_cfg.c **** 			uint16 CYDATA numBytes = mc->size;
 590              		.loc 1 550 0 discriminator 2
 591 01e4 BA1C     		add	r2, r7, #2
 592 01e6 FB68     		ldr	r3, [r7, #12]
 593 01e8 197A     		ldrb	r1, [r3, #8]
 594 01ea 5B7A     		ldrb	r3, [r3, #9]
 595 01ec 1B02     		lsl	r3, r3, #8
 596 01ee 0B43     		orr	r3, r1
 597 01f0 1380     		strh	r3, [r2]
 551:.\Generated_Source\PSoC4/cyfitter_cfg.c **** 			CYCONFIGCPYCODE(destPtr, srcPtr, numBytes);
 598              		.loc 1 551 0 discriminator 2
 599 01f2 BB1C     		add	r3, r7, #2
 600 01f4 1B88     		ldrh	r3, [r3]
 601 01f6 B968     		ldr	r1, [r7, #8]
 602 01f8 7A68     		ldr	r2, [r7, #4]
 603 01fa 081C     		mov	r0, r1
 604 01fc 111C     		mov	r1, r2
 605 01fe 1A1C     		mov	r2, r3
 606 0200 FFF7FEFF 		bl	CYCONFIGCPYCODE
 607              	.LBE5:
 545:.\Generated_Source\PSoC4/cyfitter_cfg.c **** 		for (i = 0u; i < (sizeof(cfg_memcpy_list)/sizeof(cfg_memcpy_list[0])); i++)
 608              		.loc 1 545 0 discriminator 2
 609 0204 3B1C     		mov	r3, r7
 610 0206 1733     		add	r3, r3, #23
 611 0208 3A1C     		mov	r2, r7
 612 020a 1732     		add	r2, r2, #23
 613 020c 1278     		ldrb	r2, [r2]
 614 020e 0132     		add	r2, r2, #1
 615 0210 1A70     		strb	r2, [r3]
 616              	.L22:
 545:.\Generated_Source\PSoC4/cyfitter_cfg.c **** 		for (i = 0u; i < (sizeof(cfg_memcpy_list)/sizeof(cfg_memcpy_list[0])); i++)
 617              		.loc 1 545 0 is_stmt 0 discriminator 1
 618 0212 3B1C     		mov	r3, r7
 619 0214 1733     		add	r3, r3, #23
 620 0216 1B78     		ldrb	r3, [r3]
 621 0218 002B     		cmp	r3, #0
 622 021a C1D0     		beq	.L23
 552:.\Generated_Source\PSoC4/cyfitter_cfg.c **** 		}
 553:.\Generated_Source\PSoC4/cyfitter_cfg.c **** 
 554:.\Generated_Source\PSoC4/cyfitter_cfg.c **** 		cfg_write_bytes32(cy_cfg_addr_table, cy_cfg_data_table);
 623              		.loc 1 554 0 is_stmt 1
 624 021c 1C4A     		ldr	r2, .L24+8
 625 021e 1D4B     		ldr	r3, .L24+12
 626 0220 101C     		mov	r0, r2
 627 0222 191C     		mov	r1, r3
 628 0224 FFF7FEFF 		bl	cfg_write_bytes32
 555:.\Generated_Source\PSoC4/cyfitter_cfg.c **** 
 556:.\Generated_Source\PSoC4/cyfitter_cfg.c **** 		/* HSIOM Starting address: CYDEV_HSIOM_BASE */
 557:.\Generated_Source\PSoC4/cyfitter_cfg.c **** 		CY_SET_XTND_REG32((void CYFAR *)(CYREG_HSIOM_PORT_SEL2), 0x00000333u);
 629              		.loc 1 557 0
 630 0228 1B4B     		ldr	r3, .L24+16
ARM GAS  C:\Users\TSUBAS~1\AppData\Local\Temp\ccIc8AZO.s 			page 22


 631 022a 1C4A     		ldr	r2, .L24+20
 632 022c 1A60     		str	r2, [r3]
 558:.\Generated_Source\PSoC4/cyfitter_cfg.c **** 
 559:.\Generated_Source\PSoC4/cyfitter_cfg.c **** 		/* FORCED_HSIOM Starting address: CYDEV_HSIOM_PORT_SEL3 */
 560:.\Generated_Source\PSoC4/cyfitter_cfg.c **** 		CY_SET_XTND_REG32((void CYFAR *)(CYREG_HSIOM_PORT_SEL3), 0x00000000u);
 633              		.loc 1 560 0
 634 022e 1C4B     		ldr	r3, .L24+24
 635 0230 0022     		mov	r2, #0
 636 0232 1A60     		str	r2, [r3]
 561:.\Generated_Source\PSoC4/cyfitter_cfg.c **** 
 562:.\Generated_Source\PSoC4/cyfitter_cfg.c **** 		/* IOPINS0_2 Starting address: CYDEV_PRT2_DR */
 563:.\Generated_Source\PSoC4/cyfitter_cfg.c **** 		CY_SET_XTND_REG32((void CYFAR *)(CYREG_PRT2_DR), 0x00000007u);
 637              		.loc 1 563 0
 638 0234 1B4B     		ldr	r3, .L24+28
 639 0236 0722     		mov	r2, #7
 640 0238 1A60     		str	r2, [r3]
 564:.\Generated_Source\PSoC4/cyfitter_cfg.c **** 		CY_SET_XTND_REG32((void CYFAR *)(CYREG_PRT2_PC), 0x000001B6u);
 641              		.loc 1 564 0
 642 023a 1B4B     		ldr	r3, .L24+32
 643 023c DB22     		mov	r2, #219
 644 023e 5200     		lsl	r2, r2, #1
 645 0240 1A60     		str	r2, [r3]
 565:.\Generated_Source\PSoC4/cyfitter_cfg.c **** 
 566:.\Generated_Source\PSoC4/cyfitter_cfg.c **** 		/* IOPINS0_3 Starting address: CYDEV_PRT3_PC */
 567:.\Generated_Source\PSoC4/cyfitter_cfg.c **** 		CY_SET_XTND_REG32((void CYFAR *)(CYREG_PRT3_PC), 0x00000000u);
 646              		.loc 1 567 0
 647 0242 1A4B     		ldr	r3, .L24+36
 648 0244 0022     		mov	r2, #0
 649 0246 1A60     		str	r2, [r3]
 568:.\Generated_Source\PSoC4/cyfitter_cfg.c **** 
 569:.\Generated_Source\PSoC4/cyfitter_cfg.c **** 		/* UDB_PA_2 Starting address: CYDEV_UDB_PA2_BASE */
 570:.\Generated_Source\PSoC4/cyfitter_cfg.c **** 		CY_SET_XTND_REG32((void CYFAR *)(CYDEV_UDB_PA2_BASE), 0x00990000u);
 650              		.loc 1 570 0
 651 0248 194B     		ldr	r3, .L24+40
 652 024a 9922     		mov	r2, #153
 653 024c 1204     		lsl	r2, r2, #16
 654 024e 1A60     		str	r2, [r3]
 571:.\Generated_Source\PSoC4/cyfitter_cfg.c **** 		CY_SET_XTND_REG32((void CYFAR *)(CYREG_UDB_PA2_CFG8), 0x001B0000u);
 655              		.loc 1 571 0
 656 0250 184B     		ldr	r3, .L24+44
 657 0252 D822     		mov	r2, #216
 658 0254 5203     		lsl	r2, r2, #13
 659 0256 1A60     		str	r2, [r3]
 572:.\Generated_Source\PSoC4/cyfitter_cfg.c **** 
 573:.\Generated_Source\PSoC4/cyfitter_cfg.c **** 		/* Enable digital routing */
 574:.\Generated_Source\PSoC4/cyfitter_cfg.c **** 		CY_SET_XTND_REG8((void *)CYREG_UDB_UDBIF_BANK_CTL, CY_GET_XTND_REG8((void *)CYREG_UDB_UDBIF_BANK_
 660              		.loc 1 574 0
 661 0258 174B     		ldr	r3, .L24+48
 662 025a 174A     		ldr	r2, .L24+48
 663 025c 1278     		ldrb	r2, [r2]
 664 025e D2B2     		uxtb	r2, r2
 665 0260 0221     		mov	r1, #2
 666 0262 0A43     		orr	r2, r1
 667 0264 D2B2     		uxtb	r2, r2
 668 0266 1A70     		strb	r2, [r3]
 575:.\Generated_Source\PSoC4/cyfitter_cfg.c **** 
 576:.\Generated_Source\PSoC4/cyfitter_cfg.c **** 		/* Enable UDB array */
ARM GAS  C:\Users\TSUBAS~1\AppData\Local\Temp\ccIc8AZO.s 			page 23


 577:.\Generated_Source\PSoC4/cyfitter_cfg.c **** 		CY_SET_XTND_REG8((void *)CYREG_UDB_UDBIF_BANK_CTL, CY_GET_XTND_REG8((void *)CYREG_UDB_UDBIF_BANK_
 669              		.loc 1 577 0
 670 0268 134B     		ldr	r3, .L24+48
 671 026a 134A     		ldr	r2, .L24+48
 672 026c 1278     		ldrb	r2, [r2]
 673 026e D2B2     		uxtb	r2, r2
 674 0270 0621     		mov	r1, #6
 675 0272 0A43     		orr	r2, r1
 676 0274 D2B2     		uxtb	r2, r2
 677 0276 1A70     		strb	r2, [r3]
 678              	.LBE3:
 578:.\Generated_Source\PSoC4/cyfitter_cfg.c **** 	}
 579:.\Generated_Source\PSoC4/cyfitter_cfg.c **** 
 580:.\Generated_Source\PSoC4/cyfitter_cfg.c **** 	/* Setup clocks based on selections from Clock DWR */
 581:.\Generated_Source\PSoC4/cyfitter_cfg.c **** 	ClockSetup();
 679              		.loc 1 581 0
 680 0278 FFF71AFF 		bl	ClockSetup
 582:.\Generated_Source\PSoC4/cyfitter_cfg.c **** 
 583:.\Generated_Source\PSoC4/cyfitter_cfg.c **** 	/* Perform basic analog initialization to defaults */
 584:.\Generated_Source\PSoC4/cyfitter_cfg.c **** 	AnalogSetDefault();
 681              		.loc 1 584 0
 682 027c FFF7FEFF 		bl	AnalogSetDefault
 585:.\Generated_Source\PSoC4/cyfitter_cfg.c **** 
 586:.\Generated_Source\PSoC4/cyfitter_cfg.c **** }
 683              		.loc 1 586 0
 684 0280 BD46     		mov	sp, r7
 685 0282 06B0     		add	sp, sp, #24
 686              		@ sp needed for prologue
 687 0284 80BD     		pop	{r7, pc}
 688              	.L25:
 689 0286 C046     		.align	2
 690              	.L24:
 691 0288 00000000 		.word	cfg_memset_list.4673
 692 028c 14000000 		.word	cfg_memcpy_list.4675
 693 0290 20000000 		.word	cy_cfg_addr_table.4662
 694 0294 40000000 		.word	cy_cfg_data_table.4663
 695 0298 08000140 		.word	1073807368
 696 029c 33030000 		.word	819
 697 02a0 0C000140 		.word	1073807372
 698 02a4 00020440 		.word	1074004480
 699 02a8 08020440 		.word	1074004488
 700 02ac 08030440 		.word	1074004744
 701 02b0 20500F40 		.word	1074745376
 702 02b4 28500F40 		.word	1074745384
 703 02b8 00700F40 		.word	1074753536
 704              		.cfi_endproc
 705              	.LFE7:
 706              		.size	cyfitter_cfg, .-cyfitter_cfg
 707              		.section	.rodata
 708              		.align	2
 709              		.type	cfg_memset_list.4673, %object
 710              		.size	cfg_memset_list.4673, 18
 711              	cfg_memset_list.4673:
 712 0000 00300F40 		.word	1074737152
 713 0004 8002     		.short	640
 714 0006 00330F40 		.4byte	1074737920
 715 000a 0001     		.short	256
ARM GAS  C:\Users\TSUBAS~1\AppData\Local\Temp\ccIc8AZO.s 			page 24


 716 000c 00400F40 		.word	1074741248
 717 0010 0004     		.short	1024
 718 0012 0000     		.align	2
 719              		.type	cfg_memcpy_list.4675, %object
 720              		.size	cfg_memcpy_list.4675, 10
 721              	cfg_memcpy_list.4675:
 722 0014 80320F40 		.word	1074737792
 723 0018 90010000 		.word	BS_UDB_0_0_0_CONFIG_VAL.4674
 724 001c 8000     		.short	128
 725 001e 0000     		.align	2
 726              		.type	cy_cfg_addr_table.4662, %object
 727              		.size	cy_cfg_addr_table.4662, 32
 728              	cy_cfg_addr_table.4662:
 729 0020 04000F40 		.word	1074724868
 730 0024 3A300F40 		.word	1074737210
 731 0028 25310F40 		.word	1074737445
 732 002c 0B320F40 		.word	1074737675
 733 0030 2C330F40 		.word	1074737964
 734 0034 07420F40 		.word	1074741767
 735 0038 05430F40 		.word	1074742021
 736 003c 02600F40 		.word	1074749442
 737              		.align	2
 738              		.type	cy_cfg_data_table.4663, %object
 739              		.size	cy_cfg_data_table.4663, 336
 740              	cy_cfg_data_table.4663:
 741 0040 00       		.byte	0
 742 0041 17       		.byte	23
 743 0042 10       		.byte	16
 744 0043 05       		.byte	5
 745 0044 20       		.byte	32
 746 0045 17       		.byte	23
 747 0046 30       		.byte	48
 748 0047 01       		.byte	1
 749 0048 04       		.byte	4
 750 0049 01       		.byte	1
 751 004a 05       		.byte	5
 752 004b 0A       		.byte	10
 753 004c 06       		.byte	6
 754 004d 1E       		.byte	30
 755 004e 07       		.byte	7
 756 004f 14       		.byte	20
 757 0050 0E       		.byte	14
 758 0051 09       		.byte	9
 759 0052 15       		.byte	21
 760 0053 01       		.byte	1
 761 0054 18       		.byte	24
 762 0055 03       		.byte	3
 763 0056 19       		.byte	25
 764 0057 04       		.byte	4
 765 0058 1A       		.byte	26
 766 0059 1C       		.byte	28
 767 005a 1F       		.byte	31
 768 005b 10       		.byte	16
 769 005c 20       		.byte	32
 770 005d 04       		.byte	4
 771 005e 26       		.byte	38
 772 005f 12       		.byte	18
ARM GAS  C:\Users\TSUBAS~1\AppData\Local\Temp\ccIc8AZO.s 			page 25


 773 0060 29       		.byte	41
 774 0061 0C       		.byte	12
 775 0062 2B       		.byte	43
 776 0063 12       		.byte	18
 777 0064 31       		.byte	49
 778 0065 06       		.byte	6
 779 0066 32       		.byte	50
 780 0067 10       		.byte	16
 781 0068 34       		.byte	52
 782 0069 0F       		.byte	15
 783 006a 35       		.byte	53
 784 006b 18       		.byte	24
 785 006c 37       		.byte	55
 786 006d 01       		.byte	1
 787 006e 38       		.byte	56
 788 006f 02       		.byte	2
 789 0070 39       		.byte	57
 790 0071 20       		.byte	32
 791 0072 3E       		.byte	62
 792 0073 01       		.byte	1
 793 0074 3F       		.byte	63
 794 0075 40       		.byte	64
 795 0076 40       		.byte	64
 796 0077 26       		.byte	38
 797 0078 45       		.byte	69
 798 0079 24       		.byte	36
 799 007a 48       		.byte	72
 800 007b 03       		.byte	3
 801 007c 49       		.byte	73
 802 007d FF       		.byte	-1
 803 007e 4A       		.byte	74
 804 007f FF       		.byte	-1
 805 0080 4B       		.byte	75
 806 0081 FF       		.byte	-1
 807 0082 4D       		.byte	77
 808 0083 90       		.byte	-112
 809 0084 4F       		.byte	79
 810 0085 20       		.byte	32
 811 0086 50       		.byte	80
 812 0087 04       		.byte	4
 813 0088 58       		.byte	88
 814 0089 04       		.byte	4
 815 008a 59       		.byte	89
 816 008b 04       		.byte	4
 817 008c 5A       		.byte	90
 818 008d 04       		.byte	4
 819 008e 5B       		.byte	91
 820 008f 04       		.byte	4
 821 0090 5F       		.byte	95
 822 0091 01       		.byte	1
 823 0092 62       		.byte	98
 824 0093 98       		.byte	-104
 825 0094 64       		.byte	100
 826 0095 40       		.byte	64
 827 0096 65       		.byte	101
 828 0097 40       		.byte	64
 829 0098 66       		.byte	102
ARM GAS  C:\Users\TSUBAS~1\AppData\Local\Temp\ccIc8AZO.s 			page 26


 830 0099 41       		.byte	65
 831 009a 67       		.byte	103
 832 009b 40       		.byte	64
 833 009c 80       		.byte	-128
 834 009d 01       		.byte	1
 835 009e 82       		.byte	-126
 836 009f 02       		.byte	2
 837 00a0 8E       		.byte	-114
 838 00a1 03       		.byte	3
 839 00a2 93       		.byte	-109
 840 00a3 02       		.byte	2
 841 00a4 94       		.byte	-108
 842 00a5 01       		.byte	1
 843 00a6 95       		.byte	-107
 844 00a7 02       		.byte	2
 845 00a8 97       		.byte	-105
 846 00a9 01       		.byte	1
 847 00aa A4       		.byte	-92
 848 00ab 02       		.byte	2
 849 00ac AD       		.byte	-83
 850 00ad 01       		.byte	1
 851 00ae AF       		.byte	-81
 852 00af 02       		.byte	2
 853 00b0 B2       		.byte	-78
 854 00b1 03       		.byte	3
 855 00b2 B5       		.byte	-75
 856 00b3 03       		.byte	3
 857 00b4 BA       		.byte	-70
 858 00b5 08       		.byte	8
 859 00b6 D8       		.byte	-40
 860 00b7 04       		.byte	4
 861 00b8 D9       		.byte	-39
 862 00b9 04       		.byte	4
 863 00ba DF       		.byte	-33
 864 00bb 01       		.byte	1
 865 00bc 00       		.byte	0
 866 00bd 04       		.byte	4
 867 00be 01       		.byte	1
 868 00bf 80       		.byte	-128
 869 00c0 05       		.byte	5
 870 00c1 C1       		.byte	-63
 871 00c2 0A       		.byte	10
 872 00c3 04       		.byte	4
 873 00c4 0E       		.byte	14
 874 00c5 20       		.byte	32
 875 00c6 10       		.byte	16
 876 00c7 A0       		.byte	-96
 877 00c8 17       		.byte	23
 878 00c9 08       		.byte	8
 879 00ca 19       		.byte	25
 880 00cb 10       		.byte	16
 881 00cc 1A       		.byte	26
 882 00cd 54       		.byte	84
 883 00ce 1E       		.byte	30
 884 00cf 20       		.byte	32
 885 00d0 20       		.byte	32
 886 00d1 04       		.byte	4
ARM GAS  C:\Users\TSUBAS~1\AppData\Local\Temp\ccIc8AZO.s 			page 27


 887 00d2 22       		.byte	34
 888 00d3 82       		.byte	-126
 889 00d4 25       		.byte	37
 890 00d5 10       		.byte	16
 891 00d6 27       		.byte	39
 892 00d7 08       		.byte	8
 893 00d8 29       		.byte	41
 894 00d9 10       		.byte	16
 895 00da 2D       		.byte	45
 896 00db 80       		.byte	-128
 897 00dc 30       		.byte	48
 898 00dd AC       		.byte	-84
 899 00de 35       		.byte	53
 900 00df 01       		.byte	1
 901 00e0 37       		.byte	55
 902 00e1 08       		.byte	8
 903 00e2 38       		.byte	56
 904 00e3 04       		.byte	4
 905 00e4 40       		.byte	64
 906 00e5 04       		.byte	4
 907 00e6 48       		.byte	72
 908 00e7 A0       		.byte	-96
 909 00e8 49       		.byte	73
 910 00e9 10       		.byte	16
 911 00ea 58       		.byte	88
 912 00eb 04       		.byte	4
 913 00ec 5A       		.byte	90
 914 00ed 40       		.byte	64
 915 00ee 62       		.byte	98
 916 00ef 80       		.byte	-128
 917 00f0 89       		.byte	-119
 918 00f1 04       		.byte	4
 919 00f2 C0       		.byte	-64
 920 00f3 95       		.byte	-107
 921 00f4 C2       		.byte	-62
 922 00f5 22       		.byte	34
 923 00f6 C4       		.byte	-60
 924 00f7 2C       		.byte	44
 925 00f8 CA       		.byte	-54
 926 00f9 14       		.byte	20
 927 00fa CC       		.byte	-52
 928 00fb CE       		.byte	-50
 929 00fc CE       		.byte	-50
 930 00fd 02       		.byte	2
 931 00fe D0       		.byte	-48
 932 00ff 04       		.byte	4
 933 0100 D2       		.byte	-46
 934 0101 04       		.byte	4
 935 0102 D6       		.byte	-42
 936 0103 0A       		.byte	10
 937 0104 D8       		.byte	-40
 938 0105 08       		.byte	8
 939 0106 00       		.byte	0
 940 0107 01       		.byte	1
 941 0108 02       		.byte	2
 942 0109 02       		.byte	2
 943 010a 0C       		.byte	12
ARM GAS  C:\Users\TSUBAS~1\AppData\Local\Temp\ccIc8AZO.s 			page 28


 944 010b 01       		.byte	1
 945 010c 0E       		.byte	14
 946 010d 02       		.byte	2
 947 010e 14       		.byte	20
 948 010f 02       		.byte	2
 949 0110 18       		.byte	24
 950 0111 02       		.byte	2
 951 0112 20       		.byte	32
 952 0113 02       		.byte	2
 953 0114 30       		.byte	48
 954 0115 03       		.byte	3
 955 0116 38       		.byte	56
 956 0117 02       		.byte	2
 957 0118 58       		.byte	88
 958 0119 04       		.byte	4
 959 011a 5F       		.byte	95
 960 011b 01       		.byte	1
 961 011c 01       		.byte	1
 962 011d 8A       		.byte	-118
 963 011e 05       		.byte	5
 964 011f 41       		.byte	65
 965 0120 09       		.byte	9
 966 0121 12       		.byte	18
 967 0122 0A       		.byte	10
 968 0123 12       		.byte	18
 969 0124 0B       		.byte	11
 970 0125 04       		.byte	4
 971 0126 0C       		.byte	12
 972 0127 04       		.byte	4
 973 0128 0E       		.byte	14
 974 0129 20       		.byte	32
 975 012a 0F       		.byte	15
 976 012b 04       		.byte	4
 977 012c 10       		.byte	16
 978 012d A6       		.byte	-90
 979 012e 15       		.byte	21
 980 012f 02       		.byte	2
 981 0130 18       		.byte	24
 982 0131 06       		.byte	6
 983 0132 19       		.byte	25
 984 0133 CA       		.byte	-54
 985 0134 1B       		.byte	27
 986 0135 01       		.byte	1
 987 0136 1D       		.byte	29
 988 0137 03       		.byte	3
 989 0138 20       		.byte	32
 990 0139 08       		.byte	8
 991 013a 21       		.byte	33
 992 013b 05       		.byte	5
 993 013c 22       		.byte	34
 994 013d 01       		.byte	1
 995 013e 29       		.byte	41
 996 013f 09       		.byte	9
 997 0140 2B       		.byte	43
 998 0141 01       		.byte	1
 999 0142 30       		.byte	48
 1000 0143 04       		.byte	4
ARM GAS  C:\Users\TSUBAS~1\AppData\Local\Temp\ccIc8AZO.s 			page 29


 1001 0144 32       		.byte	50
 1002 0145 01       		.byte	1
 1003 0146 38       		.byte	56
 1004 0147 02       		.byte	2
 1005 0148 3B       		.byte	59
 1006 0149 04       		.byte	4
 1007 014a 40       		.byte	64
 1008 014b 04       		.byte	4
 1009 014c 41       		.byte	65
 1010 014d 06       		.byte	6
 1011 014e 48       		.byte	72
 1012 014f A4       		.byte	-92
 1013 0150 49       		.byte	73
 1014 0151 40       		.byte	64
 1015 0152 50       		.byte	80
 1016 0153 0A       		.byte	10
 1017 0154 8C       		.byte	-116
 1018 0155 04       		.byte	4
 1019 0156 92       		.byte	-110
 1020 0157 10       		.byte	16
 1021 0158 95       		.byte	-107
 1022 0159 08       		.byte	8
 1023 015a 9D       		.byte	-99
 1024 015b 41       		.byte	65
 1025 015c A1       		.byte	-95
 1026 015d 10       		.byte	16
 1027 015e A2       		.byte	-94
 1028 015f 10       		.byte	16
 1029 0160 A4       		.byte	-92
 1030 0161 08       		.byte	8
 1031 0162 B2       		.byte	-78
 1032 0163 02       		.byte	2
 1033 0164 C0       		.byte	-64
 1034 0165 9D       		.byte	-99
 1035 0166 C2       		.byte	-62
 1036 0167 6F       		.byte	111
 1037 0168 C4       		.byte	-60
 1038 0169 1F       		.byte	31
 1039 016a CA       		.byte	-54
 1040 016b 0B       		.byte	11
 1041 016c CC       		.byte	-52
 1042 016d 03       		.byte	3
 1043 016e CE       		.byte	-50
 1044 016f 03       		.byte	3
 1045 0170 D0       		.byte	-48
 1046 0171 07       		.byte	7
 1047 0172 D2       		.byte	-46
 1048 0173 0C       		.byte	12
 1049 0174 52       		.byte	82
 1050 0175 01       		.byte	1
 1051 0176 56       		.byte	86
 1052 0177 40       		.byte	64
 1053 0178 5F       		.byte	95
 1054 0179 20       		.byte	32
 1055 017a 8A       		.byte	-118
 1056 017b 40       		.byte	64
 1057 017c D4       		.byte	-44
ARM GAS  C:\Users\TSUBAS~1\AppData\Local\Temp\ccIc8AZO.s 			page 30


 1058 017d 03       		.byte	3
 1059 017e D6       		.byte	-42
 1060 017f 04       		.byte	4
 1061 0180 E4       		.byte	-28
 1062 0181 01       		.byte	1
 1063 0182 8E       		.byte	-114
 1064 0183 01       		.byte	1
 1065 0184 9E       		.byte	-98
 1066 0185 01       		.byte	1
 1067 0186 B3       		.byte	-77
 1068 0187 20       		.byte	32
 1069 0188 E4       		.byte	-28
 1070 0189 02       		.byte	2
 1071 018a EC       		.byte	-20
 1072 018b 04       		.byte	4
 1073 018c 01       		.byte	1
 1074 018d 01       		.byte	1
 1075 018e 10       		.byte	16
 1076 018f 01       		.byte	1
 1077              		.align	2
 1078              		.type	BS_UDB_0_0_0_CONFIG_VAL.4674, %object
 1079              		.size	BS_UDB_0_0_0_CONFIG_VAL.4674, 128
 1080              	BS_UDB_0_0_0_CONFIG_VAL.4674:
 1081 0190 28       		.byte	40
 1082 0191 00       		.byte	0
 1083 0192 10       		.byte	16
 1084 0193 06       		.byte	6
 1085 0194 18       		.byte	24
 1086 0195 04       		.byte	4
 1087 0196 60       		.byte	96
 1088 0197 00       		.byte	0
 1089 0198 00       		.byte	0
 1090 0199 00       		.byte	0
 1091 019a 00       		.byte	0
 1092 019b 00       		.byte	0
 1093 019c 03       		.byte	3
 1094 019d 00       		.byte	0
 1095 019e 04       		.byte	4
 1096 019f 00       		.byte	0
 1097 01a0 02       		.byte	2
 1098 01a1 02       		.byte	2
 1099 01a2 05       		.byte	5
 1100 01a3 00       		.byte	0
 1101 01a4 00       		.byte	0
 1102 01a5 04       		.byte	4
 1103 01a6 01       		.byte	1
 1104 01a7 00       		.byte	0
 1105 01a8 04       		.byte	4
 1106 01a9 00       		.byte	0
 1107 01aa 00       		.byte	0
 1108 01ab 00       		.byte	0
 1109 01ac 04       		.byte	4
 1110 01ad 00       		.byte	0
 1111 01ae 00       		.byte	0
 1112 01af 00       		.byte	0
 1113 01b0 08       		.byte	8
 1114 01b1 02       		.byte	2
ARM GAS  C:\Users\TSUBAS~1\AppData\Local\Temp\ccIc8AZO.s 			page 31


 1115 01b2 00       		.byte	0
 1116 01b3 04       		.byte	4
 1117 01b4 10       		.byte	16
 1118 01b5 00       		.byte	0
 1119 01b6 00       		.byte	0
 1120 01b7 01       		.byte	1
 1121 01b8 04       		.byte	4
 1122 01b9 00       		.byte	0
 1123 01ba 00       		.byte	0
 1124 01bb 00       		.byte	0
 1125 01bc 00       		.byte	0
 1126 01bd 00       		.byte	0
 1127 01be 06       		.byte	6
 1128 01bf 01       		.byte	1
 1129 01c0 40       		.byte	64
 1130 01c1 06       		.byte	6
 1131 01c2 18       		.byte	24
 1132 01c3 01       		.byte	1
 1133 01c4 20       		.byte	32
 1134 01c5 01       		.byte	1
 1135 01c6 07       		.byte	7
 1136 01c7 00       		.byte	0
 1137 01c8 00       		.byte	0
 1138 01c9 20       		.byte	32
 1139 01ca 02       		.byte	2
 1140 01cb 02       		.byte	2
 1141 01cc 00       		.byte	0
 1142 01cd 00       		.byte	0
 1143 01ce 10       		.byte	16
 1144 01cf 14       		.byte	20
 1145 01d0 45       		.byte	69
 1146 01d1 02       		.byte	2
 1147 01d2 03       		.byte	3
 1148 01d3 06       		.byte	6
 1149 01d4 00       		.byte	0
 1150 01d5 DC       		.byte	-36
 1151 01d6 00       		.byte	0
 1152 01d7 EB       		.byte	-21
 1153 01d8 33       		.byte	51
 1154 01d9 FF       		.byte	-1
 1155 01da FF       		.byte	-1
 1156 01db FF       		.byte	-1
 1157 01dc 00       		.byte	0
 1158 01dd 00       		.byte	0
 1159 01de 70       		.byte	112
 1160 01df 02       		.byte	2
 1161 01e0 14       		.byte	20
 1162 01e1 01       		.byte	1
 1163 01e2 00       		.byte	0
 1164 01e3 00       		.byte	0
 1165 01e4 00       		.byte	0
 1166 01e5 00       		.byte	0
 1167 01e6 00       		.byte	0
 1168 01e7 00       		.byte	0
 1169 01e8 04       		.byte	4
 1170 01e9 04       		.byte	4
 1171 01ea 04       		.byte	4
ARM GAS  C:\Users\TSUBAS~1\AppData\Local\Temp\ccIc8AZO.s 			page 32


 1172 01eb 00       		.byte	0
 1173 01ec 00       		.byte	0
 1174 01ed 00       		.byte	0
 1175 01ee 00       		.byte	0
 1176 01ef 01       		.byte	1
 1177 01f0 00       		.byte	0
 1178 01f1 00       		.byte	0
 1179 01f2 C0       		.byte	-64
 1180 01f3 01       		.byte	1
 1181 01f4 00       		.byte	0
 1182 01f5 01       		.byte	1
 1183 01f6 40       		.byte	64
 1184 01f7 01       		.byte	1
 1185 01f8 30       		.byte	48
 1186 01f9 00       		.byte	0
 1187 01fa F0       		.byte	-16
 1188 01fb 01       		.byte	1
 1189 01fc 30       		.byte	48
 1190 01fd 01       		.byte	1
 1191 01fe 70       		.byte	112
 1192 01ff 01       		.byte	1
 1193 0200 00       		.byte	0
 1194 0201 00       		.byte	0
 1195 0202 00       		.byte	0
 1196 0203 00       		.byte	0
 1197 0204 00       		.byte	0
 1198 0205 00       		.byte	0
 1199 0206 00       		.byte	0
 1200 0207 00       		.byte	0
 1201 0208 00       		.byte	0
 1202 0209 00       		.byte	0
 1203 020a 00       		.byte	0
 1204 020b 00       		.byte	0
 1205 020c 00       		.byte	0
 1206 020d 00       		.byte	0
 1207 020e 00       		.byte	0
 1208 020f 00       		.byte	0
 1209              		.align	2
 1210              		.type	IMO_TRIM_FREQ_TABLE_ENTRIES.4642, %object
 1211              		.size	IMO_TRIM_FREQ_TABLE_ENTRIES.4642, 4
 1212              	IMO_TRIM_FREQ_TABLE_ENTRIES.4642:
 1213 0210 04000000 		.word	4
 1214              		.data
 1215              		.align	2
 1216              		.type	imo_trim_table.4641, %object
 1217              		.size	imo_trim_table.4641, 4
 1218              	imo_trim_table.4641:
 1219 0000 C0F1FF0F 		.word	268431808
 1220              		.text
 1221              	.Letext0:
 1222              		.file 2 "c:\\program files (x86)\\cypress\\psoc creator\\3.0\\psoc creator\\import\\gnu_cs\\arm\\4
 1223              		.file 3 "./Generated_Source/PSoC4/cytypes.h"