ARM GAS  C:\Users\TSUBAS~1\AppData\Local\Temp\cck1RKSd.s 			page 1


   1              		.cpu cortex-m0
   2              		.fpu softvfp
   3              		.eabi_attribute 20, 1
   4              		.eabi_attribute 21, 1
   5              		.eabi_attribute 23, 3
   6              		.eabi_attribute 24, 1
   7              		.eabi_attribute 25, 1
   8              		.eabi_attribute 26, 1
   9              		.eabi_attribute 30, 6
  10              		.eabi_attribute 34, 0
  11              		.eabi_attribute 18, 4
  12              		.code	16
  13              		.file	"EZI2C_1_EZI2C.c"
  14              		.text
  15              	.Ltext0:
  16              		.cfi_sections	.debug_frame
  17              		.comm	EZI2C_1_curStatus,1,1
  18              		.comm	EZI2C_1_fsmState,1,1
  19              		.comm	EZI2C_1_dataBuffer1,4,4
  20              		.comm	EZI2C_1_bufSizeBuf1,2,2
  21              		.comm	EZI2C_1_protectBuf1,2,2
  22              		.comm	EZI2C_1_offsetBuf1,1,1
  23              		.comm	EZI2C_1_indexBuf1,2,2
  24              		.section	.text.EZI2C_1_EzI2CInit,"ax",%progbits
  25              		.align	2
  26              		.global	EZI2C_1_EzI2CInit
  27              		.code	16
  28              		.thumb_func
  29              		.type	EZI2C_1_EzI2CInit, %function
  30              	EZI2C_1_EzI2CInit:
  31              	.LFB0:
  32              		.file 1 ".\\Generated_Source\\PSoC4\\EZI2C_1_EZI2C.c"
   1:.\Generated_Source\PSoC4/EZI2C_1_EZI2C.c **** /*******************************************************************************
   2:.\Generated_Source\PSoC4/EZI2C_1_EZI2C.c **** * File Name: EZI2C_1_EZI2C.c
   3:.\Generated_Source\PSoC4/EZI2C_1_EZI2C.c **** * Version 1.20
   4:.\Generated_Source\PSoC4/EZI2C_1_EZI2C.c **** *
   5:.\Generated_Source\PSoC4/EZI2C_1_EZI2C.c **** * Description:
   6:.\Generated_Source\PSoC4/EZI2C_1_EZI2C.c **** *  This file provides the source code to the API for the SCB Component in
   7:.\Generated_Source\PSoC4/EZI2C_1_EZI2C.c **** *  EZI2C mode.
   8:.\Generated_Source\PSoC4/EZI2C_1_EZI2C.c **** *
   9:.\Generated_Source\PSoC4/EZI2C_1_EZI2C.c **** * Note:
  10:.\Generated_Source\PSoC4/EZI2C_1_EZI2C.c **** *
  11:.\Generated_Source\PSoC4/EZI2C_1_EZI2C.c **** *******************************************************************************
  12:.\Generated_Source\PSoC4/EZI2C_1_EZI2C.c **** * Copyright 2013-2014, Cypress Semiconductor Corporation.  All rights reserved.
  13:.\Generated_Source\PSoC4/EZI2C_1_EZI2C.c **** * You may use this file only in accordance with the license, terms, conditions,
  14:.\Generated_Source\PSoC4/EZI2C_1_EZI2C.c **** * disclaimers, and limitations in the end user license agreement accompanying
  15:.\Generated_Source\PSoC4/EZI2C_1_EZI2C.c **** * the software package with which this file was provided.
  16:.\Generated_Source\PSoC4/EZI2C_1_EZI2C.c **** *******************************************************************************/
  17:.\Generated_Source\PSoC4/EZI2C_1_EZI2C.c **** 
  18:.\Generated_Source\PSoC4/EZI2C_1_EZI2C.c **** #include "EZI2C_1_PVT.h"
  19:.\Generated_Source\PSoC4/EZI2C_1_EZI2C.c **** #include "EZI2C_1_EZI2C_PVT.h"
  20:.\Generated_Source\PSoC4/EZI2C_1_EZI2C.c **** 
  21:.\Generated_Source\PSoC4/EZI2C_1_EZI2C.c **** 
  22:.\Generated_Source\PSoC4/EZI2C_1_EZI2C.c **** /***************************************
  23:.\Generated_Source\PSoC4/EZI2C_1_EZI2C.c **** *      EZI2C Private Vars
  24:.\Generated_Source\PSoC4/EZI2C_1_EZI2C.c **** ***************************************/
  25:.\Generated_Source\PSoC4/EZI2C_1_EZI2C.c **** 
ARM GAS  C:\Users\TSUBAS~1\AppData\Local\Temp\cck1RKSd.s 			page 2


  26:.\Generated_Source\PSoC4/EZI2C_1_EZI2C.c **** volatile uint8 EZI2C_1_curStatus; /* Status byte */
  27:.\Generated_Source\PSoC4/EZI2C_1_EZI2C.c **** uint8 EZI2C_1_fsmState;           /* FSM state   */
  28:.\Generated_Source\PSoC4/EZI2C_1_EZI2C.c **** 
  29:.\Generated_Source\PSoC4/EZI2C_1_EZI2C.c **** /* Variables intended to be used with Buffer1: Primary slave address */
  30:.\Generated_Source\PSoC4/EZI2C_1_EZI2C.c **** volatile uint8 * EZI2C_1_dataBuffer1; /* Pointer to data buffer1 */
  31:.\Generated_Source\PSoC4/EZI2C_1_EZI2C.c **** uint16 EZI2C_1_bufSizeBuf1; /* Size of buffer1 in bytes      */
  32:.\Generated_Source\PSoC4/EZI2C_1_EZI2C.c **** uint16 EZI2C_1_protectBuf1; /* Start index of write protected area buffer1 */
  33:.\Generated_Source\PSoC4/EZI2C_1_EZI2C.c **** uint8 EZI2C_1_offsetBuf1; /* Current offset within buffer1 */
  34:.\Generated_Source\PSoC4/EZI2C_1_EZI2C.c **** uint16 EZI2C_1_indexBuf1;  /* Current index within buffer1  */
  35:.\Generated_Source\PSoC4/EZI2C_1_EZI2C.c **** 
  36:.\Generated_Source\PSoC4/EZI2C_1_EZI2C.c **** #if(EZI2C_1_SECONDARY_ADDRESS_ENABLE_CONST)
  37:.\Generated_Source\PSoC4/EZI2C_1_EZI2C.c ****     uint8 EZI2C_1_addrBuf1; /* Primary slave address. Used for software comparison   */
  38:.\Generated_Source\PSoC4/EZI2C_1_EZI2C.c ****     uint8 EZI2C_1_addrBuf2; /* Secondary slave address. Used for software comparison */
  39:.\Generated_Source\PSoC4/EZI2C_1_EZI2C.c **** 
  40:.\Generated_Source\PSoC4/EZI2C_1_EZI2C.c ****     /* Variables intended to be used with Buffer1: Primary slave address */
  41:.\Generated_Source\PSoC4/EZI2C_1_EZI2C.c ****     volatile uint8 * EZI2C_1_dataBuffer2; /* Pointer to data buffer2 */
  42:.\Generated_Source\PSoC4/EZI2C_1_EZI2C.c ****     uint16 EZI2C_1_bufSizeBuf2; /* Size of buffer2 in bytes      */
  43:.\Generated_Source\PSoC4/EZI2C_1_EZI2C.c ****     uint16 EZI2C_1_protectBuf2; /* Start index of write protected area buffer 2 */
  44:.\Generated_Source\PSoC4/EZI2C_1_EZI2C.c ****     uint8 EZI2C_1_offsetBuf2; /* Current offset within buffer2 */
  45:.\Generated_Source\PSoC4/EZI2C_1_EZI2C.c ****     uint16 EZI2C_1_indexBuf2;  /* Current index within buffer2  */
  46:.\Generated_Source\PSoC4/EZI2C_1_EZI2C.c **** #endif /* (EZI2C_1_SECONDARY_ADDRESS_ENABLE_CONST) */
  47:.\Generated_Source\PSoC4/EZI2C_1_EZI2C.c **** 
  48:.\Generated_Source\PSoC4/EZI2C_1_EZI2C.c **** 
  49:.\Generated_Source\PSoC4/EZI2C_1_EZI2C.c **** /***************************************
  50:.\Generated_Source\PSoC4/EZI2C_1_EZI2C.c **** *      EZI2C Private Functions
  51:.\Generated_Source\PSoC4/EZI2C_1_EZI2C.c **** ***************************************/
  52:.\Generated_Source\PSoC4/EZI2C_1_EZI2C.c **** 
  53:.\Generated_Source\PSoC4/EZI2C_1_EZI2C.c **** #if(EZI2C_1_SECONDARY_ADDRESS_ENABLE_CONST)
  54:.\Generated_Source\PSoC4/EZI2C_1_EZI2C.c ****     static uint32 EZI2C_1_EzI2CUpdateRxMatchReg(uint32 addr1, uint32 addr2);
  55:.\Generated_Source\PSoC4/EZI2C_1_EZI2C.c **** #endif /* (EZI2C_1_SECONDARY_ADDRESS_ENABLE_CONST) */
  56:.\Generated_Source\PSoC4/EZI2C_1_EZI2C.c **** 
  57:.\Generated_Source\PSoC4/EZI2C_1_EZI2C.c **** #if(EZI2C_1_SCB_MODE_UNCONFIG_CONST_CFG)
  58:.\Generated_Source\PSoC4/EZI2C_1_EZI2C.c **** 
  59:.\Generated_Source\PSoC4/EZI2C_1_EZI2C.c ****     /***************************************
  60:.\Generated_Source\PSoC4/EZI2C_1_EZI2C.c ****     *  Config Structure Initialization
  61:.\Generated_Source\PSoC4/EZI2C_1_EZI2C.c ****     ***************************************/
  62:.\Generated_Source\PSoC4/EZI2C_1_EZI2C.c **** 
  63:.\Generated_Source\PSoC4/EZI2C_1_EZI2C.c ****     /* Constant configuration of EZI2C */
  64:.\Generated_Source\PSoC4/EZI2C_1_EZI2C.c ****     const EZI2C_1_EZI2C_INIT_STRUCT EZI2C_1_configEzI2C =
  65:.\Generated_Source\PSoC4/EZI2C_1_EZI2C.c ****     {
  66:.\Generated_Source\PSoC4/EZI2C_1_EZI2C.c ****         EZI2C_1_EZI2C_CLOCK_STRETCHING,
  67:.\Generated_Source\PSoC4/EZI2C_1_EZI2C.c ****         EZI2C_1_EZI2C_MEDIAN_FILTER_ENABLE,
  68:.\Generated_Source\PSoC4/EZI2C_1_EZI2C.c ****         EZI2C_1_EZI2C_NUMBER_OF_ADDRESSES,
  69:.\Generated_Source\PSoC4/EZI2C_1_EZI2C.c ****         EZI2C_1_EZI2C_PRIMARY_SLAVE_ADDRESS,
  70:.\Generated_Source\PSoC4/EZI2C_1_EZI2C.c ****         EZI2C_1_EZI2C_SECONDARY_SLAVE_ADDRESS,
  71:.\Generated_Source\PSoC4/EZI2C_1_EZI2C.c ****         EZI2C_1_EZI2C_SUB_ADDRESS_SIZE,
  72:.\Generated_Source\PSoC4/EZI2C_1_EZI2C.c ****         EZI2C_1_EZI2C_WAKE_ENABLE
  73:.\Generated_Source\PSoC4/EZI2C_1_EZI2C.c ****     };
  74:.\Generated_Source\PSoC4/EZI2C_1_EZI2C.c **** 
  75:.\Generated_Source\PSoC4/EZI2C_1_EZI2C.c ****     /*******************************************************************************
  76:.\Generated_Source\PSoC4/EZI2C_1_EZI2C.c ****     * Function Name: EZI2C_1_EzI2CInit
  77:.\Generated_Source\PSoC4/EZI2C_1_EZI2C.c ****     ********************************************************************************
  78:.\Generated_Source\PSoC4/EZI2C_1_EZI2C.c ****     *
  79:.\Generated_Source\PSoC4/EZI2C_1_EZI2C.c ****     * Summary:
  80:.\Generated_Source\PSoC4/EZI2C_1_EZI2C.c ****     *  Configures the SCB for the EZI2C operation.
  81:.\Generated_Source\PSoC4/EZI2C_1_EZI2C.c ****     *
  82:.\Generated_Source\PSoC4/EZI2C_1_EZI2C.c ****     * Parameters:
ARM GAS  C:\Users\TSUBAS~1\AppData\Local\Temp\cck1RKSd.s 			page 3


  83:.\Generated_Source\PSoC4/EZI2C_1_EZI2C.c ****     *  config:  Pointer to a structure that contains the following ordered list of
  84:.\Generated_Source\PSoC4/EZI2C_1_EZI2C.c ****     *           fields. These fields match the selections available in the
  85:.\Generated_Source\PSoC4/EZI2C_1_EZI2C.c ****     *           customizer.
  86:.\Generated_Source\PSoC4/EZI2C_1_EZI2C.c ****     *
  87:.\Generated_Source\PSoC4/EZI2C_1_EZI2C.c ****     * Return:
  88:.\Generated_Source\PSoC4/EZI2C_1_EZI2C.c ****     *  None
  89:.\Generated_Source\PSoC4/EZI2C_1_EZI2C.c ****     *
  90:.\Generated_Source\PSoC4/EZI2C_1_EZI2C.c ****     *******************************************************************************/
  91:.\Generated_Source\PSoC4/EZI2C_1_EZI2C.c ****     void EZI2C_1_EzI2CInit(const EZI2C_1_EZI2C_INIT_STRUCT *config)
  92:.\Generated_Source\PSoC4/EZI2C_1_EZI2C.c ****     {
  93:.\Generated_Source\PSoC4/EZI2C_1_EZI2C.c ****         if(NULL == config)
  94:.\Generated_Source\PSoC4/EZI2C_1_EZI2C.c ****         {
  95:.\Generated_Source\PSoC4/EZI2C_1_EZI2C.c ****             CYASSERT(0u != 0u); /* Halt execution due to invalid function parameter */
  96:.\Generated_Source\PSoC4/EZI2C_1_EZI2C.c ****         }
  97:.\Generated_Source\PSoC4/EZI2C_1_EZI2C.c ****         else
  98:.\Generated_Source\PSoC4/EZI2C_1_EZI2C.c ****         {
  99:.\Generated_Source\PSoC4/EZI2C_1_EZI2C.c ****             /* Configure pins */
 100:.\Generated_Source\PSoC4/EZI2C_1_EZI2C.c ****             EZI2C_1_SetPins(EZI2C_1_SCB_MODE_EZI2C, EZI2C_1_DUMMY_PARAM,
 101:.\Generated_Source\PSoC4/EZI2C_1_EZI2C.c ****                                                                       EZI2C_1_DUMMY_PARAM);
 102:.\Generated_Source\PSoC4/EZI2C_1_EZI2C.c **** 
 103:.\Generated_Source\PSoC4/EZI2C_1_EZI2C.c ****             /* Store internal configuration */
 104:.\Generated_Source\PSoC4/EZI2C_1_EZI2C.c ****             EZI2C_1_scbMode       = (uint8) EZI2C_1_SCB_MODE_EZI2C;
 105:.\Generated_Source\PSoC4/EZI2C_1_EZI2C.c ****             EZI2C_1_scbEnableWake = (uint8) config->enableWake;
 106:.\Generated_Source\PSoC4/EZI2C_1_EZI2C.c ****             EZI2C_1_scbEnableIntr = (uint8) EZI2C_1_SCB_IRQ_INTERNAL;
 107:.\Generated_Source\PSoC4/EZI2C_1_EZI2C.c **** 
 108:.\Generated_Source\PSoC4/EZI2C_1_EZI2C.c ****             EZI2C_1_numberOfAddr  = (uint8) config->numberOfAddresses;
 109:.\Generated_Source\PSoC4/EZI2C_1_EZI2C.c ****             EZI2C_1_subAddrSize   = (uint8) config->subAddrSize;
 110:.\Generated_Source\PSoC4/EZI2C_1_EZI2C.c **** 
 111:.\Generated_Source\PSoC4/EZI2C_1_EZI2C.c ****             /* Configure I2C interface */
 112:.\Generated_Source\PSoC4/EZI2C_1_EZI2C.c ****             EZI2C_1_CTRL_REG     = EZI2C_1_GET_CTRL_ADDR_ACCEPT(config->numberOfAddresses) |
 113:.\Generated_Source\PSoC4/EZI2C_1_EZI2C.c ****                                             EZI2C_1_GET_CTRL_EC_AM_MODE (config->enableWake);
 114:.\Generated_Source\PSoC4/EZI2C_1_EZI2C.c **** 
 115:.\Generated_Source\PSoC4/EZI2C_1_EZI2C.c ****             EZI2C_1_I2C_CTRL_REG = EZI2C_1_EZI2C_CTRL;
 116:.\Generated_Source\PSoC4/EZI2C_1_EZI2C.c **** 
 117:.\Generated_Source\PSoC4/EZI2C_1_EZI2C.c ****         #if(EZI2C_1_CY_SCBIP_V0)
 118:.\Generated_Source\PSoC4/EZI2C_1_EZI2C.c ****             /* Adjust SDA filter settings. Ticket ID#150521 */
 119:.\Generated_Source\PSoC4/EZI2C_1_EZI2C.c ****             EZI2C_1_SET_I2C_CFG_SDA_FILT_TRIM(EZI2C_1_EC_AM_I2C_CFG_SDA_FILT_TRIM);
 120:.\Generated_Source\PSoC4/EZI2C_1_EZI2C.c ****         #endif /* (EZI2C_1_CY_SCBIP_V0) */
 121:.\Generated_Source\PSoC4/EZI2C_1_EZI2C.c **** 
 122:.\Generated_Source\PSoC4/EZI2C_1_EZI2C.c ****             /* Configure RX direction */
 123:.\Generated_Source\PSoC4/EZI2C_1_EZI2C.c ****             EZI2C_1_RX_CTRL_REG      = EZI2C_1_GET_RX_CTRL_MEDIAN(config->enableMedianFilter) |
 124:.\Generated_Source\PSoC4/EZI2C_1_EZI2C.c ****                                                 EZI2C_1_EZI2C_RX_CTRL;
 125:.\Generated_Source\PSoC4/EZI2C_1_EZI2C.c ****             EZI2C_1_RX_FIFO_CTRL_REG = EZI2C_1_CLEAR_REG;
 126:.\Generated_Source\PSoC4/EZI2C_1_EZI2C.c **** 
 127:.\Generated_Source\PSoC4/EZI2C_1_EZI2C.c ****             /* Set default address and mask */
 128:.\Generated_Source\PSoC4/EZI2C_1_EZI2C.c ****             if(EZI2C_1_EZI2C_PRIMARY_ADDRESS == config->numberOfAddresses)
 129:.\Generated_Source\PSoC4/EZI2C_1_EZI2C.c ****             {
 130:.\Generated_Source\PSoC4/EZI2C_1_EZI2C.c ****                 EZI2C_1_RX_MATCH_REG = EZI2C_1_EzI2CUpdateRxMatchReg(config->primarySlaveAddr,
 131:.\Generated_Source\PSoC4/EZI2C_1_EZI2C.c ****                                                                                        config->prim
 132:.\Generated_Source\PSoC4/EZI2C_1_EZI2C.c ****             }
 133:.\Generated_Source\PSoC4/EZI2C_1_EZI2C.c ****             else
 134:.\Generated_Source\PSoC4/EZI2C_1_EZI2C.c ****             {
 135:.\Generated_Source\PSoC4/EZI2C_1_EZI2C.c ****                 EZI2C_1_RX_MATCH_REG = EZI2C_1_EzI2CUpdateRxMatchReg(config->primarySlaveAddr,
 136:.\Generated_Source\PSoC4/EZI2C_1_EZI2C.c ****                                                                                        config->seco
 137:.\Generated_Source\PSoC4/EZI2C_1_EZI2C.c ****             }
 138:.\Generated_Source\PSoC4/EZI2C_1_EZI2C.c **** 
 139:.\Generated_Source\PSoC4/EZI2C_1_EZI2C.c ****             /* Configure TX direction */
ARM GAS  C:\Users\TSUBAS~1\AppData\Local\Temp\cck1RKSd.s 			page 4


 140:.\Generated_Source\PSoC4/EZI2C_1_EZI2C.c ****             EZI2C_1_TX_CTRL_REG      = EZI2C_1_EZI2C_TX_CTRL;
 141:.\Generated_Source\PSoC4/EZI2C_1_EZI2C.c ****             EZI2C_1_TX_FIFO_CTRL_REG = ((0u != (config->enableClockStretch)) ?
 142:.\Generated_Source\PSoC4/EZI2C_1_EZI2C.c ****                                                  EZI2C_1_CLEAR_REG : EZI2C_1_EZI2C_TX_FIFO_CTRL);
 143:.\Generated_Source\PSoC4/EZI2C_1_EZI2C.c **** 
 144:.\Generated_Source\PSoC4/EZI2C_1_EZI2C.c ****             /* Configure interrupt sources */
 145:.\Generated_Source\PSoC4/EZI2C_1_EZI2C.c ****         #if(EZI2C_1_CY_SCBIP_V0)
 146:.\Generated_Source\PSoC4/EZI2C_1_EZI2C.c ****            EZI2C_1_INTR_SPI_EC_MASK_REG = EZI2C_1_NO_INTR_SOURCES;
 147:.\Generated_Source\PSoC4/EZI2C_1_EZI2C.c ****         #endif /* (EZI2C_1_CY_SCBIP_V0) */
 148:.\Generated_Source\PSoC4/EZI2C_1_EZI2C.c **** 
 149:.\Generated_Source\PSoC4/EZI2C_1_EZI2C.c ****             EZI2C_1_INTR_I2C_EC_MASK_REG = EZI2C_1_NO_INTR_SOURCES;
 150:.\Generated_Source\PSoC4/EZI2C_1_EZI2C.c ****             EZI2C_1_INTR_MASTER_MASK_REG = EZI2C_1_NO_INTR_SOURCES;
 151:.\Generated_Source\PSoC4/EZI2C_1_EZI2C.c ****             EZI2C_1_INTR_SLAVE_MASK_REG  = EZI2C_1_EZI2C_INTR_SLAVE_MASK;
 152:.\Generated_Source\PSoC4/EZI2C_1_EZI2C.c ****             EZI2C_1_INTR_TX_MASK_REG     = EZI2C_1_NO_INTR_SOURCES;
 153:.\Generated_Source\PSoC4/EZI2C_1_EZI2C.c **** 
 154:.\Generated_Source\PSoC4/EZI2C_1_EZI2C.c ****             /* Configure interrupt with EZI2C handler but do not enable it */
 155:.\Generated_Source\PSoC4/EZI2C_1_EZI2C.c ****             CyIntDisable    (EZI2C_1_ISR_NUMBER);
 156:.\Generated_Source\PSoC4/EZI2C_1_EZI2C.c ****             CyIntSetPriority(EZI2C_1_ISR_NUMBER, EZI2C_1_ISR_PRIORITY);
 157:.\Generated_Source\PSoC4/EZI2C_1_EZI2C.c ****             (void) CyIntSetVector(EZI2C_1_ISR_NUMBER, (0u != (config->enableClockStretch)) ?
 158:.\Generated_Source\PSoC4/EZI2C_1_EZI2C.c ****                                                                       (&EZI2C_1_EZI2C_STRETCH_ISR) 
 159:.\Generated_Source\PSoC4/EZI2C_1_EZI2C.c ****                                                                       (&EZI2C_1_EZI2C_NO_STRETCH_IS
 160:.\Generated_Source\PSoC4/EZI2C_1_EZI2C.c **** 
 161:.\Generated_Source\PSoC4/EZI2C_1_EZI2C.c ****             if(0u != (config->enableClockStretch))
 162:.\Generated_Source\PSoC4/EZI2C_1_EZI2C.c ****             {
 163:.\Generated_Source\PSoC4/EZI2C_1_EZI2C.c ****                 /* Configure interrupt sources */
 164:.\Generated_Source\PSoC4/EZI2C_1_EZI2C.c ****                 EZI2C_1_INTR_SLAVE_MASK_REG |= EZI2C_1_INTR_SLAVE_I2C_ADDR_MATCH;
 165:.\Generated_Source\PSoC4/EZI2C_1_EZI2C.c ****                 EZI2C_1_INTR_RX_MASK_REG     = EZI2C_1_NO_INTR_SOURCES;
 166:.\Generated_Source\PSoC4/EZI2C_1_EZI2C.c ****             }
 167:.\Generated_Source\PSoC4/EZI2C_1_EZI2C.c ****             else
 168:.\Generated_Source\PSoC4/EZI2C_1_EZI2C.c ****             {
 169:.\Generated_Source\PSoC4/EZI2C_1_EZI2C.c ****                 /* Enable Auto ACK/NACK features */
 170:.\Generated_Source\PSoC4/EZI2C_1_EZI2C.c ****                 EZI2C_1_I2C_CTRL_REG |= EZI2C_1_EZI2C_CTRL_AUTO;
 171:.\Generated_Source\PSoC4/EZI2C_1_EZI2C.c **** 
 172:.\Generated_Source\PSoC4/EZI2C_1_EZI2C.c ****                 /* Configure RX interrupt source */
 173:.\Generated_Source\PSoC4/EZI2C_1_EZI2C.c ****                 EZI2C_1_INTR_SLAVE_MASK_REG |= EZI2C_1_INTR_SLAVE_I2C_START;
 174:.\Generated_Source\PSoC4/EZI2C_1_EZI2C.c ****                 EZI2C_1_INTR_RX_MASK_REG     = EZI2C_1_INTR_RX_NOT_EMPTY;
 175:.\Generated_Source\PSoC4/EZI2C_1_EZI2C.c ****             }
 176:.\Generated_Source\PSoC4/EZI2C_1_EZI2C.c **** 
 177:.\Generated_Source\PSoC4/EZI2C_1_EZI2C.c ****             /* Configure global variables */
 178:.\Generated_Source\PSoC4/EZI2C_1_EZI2C.c ****             EZI2C_1_fsmState = EZI2C_1_EZI2C_FSM_IDLE;
 179:.\Generated_Source\PSoC4/EZI2C_1_EZI2C.c **** 
 180:.\Generated_Source\PSoC4/EZI2C_1_EZI2C.c ****             EZI2C_1_curStatus  = 0u;
 181:.\Generated_Source\PSoC4/EZI2C_1_EZI2C.c ****             EZI2C_1_indexBuf1  = 0u;
 182:.\Generated_Source\PSoC4/EZI2C_1_EZI2C.c ****             EZI2C_1_offsetBuf1 = 0u;
 183:.\Generated_Source\PSoC4/EZI2C_1_EZI2C.c ****             EZI2C_1_indexBuf2  = 0u;
 184:.\Generated_Source\PSoC4/EZI2C_1_EZI2C.c ****             EZI2C_1_offsetBuf2 = 0u;
 185:.\Generated_Source\PSoC4/EZI2C_1_EZI2C.c **** 
 186:.\Generated_Source\PSoC4/EZI2C_1_EZI2C.c ****             EZI2C_1_addrBuf1 = (uint8) config->primarySlaveAddr;
 187:.\Generated_Source\PSoC4/EZI2C_1_EZI2C.c ****             EZI2C_1_addrBuf2 = (uint8) config->secondarySlaveAddr;
 188:.\Generated_Source\PSoC4/EZI2C_1_EZI2C.c ****         }
 189:.\Generated_Source\PSoC4/EZI2C_1_EZI2C.c ****     }
 190:.\Generated_Source\PSoC4/EZI2C_1_EZI2C.c **** 
 191:.\Generated_Source\PSoC4/EZI2C_1_EZI2C.c **** #else
 192:.\Generated_Source\PSoC4/EZI2C_1_EZI2C.c **** 
 193:.\Generated_Source\PSoC4/EZI2C_1_EZI2C.c ****     /*******************************************************************************
 194:.\Generated_Source\PSoC4/EZI2C_1_EZI2C.c ****     * Function Name: EZI2C_1_EzI2CInit
 195:.\Generated_Source\PSoC4/EZI2C_1_EZI2C.c ****     ********************************************************************************
 196:.\Generated_Source\PSoC4/EZI2C_1_EZI2C.c ****     *
ARM GAS  C:\Users\TSUBAS~1\AppData\Local\Temp\cck1RKSd.s 			page 5


 197:.\Generated_Source\PSoC4/EZI2C_1_EZI2C.c ****     * Summary:
 198:.\Generated_Source\PSoC4/EZI2C_1_EZI2C.c ****     *  Configures the SCB for the EZI2C operation.
 199:.\Generated_Source\PSoC4/EZI2C_1_EZI2C.c ****     *
 200:.\Generated_Source\PSoC4/EZI2C_1_EZI2C.c ****     * Parameters:
 201:.\Generated_Source\PSoC4/EZI2C_1_EZI2C.c ****     *  None
 202:.\Generated_Source\PSoC4/EZI2C_1_EZI2C.c ****     *
 203:.\Generated_Source\PSoC4/EZI2C_1_EZI2C.c ****     * Return:
 204:.\Generated_Source\PSoC4/EZI2C_1_EZI2C.c ****     *  None
 205:.\Generated_Source\PSoC4/EZI2C_1_EZI2C.c ****     *
 206:.\Generated_Source\PSoC4/EZI2C_1_EZI2C.c ****     *******************************************************************************/
 207:.\Generated_Source\PSoC4/EZI2C_1_EZI2C.c ****     void EZI2C_1_EzI2CInit(void)
 208:.\Generated_Source\PSoC4/EZI2C_1_EZI2C.c ****     {
  33              		.loc 1 208 0
  34              		.cfi_startproc
  35 0000 80B5     		push	{r7, lr}
  36              	.LCFI0:
  37              		.cfi_def_cfa_offset 8
  38              		.cfi_offset 7, -8
  39              		.cfi_offset 14, -4
  40 0002 00AF     		add	r7, sp, #0
  41              	.LCFI1:
  42              		.cfi_def_cfa_register 7
 209:.\Generated_Source\PSoC4/EZI2C_1_EZI2C.c ****         /* Configure I2C interface */
 210:.\Generated_Source\PSoC4/EZI2C_1_EZI2C.c ****         EZI2C_1_CTRL_REG     = EZI2C_1_EZI2C_DEFAULT_CTRL;
  43              		.loc 1 210 0
  44 0004 234B     		ldr	r3, .L2
  45 0006 0022     		mov	r2, #0
  46 0008 1A60     		str	r2, [r3]
 211:.\Generated_Source\PSoC4/EZI2C_1_EZI2C.c ****         EZI2C_1_I2C_CTRL_REG = EZI2C_1_EZI2C_DEFAULT_I2C_CTRL;
  47              		.loc 1 211 0
  48 000a 234B     		ldr	r3, .L2+4
  49 000c 234A     		ldr	r2, .L2+8
  50 000e 1A60     		str	r2, [r3]
 212:.\Generated_Source\PSoC4/EZI2C_1_EZI2C.c **** 
 213:.\Generated_Source\PSoC4/EZI2C_1_EZI2C.c ****     #if(EZI2C_1_CY_SCBIP_V0)
 214:.\Generated_Source\PSoC4/EZI2C_1_EZI2C.c ****         /* Adjust SDA filter settings. Ticket ID#150521 */
 215:.\Generated_Source\PSoC4/EZI2C_1_EZI2C.c ****         EZI2C_1_SET_I2C_CFG_SDA_FILT_TRIM(EZI2C_1_EC_AM_I2C_CFG_SDA_FILT_TRIM);
  51              		.loc 1 215 0
  52 0010 234B     		ldr	r3, .L2+12
  53 0012 234A     		ldr	r2, .L2+12
  54 0014 1268     		ldr	r2, [r2]
  55 0016 0C21     		mov	r1, #12
  56 0018 0A43     		orr	r2, r1
  57 001a 1A60     		str	r2, [r3]
 216:.\Generated_Source\PSoC4/EZI2C_1_EZI2C.c ****     #endif /* (EZI2C_1_CY_SCBIP_V0) */
 217:.\Generated_Source\PSoC4/EZI2C_1_EZI2C.c **** 
 218:.\Generated_Source\PSoC4/EZI2C_1_EZI2C.c ****         /* Configure RX direction */
 219:.\Generated_Source\PSoC4/EZI2C_1_EZI2C.c ****         EZI2C_1_RX_CTRL_REG      = EZI2C_1_EZI2C_DEFAULT_RX_CTRL;
  58              		.loc 1 219 0
  59 001c 214B     		ldr	r3, .L2+16
  60 001e 224A     		ldr	r2, .L2+20
  61 0020 1A60     		str	r2, [r3]
 220:.\Generated_Source\PSoC4/EZI2C_1_EZI2C.c ****         EZI2C_1_RX_FIFO_CTRL_REG = EZI2C_1_EZI2C_DEFAULT_RX_FIFO_CTRL;
  62              		.loc 1 220 0
  63 0022 224B     		ldr	r3, .L2+24
  64 0024 0022     		mov	r2, #0
  65 0026 1A60     		str	r2, [r3]
ARM GAS  C:\Users\TSUBAS~1\AppData\Local\Temp\cck1RKSd.s 			page 6


 221:.\Generated_Source\PSoC4/EZI2C_1_EZI2C.c **** 
 222:.\Generated_Source\PSoC4/EZI2C_1_EZI2C.c ****         /* Set default address and mask */
 223:.\Generated_Source\PSoC4/EZI2C_1_EZI2C.c ****         EZI2C_1_RX_MATCH_REG     = EZI2C_1_EZI2C_DEFAULT_RX_MATCH;
  66              		.loc 1 223 0
  67 0028 214B     		ldr	r3, .L2+28
  68 002a 224A     		ldr	r2, .L2+32
  69 002c 1A60     		str	r2, [r3]
 224:.\Generated_Source\PSoC4/EZI2C_1_EZI2C.c **** 
 225:.\Generated_Source\PSoC4/EZI2C_1_EZI2C.c ****         /* Configure TX direction */
 226:.\Generated_Source\PSoC4/EZI2C_1_EZI2C.c ****         EZI2C_1_TX_CTRL_REG      = EZI2C_1_EZI2C_DEFAULT_TX_CTRL;
  70              		.loc 1 226 0
  71 002e 224B     		ldr	r3, .L2+36
  72 0030 224A     		ldr	r2, .L2+40
  73 0032 1A60     		str	r2, [r3]
 227:.\Generated_Source\PSoC4/EZI2C_1_EZI2C.c ****         EZI2C_1_TX_FIFO_CTRL_REG = EZI2C_1_EZI2C_DEFAULT_TX_FIFO_CTRL;
  74              		.loc 1 227 0
  75 0034 224B     		ldr	r3, .L2+44
  76 0036 0022     		mov	r2, #0
  77 0038 1A60     		str	r2, [r3]
 228:.\Generated_Source\PSoC4/EZI2C_1_EZI2C.c **** 
 229:.\Generated_Source\PSoC4/EZI2C_1_EZI2C.c ****         /* Configure interrupt with EZI2C handler but do not enable it */
 230:.\Generated_Source\PSoC4/EZI2C_1_EZI2C.c ****     #if !defined (CY_EXTERNAL_INTERRUPT_CONFIG)
 231:.\Generated_Source\PSoC4/EZI2C_1_EZI2C.c ****         CyIntDisable    (EZI2C_1_ISR_NUMBER);
  78              		.loc 1 231 0
  79 003a 0A20     		mov	r0, #10
  80 003c FFF7FEFF 		bl	CyIntDisable
 232:.\Generated_Source\PSoC4/EZI2C_1_EZI2C.c ****         CyIntSetPriority(EZI2C_1_ISR_NUMBER, EZI2C_1_ISR_PRIORITY);
  81              		.loc 1 232 0
  82 0040 0A20     		mov	r0, #10
  83 0042 0321     		mov	r1, #3
  84 0044 FFF7FEFF 		bl	CyIntSetPriority
 233:.\Generated_Source\PSoC4/EZI2C_1_EZI2C.c **** 
 234:.\Generated_Source\PSoC4/EZI2C_1_EZI2C.c ****     #if(EZI2C_1_EZI2C_SCL_STRETCH_ENABLE_CONST)
 235:.\Generated_Source\PSoC4/EZI2C_1_EZI2C.c ****         (void) CyIntSetVector(EZI2C_1_ISR_NUMBER, &EZI2C_1_EZI2C_STRETCH_ISR);
  85              		.loc 1 235 0
  86 0048 1E4B     		ldr	r3, .L2+48
  87 004a 0A20     		mov	r0, #10
  88 004c 191C     		mov	r1, r3
  89 004e FFF7FEFF 		bl	CyIntSetVector
 236:.\Generated_Source\PSoC4/EZI2C_1_EZI2C.c ****     #else
 237:.\Generated_Source\PSoC4/EZI2C_1_EZI2C.c ****         (void) CyIntSetVector(EZI2C_1_ISR_NUMBER, &EZI2C_1_EZI2C_NO_STRETCH_ISR);
 238:.\Generated_Source\PSoC4/EZI2C_1_EZI2C.c ****     #endif /* (EZI2C_1_EZI2C_SCL_STRETCH_ENABLE_CONST) */
 239:.\Generated_Source\PSoC4/EZI2C_1_EZI2C.c **** 
 240:.\Generated_Source\PSoC4/EZI2C_1_EZI2C.c ****     #endif /* !defined (CY_EXTERNAL_INTERRUPT_CONFIG) */
 241:.\Generated_Source\PSoC4/EZI2C_1_EZI2C.c **** 
 242:.\Generated_Source\PSoC4/EZI2C_1_EZI2C.c ****         /* Configure interrupt sources */
 243:.\Generated_Source\PSoC4/EZI2C_1_EZI2C.c ****     #if(EZI2C_1_CY_SCBIP_V0)
 244:.\Generated_Source\PSoC4/EZI2C_1_EZI2C.c ****         EZI2C_1_INTR_SPI_EC_MASK_REG = EZI2C_1_EZI2C_DEFAULT_INTR_SPI_EC_MASK;
  90              		.loc 1 244 0
  91 0052 1D4B     		ldr	r3, .L2+52
  92 0054 0022     		mov	r2, #0
  93 0056 1A60     		str	r2, [r3]
 245:.\Generated_Source\PSoC4/EZI2C_1_EZI2C.c ****     #endif /* (EZI2C_1_CY_SCBIP_V0) */
 246:.\Generated_Source\PSoC4/EZI2C_1_EZI2C.c **** 
 247:.\Generated_Source\PSoC4/EZI2C_1_EZI2C.c ****         EZI2C_1_INTR_I2C_EC_MASK_REG = EZI2C_1_EZI2C_DEFAULT_INTR_I2C_EC_MASK;
  94              		.loc 1 247 0
  95 0058 1C4B     		ldr	r3, .L2+56
ARM GAS  C:\Users\TSUBAS~1\AppData\Local\Temp\cck1RKSd.s 			page 7


  96 005a 0022     		mov	r2, #0
  97 005c 1A60     		str	r2, [r3]
 248:.\Generated_Source\PSoC4/EZI2C_1_EZI2C.c ****         EZI2C_1_INTR_SLAVE_MASK_REG  = EZI2C_1_EZI2C_DEFAULT_INTR_SLAVE_MASK;
  98              		.loc 1 248 0
  99 005e 1C4B     		ldr	r3, .L2+60
 100 0060 1C4A     		ldr	r2, .L2+64
 101 0062 1A60     		str	r2, [r3]
 249:.\Generated_Source\PSoC4/EZI2C_1_EZI2C.c ****         EZI2C_1_INTR_MASTER_MASK_REG = EZI2C_1_EZI2C_DEFAULT_INTR_MASTER_MASK;
 102              		.loc 1 249 0
 103 0064 1C4B     		ldr	r3, .L2+68
 104 0066 0022     		mov	r2, #0
 105 0068 1A60     		str	r2, [r3]
 250:.\Generated_Source\PSoC4/EZI2C_1_EZI2C.c ****         EZI2C_1_INTR_RX_MASK_REG     = EZI2C_1_EZI2C_DEFAULT_INTR_RX_MASK;
 106              		.loc 1 250 0
 107 006a 1C4B     		ldr	r3, .L2+72
 108 006c 0022     		mov	r2, #0
 109 006e 1A60     		str	r2, [r3]
 251:.\Generated_Source\PSoC4/EZI2C_1_EZI2C.c ****         EZI2C_1_INTR_TX_MASK_REG     = EZI2C_1_EZI2C_DEFAULT_INTR_TX_MASK;
 110              		.loc 1 251 0
 111 0070 1B4B     		ldr	r3, .L2+76
 112 0072 0022     		mov	r2, #0
 113 0074 1A60     		str	r2, [r3]
 252:.\Generated_Source\PSoC4/EZI2C_1_EZI2C.c **** 
 253:.\Generated_Source\PSoC4/EZI2C_1_EZI2C.c ****         /* Configure global variables */
 254:.\Generated_Source\PSoC4/EZI2C_1_EZI2C.c ****         EZI2C_1_fsmState = EZI2C_1_EZI2C_FSM_IDLE;
 114              		.loc 1 254 0
 115 0076 1B4B     		ldr	r3, .L2+80
 116 0078 0022     		mov	r2, #0
 117 007a 1A70     		strb	r2, [r3]
 255:.\Generated_Source\PSoC4/EZI2C_1_EZI2C.c **** 
 256:.\Generated_Source\PSoC4/EZI2C_1_EZI2C.c ****         EZI2C_1_curStatus  = 0u;
 118              		.loc 1 256 0
 119 007c 1A4B     		ldr	r3, .L2+84
 120 007e 0022     		mov	r2, #0
 121 0080 1A70     		strb	r2, [r3]
 257:.\Generated_Source\PSoC4/EZI2C_1_EZI2C.c ****         EZI2C_1_indexBuf1  = 0u;
 122              		.loc 1 257 0
 123 0082 1A4B     		ldr	r3, .L2+88
 124 0084 0022     		mov	r2, #0
 125 0086 1A80     		strh	r2, [r3]
 258:.\Generated_Source\PSoC4/EZI2C_1_EZI2C.c ****         EZI2C_1_offsetBuf1 = 0u;
 126              		.loc 1 258 0
 127 0088 194B     		ldr	r3, .L2+92
 128 008a 0022     		mov	r2, #0
 129 008c 1A70     		strb	r2, [r3]
 259:.\Generated_Source\PSoC4/EZI2C_1_EZI2C.c **** 
 260:.\Generated_Source\PSoC4/EZI2C_1_EZI2C.c ****     #if(EZI2C_1_SECONDARY_ADDRESS_ENABLE_CONST)
 261:.\Generated_Source\PSoC4/EZI2C_1_EZI2C.c ****         EZI2C_1_indexBuf2  = 0u;
 262:.\Generated_Source\PSoC4/EZI2C_1_EZI2C.c ****         EZI2C_1_offsetBuf2 = 0u;
 263:.\Generated_Source\PSoC4/EZI2C_1_EZI2C.c **** 
 264:.\Generated_Source\PSoC4/EZI2C_1_EZI2C.c ****         EZI2C_1_addrBuf1 = EZI2C_1_EZI2C_PRIMARY_SLAVE_ADDRESS;
 265:.\Generated_Source\PSoC4/EZI2C_1_EZI2C.c ****         EZI2C_1_addrBuf2 = EZI2C_1_EZI2C_SECONDARY_SLAVE_ADDRESS;
 266:.\Generated_Source\PSoC4/EZI2C_1_EZI2C.c ****     #endif /* (EZI2C_1_SECONDARY_ADDRESS_ENABLE_CONST) */
 267:.\Generated_Source\PSoC4/EZI2C_1_EZI2C.c ****     }
 130              		.loc 1 267 0
 131 008e BD46     		mov	sp, r7
 132              		@ sp needed for prologue
ARM GAS  C:\Users\TSUBAS~1\AppData\Local\Temp\cck1RKSd.s 			page 8


 133 0090 80BD     		pop	{r7, pc}
 134              	.L3:
 135 0092 C046     		.align	2
 136              	.L2:
 137 0094 00000640 		.word	1074135040
 138 0098 60000640 		.word	1074135136
 139 009c 00080040 		.word	1073743872
 140 00a0 70000640 		.word	1074135152
 141 00a4 00030640 		.word	1074135808
 142 00a8 07030080 		.word	-2147482873
 143 00ac 04030640 		.word	1074135812
 144 00b0 10030640 		.word	1074135824
 145 00b4 1000FE00 		.word	16646160
 146 00b8 00020640 		.word	1074135552
 147 00bc 07010080 		.word	-2147483385
 148 00c0 04020640 		.word	1074135556
 149 00c4 00000000 		.word	EZI2C_1_EZI2C_STRETCH_ISR
 150 00c8 C80E0640 		.word	1074138824
 151 00cc 880E0640 		.word	1074138760
 152 00d0 480F0640 		.word	1074138952
 153 00d4 51010000 		.word	337
 154 00d8 080F0640 		.word	1074138888
 155 00dc C80F0640 		.word	1074139080
 156 00e0 880F0640 		.word	1074139016
 157 00e4 00000000 		.word	EZI2C_1_fsmState
 158 00e8 00000000 		.word	EZI2C_1_curStatus
 159 00ec 00000000 		.word	EZI2C_1_indexBuf1
 160 00f0 00000000 		.word	EZI2C_1_offsetBuf1
 161              		.cfi_endproc
 162              	.LFE0:
 163              		.size	EZI2C_1_EzI2CInit, .-EZI2C_1_EzI2CInit
 164              		.section	.text.EZI2C_1_EzI2CStop,"ax",%progbits
 165              		.align	2
 166              		.global	EZI2C_1_EzI2CStop
 167              		.code	16
 168              		.thumb_func
 169              		.type	EZI2C_1_EzI2CStop, %function
 170              	EZI2C_1_EzI2CStop:
 171              	.LFB1:
 268:.\Generated_Source\PSoC4/EZI2C_1_EZI2C.c **** #endif /* (EZI2C_1_SCB_MODE_UNCONFIG_CONST_CFG) */
 269:.\Generated_Source\PSoC4/EZI2C_1_EZI2C.c **** 
 270:.\Generated_Source\PSoC4/EZI2C_1_EZI2C.c **** 
 271:.\Generated_Source\PSoC4/EZI2C_1_EZI2C.c **** /*******************************************************************************
 272:.\Generated_Source\PSoC4/EZI2C_1_EZI2C.c **** * Function Name: EZI2C_1_EzI2CStop
 273:.\Generated_Source\PSoC4/EZI2C_1_EZI2C.c **** ********************************************************************************
 274:.\Generated_Source\PSoC4/EZI2C_1_EZI2C.c **** *
 275:.\Generated_Source\PSoC4/EZI2C_1_EZI2C.c **** * Summary:
 276:.\Generated_Source\PSoC4/EZI2C_1_EZI2C.c **** *  Resets the EZI2C FSM into a default state and disables TX interrupt sources.
 277:.\Generated_Source\PSoC4/EZI2C_1_EZI2C.c **** *
 278:.\Generated_Source\PSoC4/EZI2C_1_EZI2C.c **** * Parameters:
 279:.\Generated_Source\PSoC4/EZI2C_1_EZI2C.c **** *  None
 280:.\Generated_Source\PSoC4/EZI2C_1_EZI2C.c **** *
 281:.\Generated_Source\PSoC4/EZI2C_1_EZI2C.c **** * Return:
 282:.\Generated_Source\PSoC4/EZI2C_1_EZI2C.c **** *  None
 283:.\Generated_Source\PSoC4/EZI2C_1_EZI2C.c **** *
 284:.\Generated_Source\PSoC4/EZI2C_1_EZI2C.c **** *******************************************************************************/
 285:.\Generated_Source\PSoC4/EZI2C_1_EZI2C.c **** void EZI2C_1_EzI2CStop(void)
ARM GAS  C:\Users\TSUBAS~1\AppData\Local\Temp\cck1RKSd.s 			page 9


 286:.\Generated_Source\PSoC4/EZI2C_1_EZI2C.c **** {
 172              		.loc 1 286 0
 173              		.cfi_startproc
 174 0000 80B5     		push	{r7, lr}
 175              	.LCFI2:
 176              		.cfi_def_cfa_offset 8
 177              		.cfi_offset 7, -8
 178              		.cfi_offset 14, -4
 179 0002 00AF     		add	r7, sp, #0
 180              	.LCFI3:
 181              		.cfi_def_cfa_register 7
 287:.\Generated_Source\PSoC4/EZI2C_1_EZI2C.c ****     /* Disable TX interrupt sources in order not to  cause the false interrupts trigger.
 288:.\Generated_Source\PSoC4/EZI2C_1_EZI2C.c ****     * The incoming transaction will enable an appropriate TX interrupt.
 289:.\Generated_Source\PSoC4/EZI2C_1_EZI2C.c ****     */
 290:.\Generated_Source\PSoC4/EZI2C_1_EZI2C.c ****     EZI2C_1_SetTxInterruptMode(EZI2C_1_NO_INTR_SOURCES);
 182              		.loc 1 290 0
 183 0004 054B     		ldr	r3, .L5
 184 0006 0022     		mov	r2, #0
 185 0008 1A60     		str	r2, [r3]
 291:.\Generated_Source\PSoC4/EZI2C_1_EZI2C.c **** 
 292:.\Generated_Source\PSoC4/EZI2C_1_EZI2C.c **** #if(EZI2C_1_CY_SCBIP_V0)
 293:.\Generated_Source\PSoC4/EZI2C_1_EZI2C.c ****     /* Clear pending interrupt as after the block is disabled, the TX FIFO becomes empty and
 294:.\Generated_Source\PSoC4/EZI2C_1_EZI2C.c ****     * the block does not gate the interrupt sources when disabled.
 295:.\Generated_Source\PSoC4/EZI2C_1_EZI2C.c ****     */
 296:.\Generated_Source\PSoC4/EZI2C_1_EZI2C.c ****     EZI2C_1_ClearPendingInt();
 186              		.loc 1 296 0
 187 000a 0A20     		mov	r0, #10
 188 000c FFF7FEFF 		bl	CyIntClearPending
 297:.\Generated_Source\PSoC4/EZI2C_1_EZI2C.c **** #endif /* (EZI2C_1_CY_SCBIP_V0) */
 298:.\Generated_Source\PSoC4/EZI2C_1_EZI2C.c **** 
 299:.\Generated_Source\PSoC4/EZI2C_1_EZI2C.c ****     EZI2C_1_fsmState = EZI2C_1_EZI2C_FSM_IDLE;
 189              		.loc 1 299 0
 190 0010 034B     		ldr	r3, .L5+4
 191 0012 0022     		mov	r2, #0
 192 0014 1A70     		strb	r2, [r3]
 300:.\Generated_Source\PSoC4/EZI2C_1_EZI2C.c **** }
 193              		.loc 1 300 0
 194 0016 BD46     		mov	sp, r7
 195              		@ sp needed for prologue
 196 0018 80BD     		pop	{r7, pc}
 197              	.L6:
 198 001a C046     		.align	2
 199              	.L5:
 200 001c 880F0640 		.word	1074139016
 201 0020 00000000 		.word	EZI2C_1_fsmState
 202              		.cfi_endproc
 203              	.LFE1:
 204              		.size	EZI2C_1_EzI2CStop, .-EZI2C_1_EzI2CStop
 205              		.section	.text.EZI2C_1_EzI2CGetActivity,"ax",%progbits
 206              		.align	2
 207              		.global	EZI2C_1_EzI2CGetActivity
 208              		.code	16
 209              		.thumb_func
 210              		.type	EZI2C_1_EzI2CGetActivity, %function
 211              	EZI2C_1_EzI2CGetActivity:
 212              	.LFB2:
 301:.\Generated_Source\PSoC4/EZI2C_1_EZI2C.c **** 
ARM GAS  C:\Users\TSUBAS~1\AppData\Local\Temp\cck1RKSd.s 			page 10


 302:.\Generated_Source\PSoC4/EZI2C_1_EZI2C.c **** 
 303:.\Generated_Source\PSoC4/EZI2C_1_EZI2C.c **** /*******************************************************************************
 304:.\Generated_Source\PSoC4/EZI2C_1_EZI2C.c **** * Function Name: EZI2C_1_EzI2CGetActivity
 305:.\Generated_Source\PSoC4/EZI2C_1_EZI2C.c **** ********************************************************************************
 306:.\Generated_Source\PSoC4/EZI2C_1_EZI2C.c **** *
 307:.\Generated_Source\PSoC4/EZI2C_1_EZI2C.c **** * Summary:
 308:.\Generated_Source\PSoC4/EZI2C_1_EZI2C.c **** *  Returns the EZI2C slave status.
 309:.\Generated_Source\PSoC4/EZI2C_1_EZI2C.c **** *  The read, write and error status flags reset to zero after this function call.
 310:.\Generated_Source\PSoC4/EZI2C_1_EZI2C.c **** *  The busy status flag is cleared when the transaction intended for the EZ
 311:.\Generated_Source\PSoC4/EZI2C_1_EZI2C.c **** *  I2C slave completes.
 312:.\Generated_Source\PSoC4/EZI2C_1_EZI2C.c **** *
 313:.\Generated_Source\PSoC4/EZI2C_1_EZI2C.c **** * Parameters:
 314:.\Generated_Source\PSoC4/EZI2C_1_EZI2C.c **** *  None
 315:.\Generated_Source\PSoC4/EZI2C_1_EZI2C.c **** *
 316:.\Generated_Source\PSoC4/EZI2C_1_EZI2C.c **** * Return:
 317:.\Generated_Source\PSoC4/EZI2C_1_EZI2C.c **** *  Returns the status of the EZI2C Slave activity.
 318:.\Generated_Source\PSoC4/EZI2C_1_EZI2C.c **** *
 319:.\Generated_Source\PSoC4/EZI2C_1_EZI2C.c **** *******************************************************************************/
 320:.\Generated_Source\PSoC4/EZI2C_1_EZI2C.c **** uint32 EZI2C_1_EzI2CGetActivity(void)
 321:.\Generated_Source\PSoC4/EZI2C_1_EZI2C.c **** {
 213              		.loc 1 321 0
 214              		.cfi_startproc
 215 0000 80B5     		push	{r7, lr}
 216              	.LCFI4:
 217              		.cfi_def_cfa_offset 8
 218              		.cfi_offset 7, -8
 219              		.cfi_offset 14, -4
 220 0002 82B0     		sub	sp, sp, #8
 221              	.LCFI5:
 222              		.cfi_def_cfa_offset 16
 223 0004 00AF     		add	r7, sp, #0
 224              	.LCFI6:
 225              		.cfi_def_cfa_register 7
 322:.\Generated_Source\PSoC4/EZI2C_1_EZI2C.c ****     uint32 status;
 323:.\Generated_Source\PSoC4/EZI2C_1_EZI2C.c ****     uint32 slaveBusy;
 324:.\Generated_Source\PSoC4/EZI2C_1_EZI2C.c **** 
 325:.\Generated_Source\PSoC4/EZI2C_1_EZI2C.c ****     slaveBusy = 0u;
 226              		.loc 1 325 0
 227 0006 0023     		mov	r3, #0
 228 0008 3B60     		str	r3, [r7]
 326:.\Generated_Source\PSoC4/EZI2C_1_EZI2C.c **** 
 327:.\Generated_Source\PSoC4/EZI2C_1_EZI2C.c ****     EZI2C_1_DisableInt();  /* Lock from interruption */
 229              		.loc 1 327 0
 230 000a 0A20     		mov	r0, #10
 231 000c FFF7FEFF 		bl	CyIntDisable
 328:.\Generated_Source\PSoC4/EZI2C_1_EZI2C.c **** 
 329:.\Generated_Source\PSoC4/EZI2C_1_EZI2C.c ****     status = EZI2C_1_curStatus;
 232              		.loc 1 329 0
 233 0010 0D4B     		ldr	r3, .L10
 234 0012 1B78     		ldrb	r3, [r3]
 235 0014 DBB2     		uxtb	r3, r3
 236 0016 7B60     		str	r3, [r7, #4]
 330:.\Generated_Source\PSoC4/EZI2C_1_EZI2C.c **** 
 331:.\Generated_Source\PSoC4/EZI2C_1_EZI2C.c ****     /* Relay on address match event from HW as bus busy status */
 332:.\Generated_Source\PSoC4/EZI2C_1_EZI2C.c **** #if(EZI2C_1_CY_SCBIP_V0)
 333:.\Generated_Source\PSoC4/EZI2C_1_EZI2C.c **** 
 334:.\Generated_Source\PSoC4/EZI2C_1_EZI2C.c ****     #if(EZI2C_1_EZI2C_SCL_STRETCH_DISABLE)
ARM GAS  C:\Users\TSUBAS~1\AppData\Local\Temp\cck1RKSd.s 			page 11


 335:.\Generated_Source\PSoC4/EZI2C_1_EZI2C.c ****     {
 336:.\Generated_Source\PSoC4/EZI2C_1_EZI2C.c ****         slaveBusy = (uint32) EZI2C_1_CHECK_INTR_SLAVE(EZI2C_1_INTR_SLAVE_I2C_ADDR_MATCH);
 337:.\Generated_Source\PSoC4/EZI2C_1_EZI2C.c ****     }
 338:.\Generated_Source\PSoC4/EZI2C_1_EZI2C.c ****     #endif
 339:.\Generated_Source\PSoC4/EZI2C_1_EZI2C.c **** #else
 340:.\Generated_Source\PSoC4/EZI2C_1_EZI2C.c ****     #if(EZI2C_1_EZI2C_SCL_STRETCH_DISABLE)
 341:.\Generated_Source\PSoC4/EZI2C_1_EZI2C.c ****     {
 342:.\Generated_Source\PSoC4/EZI2C_1_EZI2C.c ****         #if(EZI2C_1_EZI2C_EC_AM_ENABLE)
 343:.\Generated_Source\PSoC4/EZI2C_1_EZI2C.c ****         {
 344:.\Generated_Source\PSoC4/EZI2C_1_EZI2C.c ****             slaveBusy = (uint32) EZI2C_1_CHECK_INTR_I2C_EC(EZI2C_1_INTR_I2C_EC_WAKE_UP);
 345:.\Generated_Source\PSoC4/EZI2C_1_EZI2C.c ****         }
 346:.\Generated_Source\PSoC4/EZI2C_1_EZI2C.c ****         #else
 347:.\Generated_Source\PSoC4/EZI2C_1_EZI2C.c ****         {
 348:.\Generated_Source\PSoC4/EZI2C_1_EZI2C.c ****             slaveBusy = (uint32) EZI2C_1_CHECK_INTR_SLAVE(EZI2C_1_INTR_SLAVE_I2C_ADDR_MATCH);
 349:.\Generated_Source\PSoC4/EZI2C_1_EZI2C.c ****         }
 350:.\Generated_Source\PSoC4/EZI2C_1_EZI2C.c ****         #endif
 351:.\Generated_Source\PSoC4/EZI2C_1_EZI2C.c ****     }
 352:.\Generated_Source\PSoC4/EZI2C_1_EZI2C.c ****     #endif
 353:.\Generated_Source\PSoC4/EZI2C_1_EZI2C.c **** #endif /* (EZI2C_1_CY_SCBIP_V0) */
 354:.\Generated_Source\PSoC4/EZI2C_1_EZI2C.c **** 
 355:.\Generated_Source\PSoC4/EZI2C_1_EZI2C.c ****     if(0u != slaveBusy)
 237              		.loc 1 355 0
 238 0018 3B68     		ldr	r3, [r7]
 239 001a 002B     		cmp	r3, #0
 240 001c 03D0     		beq	.L8
 356:.\Generated_Source\PSoC4/EZI2C_1_EZI2C.c ****     {
 357:.\Generated_Source\PSoC4/EZI2C_1_EZI2C.c ****         status |= EZI2C_1_EZI2C_STATUS_BUSY;
 241              		.loc 1 357 0
 242 001e 7B68     		ldr	r3, [r7, #4]
 243 0020 2022     		mov	r2, #32
 244 0022 1343     		orr	r3, r2
 245 0024 7B60     		str	r3, [r7, #4]
 246              	.L8:
 358:.\Generated_Source\PSoC4/EZI2C_1_EZI2C.c ****     }
 359:.\Generated_Source\PSoC4/EZI2C_1_EZI2C.c **** 
 360:.\Generated_Source\PSoC4/EZI2C_1_EZI2C.c ****     EZI2C_1_curStatus &= ((uint8) ~EZI2C_1_EZI2C_CLEAR_STATUS);
 247              		.loc 1 360 0
 248 0026 084B     		ldr	r3, .L10
 249 0028 1B78     		ldrb	r3, [r3]
 250 002a DBB2     		uxtb	r3, r3
 251 002c 1F22     		mov	r2, #31
 252 002e 9343     		bic	r3, r2
 253 0030 DAB2     		uxtb	r2, r3
 254 0032 054B     		ldr	r3, .L10
 255 0034 1A70     		strb	r2, [r3]
 361:.\Generated_Source\PSoC4/EZI2C_1_EZI2C.c **** 
 362:.\Generated_Source\PSoC4/EZI2C_1_EZI2C.c ****     EZI2C_1_EnableInt();   /* Release lock */
 256              		.loc 1 362 0
 257 0036 0A20     		mov	r0, #10
 258 0038 FFF7FEFF 		bl	CyIntEnable
 363:.\Generated_Source\PSoC4/EZI2C_1_EZI2C.c **** 
 364:.\Generated_Source\PSoC4/EZI2C_1_EZI2C.c ****     return(status);
 259              		.loc 1 364 0
 260 003c 7B68     		ldr	r3, [r7, #4]
 365:.\Generated_Source\PSoC4/EZI2C_1_EZI2C.c **** }
 261              		.loc 1 365 0
 262 003e 181C     		mov	r0, r3
ARM GAS  C:\Users\TSUBAS~1\AppData\Local\Temp\cck1RKSd.s 			page 12


 263 0040 BD46     		mov	sp, r7
 264 0042 02B0     		add	sp, sp, #8
 265              		@ sp needed for prologue
 266 0044 80BD     		pop	{r7, pc}
 267              	.L11:
 268 0046 C046     		.align	2
 269              	.L10:
 270 0048 00000000 		.word	EZI2C_1_curStatus
 271              		.cfi_endproc
 272              	.LFE2:
 273              		.size	EZI2C_1_EzI2CGetActivity, .-EZI2C_1_EzI2CGetActivity
 274              		.section	.text.EZI2C_1_EzI2CSetAddress1,"ax",%progbits
 275              		.align	2
 276              		.global	EZI2C_1_EzI2CSetAddress1
 277              		.code	16
 278              		.thumb_func
 279              		.type	EZI2C_1_EzI2CSetAddress1, %function
 280              	EZI2C_1_EzI2CSetAddress1:
 281              	.LFB3:
 366:.\Generated_Source\PSoC4/EZI2C_1_EZI2C.c **** 
 367:.\Generated_Source\PSoC4/EZI2C_1_EZI2C.c **** 
 368:.\Generated_Source\PSoC4/EZI2C_1_EZI2C.c **** /*******************************************************************************
 369:.\Generated_Source\PSoC4/EZI2C_1_EZI2C.c **** * Function Name: EZI2C_1_EzI2CSetAddress1
 370:.\Generated_Source\PSoC4/EZI2C_1_EZI2C.c **** ********************************************************************************
 371:.\Generated_Source\PSoC4/EZI2C_1_EZI2C.c **** *
 372:.\Generated_Source\PSoC4/EZI2C_1_EZI2C.c **** * Summary:
 373:.\Generated_Source\PSoC4/EZI2C_1_EZI2C.c **** *  Sets the primary I2C slave address.
 374:.\Generated_Source\PSoC4/EZI2C_1_EZI2C.c **** *
 375:.\Generated_Source\PSoC4/EZI2C_1_EZI2C.c **** * Parameters:
 376:.\Generated_Source\PSoC4/EZI2C_1_EZI2C.c **** *  address: I2C slave address for the secondary device.
 377:.\Generated_Source\PSoC4/EZI2C_1_EZI2C.c **** *           This address is the 7-bit right-justified slave address and does
 378:.\Generated_Source\PSoC4/EZI2C_1_EZI2C.c **** *           not include the R/W bit.
 379:.\Generated_Source\PSoC4/EZI2C_1_EZI2C.c **** *           This value may be any address between 0 and 127 (0x00 to 0x7F).
 380:.\Generated_Source\PSoC4/EZI2C_1_EZI2C.c **** *
 381:.\Generated_Source\PSoC4/EZI2C_1_EZI2C.c **** * Return:
 382:.\Generated_Source\PSoC4/EZI2C_1_EZI2C.c **** *  None
 383:.\Generated_Source\PSoC4/EZI2C_1_EZI2C.c **** *
 384:.\Generated_Source\PSoC4/EZI2C_1_EZI2C.c **** *******************************************************************************/
 385:.\Generated_Source\PSoC4/EZI2C_1_EZI2C.c **** void EZI2C_1_EzI2CSetAddress1(uint32 address)
 386:.\Generated_Source\PSoC4/EZI2C_1_EZI2C.c **** {
 282              		.loc 1 386 0
 283              		.cfi_startproc
 284 0000 80B5     		push	{r7, lr}
 285              	.LCFI7:
 286              		.cfi_def_cfa_offset 8
 287              		.cfi_offset 7, -8
 288              		.cfi_offset 14, -4
 289 0002 84B0     		sub	sp, sp, #16
 290              	.LCFI8:
 291              		.cfi_def_cfa_offset 24
 292 0004 00AF     		add	r7, sp, #0
 293              	.LCFI9:
 294              		.cfi_def_cfa_register 7
 295 0006 7860     		str	r0, [r7, #4]
 296              	.LBB2:
 387:.\Generated_Source\PSoC4/EZI2C_1_EZI2C.c ****     #if(EZI2C_1_SECONDARY_ADDRESS_ENABLE)
 388:.\Generated_Source\PSoC4/EZI2C_1_EZI2C.c ****     {
ARM GAS  C:\Users\TSUBAS~1\AppData\Local\Temp\cck1RKSd.s 			page 13


 389:.\Generated_Source\PSoC4/EZI2C_1_EZI2C.c ****         EZI2C_1_addrBuf1 = (uint8) address;
 390:.\Generated_Source\PSoC4/EZI2C_1_EZI2C.c **** 
 391:.\Generated_Source\PSoC4/EZI2C_1_EZI2C.c ****         EZI2C_1_RX_MATCH_REG = EZI2C_1_EzI2CUpdateRxMatchReg(address,
 392:.\Generated_Source\PSoC4/EZI2C_1_EZI2C.c ****                                                                                (uint32) EZI2C_1_add
 393:.\Generated_Source\PSoC4/EZI2C_1_EZI2C.c ****     }
 394:.\Generated_Source\PSoC4/EZI2C_1_EZI2C.c ****     #else
 395:.\Generated_Source\PSoC4/EZI2C_1_EZI2C.c ****     {
 396:.\Generated_Source\PSoC4/EZI2C_1_EZI2C.c ****         uint32 matchReg;
 397:.\Generated_Source\PSoC4/EZI2C_1_EZI2C.c **** 
 398:.\Generated_Source\PSoC4/EZI2C_1_EZI2C.c ****         matchReg = EZI2C_1_RX_MATCH_REG;
 297              		.loc 1 398 0
 298 0008 094B     		ldr	r3, .L13
 299 000a 1B68     		ldr	r3, [r3]
 300 000c FB60     		str	r3, [r7, #12]
 399:.\Generated_Source\PSoC4/EZI2C_1_EZI2C.c **** 
 400:.\Generated_Source\PSoC4/EZI2C_1_EZI2C.c ****         matchReg &= ((uint32) ~EZI2C_1_RX_MATCH_ADDR_MASK);            /* Clear address bits */
 301              		.loc 1 400 0
 302 000e FB68     		ldr	r3, [r7, #12]
 303 0010 FF22     		mov	r2, #255
 304 0012 9343     		bic	r3, r2
 305 0014 FB60     		str	r3, [r7, #12]
 401:.\Generated_Source\PSoC4/EZI2C_1_EZI2C.c ****         matchReg |= ((uint32)  EZI2C_1_GET_I2C_8BIT_ADDRESS(address)); /* Set mask */
 306              		.loc 1 401 0
 307 0016 7B68     		ldr	r3, [r7, #4]
 308 0018 5A00     		lsl	r2, r3, #1
 309 001a FF23     		mov	r3, #255
 310 001c 1340     		and	r3, r2
 311 001e FA68     		ldr	r2, [r7, #12]
 312 0020 1343     		orr	r3, r2
 313 0022 FB60     		str	r3, [r7, #12]
 402:.\Generated_Source\PSoC4/EZI2C_1_EZI2C.c **** 
 403:.\Generated_Source\PSoC4/EZI2C_1_EZI2C.c ****         EZI2C_1_RX_MATCH_REG = matchReg;
 314              		.loc 1 403 0
 315 0024 024B     		ldr	r3, .L13
 316 0026 FA68     		ldr	r2, [r7, #12]
 317 0028 1A60     		str	r2, [r3]
 318              	.LBE2:
 404:.\Generated_Source\PSoC4/EZI2C_1_EZI2C.c ****     }
 405:.\Generated_Source\PSoC4/EZI2C_1_EZI2C.c ****     #endif
 406:.\Generated_Source\PSoC4/EZI2C_1_EZI2C.c **** }
 319              		.loc 1 406 0
 320 002a BD46     		mov	sp, r7
 321 002c 04B0     		add	sp, sp, #16
 322              		@ sp needed for prologue
 323 002e 80BD     		pop	{r7, pc}
 324              	.L14:
 325              		.align	2
 326              	.L13:
 327 0030 10030640 		.word	1074135824
 328              		.cfi_endproc
 329              	.LFE3:
 330              		.size	EZI2C_1_EzI2CSetAddress1, .-EZI2C_1_EzI2CSetAddress1
 331              		.section	.text.EZI2C_1_EzI2CGetAddress1,"ax",%progbits
 332              		.align	2
 333              		.global	EZI2C_1_EzI2CGetAddress1
 334              		.code	16
 335              		.thumb_func
ARM GAS  C:\Users\TSUBAS~1\AppData\Local\Temp\cck1RKSd.s 			page 14


 336              		.type	EZI2C_1_EzI2CGetAddress1, %function
 337              	EZI2C_1_EzI2CGetAddress1:
 338              	.LFB4:
 407:.\Generated_Source\PSoC4/EZI2C_1_EZI2C.c **** 
 408:.\Generated_Source\PSoC4/EZI2C_1_EZI2C.c **** 
 409:.\Generated_Source\PSoC4/EZI2C_1_EZI2C.c **** /*******************************************************************************
 410:.\Generated_Source\PSoC4/EZI2C_1_EZI2C.c **** * Function Name: EZI2C_1_EzI2CGetAddress1
 411:.\Generated_Source\PSoC4/EZI2C_1_EZI2C.c **** ********************************************************************************
 412:.\Generated_Source\PSoC4/EZI2C_1_EZI2C.c **** *
 413:.\Generated_Source\PSoC4/EZI2C_1_EZI2C.c **** * Summary:
 414:.\Generated_Source\PSoC4/EZI2C_1_EZI2C.c **** *  Gets the primary I2C slave 7-bit address.
 415:.\Generated_Source\PSoC4/EZI2C_1_EZI2C.c **** *
 416:.\Generated_Source\PSoC4/EZI2C_1_EZI2C.c **** * Parameters:
 417:.\Generated_Source\PSoC4/EZI2C_1_EZI2C.c **** *  None
 418:.\Generated_Source\PSoC4/EZI2C_1_EZI2C.c **** *
 419:.\Generated_Source\PSoC4/EZI2C_1_EZI2C.c **** * Return:
 420:.\Generated_Source\PSoC4/EZI2C_1_EZI2C.c **** *  Returns I2C slave address for the primary device.
 421:.\Generated_Source\PSoC4/EZI2C_1_EZI2C.c **** *  This address is the 7-bit right-justified slave address and does not
 422:.\Generated_Source\PSoC4/EZI2C_1_EZI2C.c **** *  include the R/W bit.
 423:.\Generated_Source\PSoC4/EZI2C_1_EZI2C.c **** *  This value may be any address between 0 and 127 (0x00 to 0x7F).
 424:.\Generated_Source\PSoC4/EZI2C_1_EZI2C.c **** *
 425:.\Generated_Source\PSoC4/EZI2C_1_EZI2C.c **** *******************************************************************************/
 426:.\Generated_Source\PSoC4/EZI2C_1_EZI2C.c **** uint32 EZI2C_1_EzI2CGetAddress1(void)
 427:.\Generated_Source\PSoC4/EZI2C_1_EZI2C.c **** {
 339              		.loc 1 427 0
 340              		.cfi_startproc
 341 0000 80B5     		push	{r7, lr}
 342              	.LCFI10:
 343              		.cfi_def_cfa_offset 8
 344              		.cfi_offset 7, -8
 345              		.cfi_offset 14, -4
 346 0002 82B0     		sub	sp, sp, #8
 347              	.LCFI11:
 348              		.cfi_def_cfa_offset 16
 349 0004 00AF     		add	r7, sp, #0
 350              	.LCFI12:
 351              		.cfi_def_cfa_register 7
 428:.\Generated_Source\PSoC4/EZI2C_1_EZI2C.c ****     uint32 address;
 429:.\Generated_Source\PSoC4/EZI2C_1_EZI2C.c **** 
 430:.\Generated_Source\PSoC4/EZI2C_1_EZI2C.c ****     #if(EZI2C_1_SECONDARY_ADDRESS_ENABLE)
 431:.\Generated_Source\PSoC4/EZI2C_1_EZI2C.c ****     {
 432:.\Generated_Source\PSoC4/EZI2C_1_EZI2C.c ****         address = (uint32) EZI2C_1_addrBuf1;
 433:.\Generated_Source\PSoC4/EZI2C_1_EZI2C.c ****     }
 434:.\Generated_Source\PSoC4/EZI2C_1_EZI2C.c ****     #else
 435:.\Generated_Source\PSoC4/EZI2C_1_EZI2C.c ****     {
 436:.\Generated_Source\PSoC4/EZI2C_1_EZI2C.c ****         address = (EZI2C_1_GET_RX_MATCH_ADDR(EZI2C_1_RX_MATCH_REG) >>
 352              		.loc 1 436 0
 353 0006 054B     		ldr	r3, .L17
 354 0008 1A68     		ldr	r2, [r3]
 355 000a FF23     		mov	r3, #255
 356 000c 1340     		and	r3, r2
 357 000e 5B08     		lsr	r3, r3, #1
 358 0010 7B60     		str	r3, [r7, #4]
 437:.\Generated_Source\PSoC4/EZI2C_1_EZI2C.c ****                    EZI2C_1_I2C_SLAVE_ADDR_POS);
 438:.\Generated_Source\PSoC4/EZI2C_1_EZI2C.c ****     }
 439:.\Generated_Source\PSoC4/EZI2C_1_EZI2C.c ****     #endif
 440:.\Generated_Source\PSoC4/EZI2C_1_EZI2C.c **** 
ARM GAS  C:\Users\TSUBAS~1\AppData\Local\Temp\cck1RKSd.s 			page 15


 441:.\Generated_Source\PSoC4/EZI2C_1_EZI2C.c ****     return(address);
 359              		.loc 1 441 0
 360 0012 7B68     		ldr	r3, [r7, #4]
 442:.\Generated_Source\PSoC4/EZI2C_1_EZI2C.c **** }
 361              		.loc 1 442 0
 362 0014 181C     		mov	r0, r3
 363 0016 BD46     		mov	sp, r7
 364 0018 02B0     		add	sp, sp, #8
 365              		@ sp needed for prologue
 366 001a 80BD     		pop	{r7, pc}
 367              	.L18:
 368              		.align	2
 369              	.L17:
 370 001c 10030640 		.word	1074135824
 371              		.cfi_endproc
 372              	.LFE4:
 373              		.size	EZI2C_1_EzI2CGetAddress1, .-EZI2C_1_EzI2CGetAddress1
 374              		.section	.text.EZI2C_1_EzI2CSetBuffer1,"ax",%progbits
 375              		.align	2
 376              		.global	EZI2C_1_EzI2CSetBuffer1
 377              		.code	16
 378              		.thumb_func
 379              		.type	EZI2C_1_EzI2CSetBuffer1, %function
 380              	EZI2C_1_EzI2CSetBuffer1:
 381              	.LFB5:
 443:.\Generated_Source\PSoC4/EZI2C_1_EZI2C.c **** 
 444:.\Generated_Source\PSoC4/EZI2C_1_EZI2C.c **** 
 445:.\Generated_Source\PSoC4/EZI2C_1_EZI2C.c **** /*******************************************************************************
 446:.\Generated_Source\PSoC4/EZI2C_1_EZI2C.c **** * Function Name: EZI2C_1_EzI2CSetBuffer1
 447:.\Generated_Source\PSoC4/EZI2C_1_EZI2C.c **** ********************************************************************************
 448:.\Generated_Source\PSoC4/EZI2C_1_EZI2C.c **** *
 449:.\Generated_Source\PSoC4/EZI2C_1_EZI2C.c **** * Summary:
 450:.\Generated_Source\PSoC4/EZI2C_1_EZI2C.c **** *  Sets up the data buffer to be exposed to the I2C master on a primary slave
 451:.\Generated_Source\PSoC4/EZI2C_1_EZI2C.c **** *  address request.
 452:.\Generated_Source\PSoC4/EZI2C_1_EZI2C.c **** *
 453:.\Generated_Source\PSoC4/EZI2C_1_EZI2C.c **** * Parameters:
 454:.\Generated_Source\PSoC4/EZI2C_1_EZI2C.c **** *  bufSize: Size of the buffer in bytes.
 455:.\Generated_Source\PSoC4/EZI2C_1_EZI2C.c **** *  rwBoundary: Sets how many bytes are writeable in the beginning of the buffer.
 456:.\Generated_Source\PSoC4/EZI2C_1_EZI2C.c **** *              This value must be less than or equal to the buffer size.
 457:.\Generated_Source\PSoC4/EZI2C_1_EZI2C.c **** *              Data located at offset rwBoundry and greater are read only.
 458:.\Generated_Source\PSoC4/EZI2C_1_EZI2C.c **** *  buffer: Pointer to the data buffer.
 459:.\Generated_Source\PSoC4/EZI2C_1_EZI2C.c **** *
 460:.\Generated_Source\PSoC4/EZI2C_1_EZI2C.c **** * Return:
 461:.\Generated_Source\PSoC4/EZI2C_1_EZI2C.c **** *  None
 462:.\Generated_Source\PSoC4/EZI2C_1_EZI2C.c **** *
 463:.\Generated_Source\PSoC4/EZI2C_1_EZI2C.c **** *******************************************************************************/
 464:.\Generated_Source\PSoC4/EZI2C_1_EZI2C.c **** void EZI2C_1_EzI2CSetBuffer1(uint32 bufSize, uint32 rwBoundary, volatile uint8 * buffer)
 465:.\Generated_Source\PSoC4/EZI2C_1_EZI2C.c **** {
 382              		.loc 1 465 0
 383              		.cfi_startproc
 384 0000 80B5     		push	{r7, lr}
 385              	.LCFI13:
 386              		.cfi_def_cfa_offset 8
 387              		.cfi_offset 7, -8
 388              		.cfi_offset 14, -4
 389 0002 84B0     		sub	sp, sp, #16
 390              	.LCFI14:
ARM GAS  C:\Users\TSUBAS~1\AppData\Local\Temp\cck1RKSd.s 			page 16


 391              		.cfi_def_cfa_offset 24
 392 0004 00AF     		add	r7, sp, #0
 393              	.LCFI15:
 394              		.cfi_def_cfa_register 7
 395 0006 F860     		str	r0, [r7, #12]
 396 0008 B960     		str	r1, [r7, #8]
 397 000a 7A60     		str	r2, [r7, #4]
 466:.\Generated_Source\PSoC4/EZI2C_1_EZI2C.c ****     if(NULL != buffer)
 398              		.loc 1 466 0
 399 000c 7B68     		ldr	r3, [r7, #4]
 400 000e 002B     		cmp	r3, #0
 401 0010 0AD0     		beq	.L19
 467:.\Generated_Source\PSoC4/EZI2C_1_EZI2C.c ****     {
 468:.\Generated_Source\PSoC4/EZI2C_1_EZI2C.c ****         EZI2C_1_dataBuffer1 =  buffer;
 402              		.loc 1 468 0
 403 0012 074B     		ldr	r3, .L21
 404 0014 7A68     		ldr	r2, [r7, #4]
 405 0016 1A60     		str	r2, [r3]
 469:.\Generated_Source\PSoC4/EZI2C_1_EZI2C.c ****         EZI2C_1_bufSizeBuf1 = (uint16) bufSize;
 406              		.loc 1 469 0
 407 0018 FB68     		ldr	r3, [r7, #12]
 408 001a 9AB2     		uxth	r2, r3
 409 001c 054B     		ldr	r3, .L21+4
 410 001e 1A80     		strh	r2, [r3]
 470:.\Generated_Source\PSoC4/EZI2C_1_EZI2C.c ****         EZI2C_1_protectBuf1 = (uint16) rwBoundary;
 411              		.loc 1 470 0
 412 0020 BB68     		ldr	r3, [r7, #8]
 413 0022 9AB2     		uxth	r2, r3
 414 0024 044B     		ldr	r3, .L21+8
 415 0026 1A80     		strh	r2, [r3]
 416              	.L19:
 471:.\Generated_Source\PSoC4/EZI2C_1_EZI2C.c ****     }
 472:.\Generated_Source\PSoC4/EZI2C_1_EZI2C.c **** }
 417              		.loc 1 472 0
 418 0028 BD46     		mov	sp, r7
 419 002a 04B0     		add	sp, sp, #16
 420              		@ sp needed for prologue
 421 002c 80BD     		pop	{r7, pc}
 422              	.L22:
 423 002e C046     		.align	2
 424              	.L21:
 425 0030 00000000 		.word	EZI2C_1_dataBuffer1
 426 0034 00000000 		.word	EZI2C_1_bufSizeBuf1
 427 0038 00000000 		.word	EZI2C_1_protectBuf1
 428              		.cfi_endproc
 429              	.LFE5:
 430              		.size	EZI2C_1_EzI2CSetBuffer1, .-EZI2C_1_EzI2CSetBuffer1
 431              		.section	.text.EZI2C_1_EzI2CSetReadBoundaryBuffer1,"ax",%progbits
 432              		.align	2
 433              		.global	EZI2C_1_EzI2CSetReadBoundaryBuffer1
 434              		.code	16
 435              		.thumb_func
 436              		.type	EZI2C_1_EzI2CSetReadBoundaryBuffer1, %function
 437              	EZI2C_1_EzI2CSetReadBoundaryBuffer1:
 438              	.LFB6:
 473:.\Generated_Source\PSoC4/EZI2C_1_EZI2C.c **** 
 474:.\Generated_Source\PSoC4/EZI2C_1_EZI2C.c **** 
ARM GAS  C:\Users\TSUBAS~1\AppData\Local\Temp\cck1RKSd.s 			page 17


 475:.\Generated_Source\PSoC4/EZI2C_1_EZI2C.c **** /*******************************************************************************
 476:.\Generated_Source\PSoC4/EZI2C_1_EZI2C.c **** * Function Name: EZI2C_1_EzI2CSetReadBoundaryBuffer1
 477:.\Generated_Source\PSoC4/EZI2C_1_EZI2C.c **** ********************************************************************************
 478:.\Generated_Source\PSoC4/EZI2C_1_EZI2C.c **** *
 479:.\Generated_Source\PSoC4/EZI2C_1_EZI2C.c **** * Summary:
 480:.\Generated_Source\PSoC4/EZI2C_1_EZI2C.c **** *  Sets the read only boundary in the data buffer to be exposed to the I2C
 481:.\Generated_Source\PSoC4/EZI2C_1_EZI2C.c **** *  master on a primary slave address request.
 482:.\Generated_Source\PSoC4/EZI2C_1_EZI2C.c **** *
 483:.\Generated_Source\PSoC4/EZI2C_1_EZI2C.c **** * Parameters:
 484:.\Generated_Source\PSoC4/EZI2C_1_EZI2C.c **** *  rwBoundry: Sets how many bytes are writeable in the beginning of the buffer.
 485:.\Generated_Source\PSoC4/EZI2C_1_EZI2C.c **** *             This value must be less than or equal to the buffer size.
 486:.\Generated_Source\PSoC4/EZI2C_1_EZI2C.c **** *             Data located at offset rwBoundry and greater are read only.
 487:.\Generated_Source\PSoC4/EZI2C_1_EZI2C.c **** *
 488:.\Generated_Source\PSoC4/EZI2C_1_EZI2C.c **** * Return:
 489:.\Generated_Source\PSoC4/EZI2C_1_EZI2C.c **** *  None
 490:.\Generated_Source\PSoC4/EZI2C_1_EZI2C.c **** *
 491:.\Generated_Source\PSoC4/EZI2C_1_EZI2C.c **** *******************************************************************************/
 492:.\Generated_Source\PSoC4/EZI2C_1_EZI2C.c **** void EZI2C_1_EzI2CSetReadBoundaryBuffer1(uint32 rwBoundary)
 493:.\Generated_Source\PSoC4/EZI2C_1_EZI2C.c **** {
 439              		.loc 1 493 0
 440              		.cfi_startproc
 441 0000 80B5     		push	{r7, lr}
 442              	.LCFI16:
 443              		.cfi_def_cfa_offset 8
 444              		.cfi_offset 7, -8
 445              		.cfi_offset 14, -4
 446 0002 82B0     		sub	sp, sp, #8
 447              	.LCFI17:
 448              		.cfi_def_cfa_offset 16
 449 0004 00AF     		add	r7, sp, #0
 450              	.LCFI18:
 451              		.cfi_def_cfa_register 7
 452 0006 7860     		str	r0, [r7, #4]
 494:.\Generated_Source\PSoC4/EZI2C_1_EZI2C.c ****     EZI2C_1_protectBuf1 = (uint16) rwBoundary;
 453              		.loc 1 494 0
 454 0008 7B68     		ldr	r3, [r7, #4]
 455 000a 9AB2     		uxth	r2, r3
 456 000c 024B     		ldr	r3, .L24
 457 000e 1A80     		strh	r2, [r3]
 495:.\Generated_Source\PSoC4/EZI2C_1_EZI2C.c **** }
 458              		.loc 1 495 0
 459 0010 BD46     		mov	sp, r7
 460 0012 02B0     		add	sp, sp, #8
 461              		@ sp needed for prologue
 462 0014 80BD     		pop	{r7, pc}
 463              	.L25:
 464 0016 C046     		.align	2
 465              	.L24:
 466 0018 00000000 		.word	EZI2C_1_protectBuf1
 467              		.cfi_endproc
 468              	.LFE6:
 469              		.size	EZI2C_1_EzI2CSetReadBoundaryBuffer1, .-EZI2C_1_EzI2CSetReadBoundaryBuffer1
 470              		.text
 471              	.Letext0:
 472              		.file 2 "./Generated_Source/PSoC4/cytypes.h"