ARM GAS  C:\Users\TSUBAS~1\AppData\Local\Temp\cc3DtMM5.s 			page 1


   1              		.cpu cortex-m0
   2              		.fpu softvfp
   3              		.eabi_attribute 20, 1
   4              		.eabi_attribute 21, 1
   5              		.eabi_attribute 23, 3
   6              		.eabi_attribute 24, 1
   7              		.eabi_attribute 25, 1
   8              		.eabi_attribute 26, 1
   9              		.eabi_attribute 30, 6
  10              		.eabi_attribute 34, 0
  11              		.eabi_attribute 18, 4
  12              		.code	16
  13              		.file	"isr_fifo_empty.c"
  14              		.text
  15              	.Ltext0:
  16              		.cfi_sections	.debug_frame
  17              		.section	.text.isr_fifo_empty_Start,"ax",%progbits
  18              		.align	2
  19              		.global	isr_fifo_empty_Start
  20              		.code	16
  21              		.thumb_func
  22              		.type	isr_fifo_empty_Start, %function
  23              	isr_fifo_empty_Start:
  24              	.LFB0:
  25              		.file 1 ".\\Generated_Source\\PSoC4\\isr_fifo_empty.c"
   1:.\Generated_Source\PSoC4/isr_fifo_empty.c **** /*******************************************************************************
   2:.\Generated_Source\PSoC4/isr_fifo_empty.c **** * File Name: isr_fifo_empty.c  
   3:.\Generated_Source\PSoC4/isr_fifo_empty.c **** * Version 1.70
   4:.\Generated_Source\PSoC4/isr_fifo_empty.c **** *
   5:.\Generated_Source\PSoC4/isr_fifo_empty.c **** *  Description:
   6:.\Generated_Source\PSoC4/isr_fifo_empty.c **** *   API for controlling the state of an interrupt.
   7:.\Generated_Source\PSoC4/isr_fifo_empty.c **** *
   8:.\Generated_Source\PSoC4/isr_fifo_empty.c **** *
   9:.\Generated_Source\PSoC4/isr_fifo_empty.c **** *  Note:
  10:.\Generated_Source\PSoC4/isr_fifo_empty.c **** *
  11:.\Generated_Source\PSoC4/isr_fifo_empty.c **** ********************************************************************************
  12:.\Generated_Source\PSoC4/isr_fifo_empty.c **** * Copyright 2008-2012, Cypress Semiconductor Corporation.  All rights reserved.
  13:.\Generated_Source\PSoC4/isr_fifo_empty.c **** * You may use this file only in accordance with the license, terms, conditions, 
  14:.\Generated_Source\PSoC4/isr_fifo_empty.c **** * disclaimers, and limitations in the end user license agreement accompanying 
  15:.\Generated_Source\PSoC4/isr_fifo_empty.c **** * the software package with which this file was provided.
  16:.\Generated_Source\PSoC4/isr_fifo_empty.c **** *******************************************************************************/
  17:.\Generated_Source\PSoC4/isr_fifo_empty.c **** 
  18:.\Generated_Source\PSoC4/isr_fifo_empty.c **** 
  19:.\Generated_Source\PSoC4/isr_fifo_empty.c **** #include <cydevice_trm.h>
  20:.\Generated_Source\PSoC4/isr_fifo_empty.c **** #include <CyLib.h>
  21:.\Generated_Source\PSoC4/isr_fifo_empty.c **** #include <isr_fifo_empty.h>
  22:.\Generated_Source\PSoC4/isr_fifo_empty.c **** 
  23:.\Generated_Source\PSoC4/isr_fifo_empty.c **** #if !defined(isr_fifo_empty__REMOVED) /* Check for removal by optimization */
  24:.\Generated_Source\PSoC4/isr_fifo_empty.c **** 
  25:.\Generated_Source\PSoC4/isr_fifo_empty.c **** /*******************************************************************************
  26:.\Generated_Source\PSoC4/isr_fifo_empty.c **** *  Place your includes, defines and code here 
  27:.\Generated_Source\PSoC4/isr_fifo_empty.c **** ********************************************************************************/
  28:.\Generated_Source\PSoC4/isr_fifo_empty.c **** /* `#START isr_fifo_empty_intc` */
  29:.\Generated_Source\PSoC4/isr_fifo_empty.c **** 
  30:.\Generated_Source\PSoC4/isr_fifo_empty.c **** /* `#END` */
  31:.\Generated_Source\PSoC4/isr_fifo_empty.c **** 
  32:.\Generated_Source\PSoC4/isr_fifo_empty.c **** extern cyisraddress CyRamVectors[CYINT_IRQ_BASE + CY_NUM_INTERRUPTS];
ARM GAS  C:\Users\TSUBAS~1\AppData\Local\Temp\cc3DtMM5.s 			page 2


  33:.\Generated_Source\PSoC4/isr_fifo_empty.c **** 
  34:.\Generated_Source\PSoC4/isr_fifo_empty.c **** /* Declared in startup, used to set unused interrupts to. */
  35:.\Generated_Source\PSoC4/isr_fifo_empty.c **** CY_ISR_PROTO(IntDefaultHandler);
  36:.\Generated_Source\PSoC4/isr_fifo_empty.c **** 
  37:.\Generated_Source\PSoC4/isr_fifo_empty.c **** 
  38:.\Generated_Source\PSoC4/isr_fifo_empty.c **** /*******************************************************************************
  39:.\Generated_Source\PSoC4/isr_fifo_empty.c **** * Function Name: isr_fifo_empty_Start
  40:.\Generated_Source\PSoC4/isr_fifo_empty.c **** ********************************************************************************
  41:.\Generated_Source\PSoC4/isr_fifo_empty.c **** *
  42:.\Generated_Source\PSoC4/isr_fifo_empty.c **** * Summary:
  43:.\Generated_Source\PSoC4/isr_fifo_empty.c **** *  Set up the interrupt and enable it.
  44:.\Generated_Source\PSoC4/isr_fifo_empty.c **** *
  45:.\Generated_Source\PSoC4/isr_fifo_empty.c **** * Parameters:  
  46:.\Generated_Source\PSoC4/isr_fifo_empty.c **** *   None
  47:.\Generated_Source\PSoC4/isr_fifo_empty.c **** *
  48:.\Generated_Source\PSoC4/isr_fifo_empty.c **** * Return:
  49:.\Generated_Source\PSoC4/isr_fifo_empty.c **** *   None
  50:.\Generated_Source\PSoC4/isr_fifo_empty.c **** *
  51:.\Generated_Source\PSoC4/isr_fifo_empty.c **** *******************************************************************************/
  52:.\Generated_Source\PSoC4/isr_fifo_empty.c **** void isr_fifo_empty_Start(void)
  53:.\Generated_Source\PSoC4/isr_fifo_empty.c **** {
  26              		.loc 1 53 0
  27              		.cfi_startproc
  28 0000 80B5     		push	{r7, lr}
  29              	.LCFI0:
  30              		.cfi_def_cfa_offset 8
  31              		.cfi_offset 7, -8
  32              		.cfi_offset 14, -4
  33 0002 00AF     		add	r7, sp, #0
  34              	.LCFI1:
  35              		.cfi_def_cfa_register 7
  54:.\Generated_Source\PSoC4/isr_fifo_empty.c ****     /* For all we know the interrupt is active. */
  55:.\Generated_Source\PSoC4/isr_fifo_empty.c ****     isr_fifo_empty_Disable();
  36              		.loc 1 55 0
  37 0004 FFF7FEFF 		bl	isr_fifo_empty_Disable
  56:.\Generated_Source\PSoC4/isr_fifo_empty.c **** 
  57:.\Generated_Source\PSoC4/isr_fifo_empty.c ****     /* Set the ISR to point to the isr_fifo_empty Interrupt. */
  58:.\Generated_Source\PSoC4/isr_fifo_empty.c ****     isr_fifo_empty_SetVector(&isr_fifo_empty_Interrupt);
  38              		.loc 1 58 0
  39 0008 054B     		ldr	r3, .L2
  40 000a 181C     		mov	r0, r3
  41 000c FFF7FEFF 		bl	isr_fifo_empty_SetVector
  59:.\Generated_Source\PSoC4/isr_fifo_empty.c **** 
  60:.\Generated_Source\PSoC4/isr_fifo_empty.c ****     /* Set the priority. */
  61:.\Generated_Source\PSoC4/isr_fifo_empty.c ****     isr_fifo_empty_SetPriority((uint8)isr_fifo_empty_INTC_PRIOR_NUMBER);
  42              		.loc 1 61 0
  43 0010 0320     		mov	r0, #3
  44 0012 FFF7FEFF 		bl	isr_fifo_empty_SetPriority
  62:.\Generated_Source\PSoC4/isr_fifo_empty.c **** 
  63:.\Generated_Source\PSoC4/isr_fifo_empty.c ****     /* Enable it. */
  64:.\Generated_Source\PSoC4/isr_fifo_empty.c ****     isr_fifo_empty_Enable();
  45              		.loc 1 64 0
  46 0016 FFF7FEFF 		bl	isr_fifo_empty_Enable
  65:.\Generated_Source\PSoC4/isr_fifo_empty.c **** }
  47              		.loc 1 65 0
  48 001a BD46     		mov	sp, r7
  49              		@ sp needed for prologue
ARM GAS  C:\Users\TSUBAS~1\AppData\Local\Temp\cc3DtMM5.s 			page 3


  50 001c 80BD     		pop	{r7, pc}
  51              	.L3:
  52 001e C046     		.align	2
  53              	.L2:
  54 0020 00000000 		.word	isr_fifo_empty_Interrupt
  55              		.cfi_endproc
  56              	.LFE0:
  57              		.size	isr_fifo_empty_Start, .-isr_fifo_empty_Start
  58              		.section	.text.isr_fifo_empty_StartEx,"ax",%progbits
  59              		.align	2
  60              		.global	isr_fifo_empty_StartEx
  61              		.code	16
  62              		.thumb_func
  63              		.type	isr_fifo_empty_StartEx, %function
  64              	isr_fifo_empty_StartEx:
  65              	.LFB1:
  66:.\Generated_Source\PSoC4/isr_fifo_empty.c **** 
  67:.\Generated_Source\PSoC4/isr_fifo_empty.c **** 
  68:.\Generated_Source\PSoC4/isr_fifo_empty.c **** /*******************************************************************************
  69:.\Generated_Source\PSoC4/isr_fifo_empty.c **** * Function Name: isr_fifo_empty_StartEx
  70:.\Generated_Source\PSoC4/isr_fifo_empty.c **** ********************************************************************************
  71:.\Generated_Source\PSoC4/isr_fifo_empty.c **** *
  72:.\Generated_Source\PSoC4/isr_fifo_empty.c **** * Summary:
  73:.\Generated_Source\PSoC4/isr_fifo_empty.c **** *  Set up the interrupt and enable it.
  74:.\Generated_Source\PSoC4/isr_fifo_empty.c **** *
  75:.\Generated_Source\PSoC4/isr_fifo_empty.c **** * Parameters:  
  76:.\Generated_Source\PSoC4/isr_fifo_empty.c **** *   address: Address of the ISR to set in the interrupt vector table.
  77:.\Generated_Source\PSoC4/isr_fifo_empty.c **** *
  78:.\Generated_Source\PSoC4/isr_fifo_empty.c **** * Return:
  79:.\Generated_Source\PSoC4/isr_fifo_empty.c **** *   None
  80:.\Generated_Source\PSoC4/isr_fifo_empty.c **** *
  81:.\Generated_Source\PSoC4/isr_fifo_empty.c **** *******************************************************************************/
  82:.\Generated_Source\PSoC4/isr_fifo_empty.c **** void isr_fifo_empty_StartEx(cyisraddress address)
  83:.\Generated_Source\PSoC4/isr_fifo_empty.c **** {
  66              		.loc 1 83 0
  67              		.cfi_startproc
  68 0000 80B5     		push	{r7, lr}
  69              	.LCFI2:
  70              		.cfi_def_cfa_offset 8
  71              		.cfi_offset 7, -8
  72              		.cfi_offset 14, -4
  73 0002 82B0     		sub	sp, sp, #8
  74              	.LCFI3:
  75              		.cfi_def_cfa_offset 16
  76 0004 00AF     		add	r7, sp, #0
  77              	.LCFI4:
  78              		.cfi_def_cfa_register 7
  79 0006 7860     		str	r0, [r7, #4]
  84:.\Generated_Source\PSoC4/isr_fifo_empty.c ****     /* For all we know the interrupt is active. */
  85:.\Generated_Source\PSoC4/isr_fifo_empty.c ****     isr_fifo_empty_Disable();
  80              		.loc 1 85 0
  81 0008 FFF7FEFF 		bl	isr_fifo_empty_Disable
  86:.\Generated_Source\PSoC4/isr_fifo_empty.c **** 
  87:.\Generated_Source\PSoC4/isr_fifo_empty.c ****     /* Set the ISR to point to the isr_fifo_empty Interrupt. */
  88:.\Generated_Source\PSoC4/isr_fifo_empty.c ****     isr_fifo_empty_SetVector(address);
  82              		.loc 1 88 0
  83 000c 7B68     		ldr	r3, [r7, #4]
ARM GAS  C:\Users\TSUBAS~1\AppData\Local\Temp\cc3DtMM5.s 			page 4


  84 000e 181C     		mov	r0, r3
  85 0010 FFF7FEFF 		bl	isr_fifo_empty_SetVector
  89:.\Generated_Source\PSoC4/isr_fifo_empty.c **** 
  90:.\Generated_Source\PSoC4/isr_fifo_empty.c ****     /* Set the priority. */
  91:.\Generated_Source\PSoC4/isr_fifo_empty.c ****     isr_fifo_empty_SetPriority((uint8)isr_fifo_empty_INTC_PRIOR_NUMBER);
  86              		.loc 1 91 0
  87 0014 0320     		mov	r0, #3
  88 0016 FFF7FEFF 		bl	isr_fifo_empty_SetPriority
  92:.\Generated_Source\PSoC4/isr_fifo_empty.c **** 
  93:.\Generated_Source\PSoC4/isr_fifo_empty.c ****     /* Enable it. */
  94:.\Generated_Source\PSoC4/isr_fifo_empty.c ****     isr_fifo_empty_Enable();
  89              		.loc 1 94 0
  90 001a FFF7FEFF 		bl	isr_fifo_empty_Enable
  95:.\Generated_Source\PSoC4/isr_fifo_empty.c **** }
  91              		.loc 1 95 0
  92 001e BD46     		mov	sp, r7
  93 0020 02B0     		add	sp, sp, #8
  94              		@ sp needed for prologue
  95 0022 80BD     		pop	{r7, pc}
  96              		.cfi_endproc
  97              	.LFE1:
  98              		.size	isr_fifo_empty_StartEx, .-isr_fifo_empty_StartEx
  99              		.section	.text.isr_fifo_empty_Stop,"ax",%progbits
 100              		.align	2
 101              		.global	isr_fifo_empty_Stop
 102              		.code	16
 103              		.thumb_func
 104              		.type	isr_fifo_empty_Stop, %function
 105              	isr_fifo_empty_Stop:
 106              	.LFB2:
  96:.\Generated_Source\PSoC4/isr_fifo_empty.c **** 
  97:.\Generated_Source\PSoC4/isr_fifo_empty.c **** 
  98:.\Generated_Source\PSoC4/isr_fifo_empty.c **** /*******************************************************************************
  99:.\Generated_Source\PSoC4/isr_fifo_empty.c **** * Function Name: isr_fifo_empty_Stop
 100:.\Generated_Source\PSoC4/isr_fifo_empty.c **** ********************************************************************************
 101:.\Generated_Source\PSoC4/isr_fifo_empty.c **** *
 102:.\Generated_Source\PSoC4/isr_fifo_empty.c **** * Summary:
 103:.\Generated_Source\PSoC4/isr_fifo_empty.c **** *   Disables and removes the interrupt.
 104:.\Generated_Source\PSoC4/isr_fifo_empty.c **** *
 105:.\Generated_Source\PSoC4/isr_fifo_empty.c **** * Parameters:  
 106:.\Generated_Source\PSoC4/isr_fifo_empty.c **** *
 107:.\Generated_Source\PSoC4/isr_fifo_empty.c **** * Return:
 108:.\Generated_Source\PSoC4/isr_fifo_empty.c **** *   None
 109:.\Generated_Source\PSoC4/isr_fifo_empty.c **** *
 110:.\Generated_Source\PSoC4/isr_fifo_empty.c **** *******************************************************************************/
 111:.\Generated_Source\PSoC4/isr_fifo_empty.c **** void isr_fifo_empty_Stop(void)
 112:.\Generated_Source\PSoC4/isr_fifo_empty.c **** {
 107              		.loc 1 112 0
 108              		.cfi_startproc
 109 0000 80B5     		push	{r7, lr}
 110              	.LCFI5:
 111              		.cfi_def_cfa_offset 8
 112              		.cfi_offset 7, -8
 113              		.cfi_offset 14, -4
 114 0002 00AF     		add	r7, sp, #0
 115              	.LCFI6:
 116              		.cfi_def_cfa_register 7
ARM GAS  C:\Users\TSUBAS~1\AppData\Local\Temp\cc3DtMM5.s 			page 5


 113:.\Generated_Source\PSoC4/isr_fifo_empty.c ****     /* Disable this interrupt. */
 114:.\Generated_Source\PSoC4/isr_fifo_empty.c ****     isr_fifo_empty_Disable();
 117              		.loc 1 114 0
 118 0004 FFF7FEFF 		bl	isr_fifo_empty_Disable
 115:.\Generated_Source\PSoC4/isr_fifo_empty.c **** 
 116:.\Generated_Source\PSoC4/isr_fifo_empty.c ****     /* Set the ISR to point to the passive one. */
 117:.\Generated_Source\PSoC4/isr_fifo_empty.c ****     isr_fifo_empty_SetVector(&IntDefaultHandler);
 119              		.loc 1 117 0
 120 0008 024B     		ldr	r3, .L6
 121 000a 181C     		mov	r0, r3
 122 000c FFF7FEFF 		bl	isr_fifo_empty_SetVector
 118:.\Generated_Source\PSoC4/isr_fifo_empty.c **** }
 123              		.loc 1 118 0
 124 0010 BD46     		mov	sp, r7
 125              		@ sp needed for prologue
 126 0012 80BD     		pop	{r7, pc}
 127              	.L7:
 128              		.align	2
 129              	.L6:
 130 0014 00000000 		.word	IntDefaultHandler
 131              		.cfi_endproc
 132              	.LFE2:
 133              		.size	isr_fifo_empty_Stop, .-isr_fifo_empty_Stop
 134              		.section	.text.isr_fifo_empty_Interrupt,"ax",%progbits
 135              		.align	2
 136              		.global	isr_fifo_empty_Interrupt
 137              		.code	16
 138              		.thumb_func
 139              		.type	isr_fifo_empty_Interrupt, %function
 140              	isr_fifo_empty_Interrupt:
 141              	.LFB3:
 119:.\Generated_Source\PSoC4/isr_fifo_empty.c **** 
 120:.\Generated_Source\PSoC4/isr_fifo_empty.c **** 
 121:.\Generated_Source\PSoC4/isr_fifo_empty.c **** /*******************************************************************************
 122:.\Generated_Source\PSoC4/isr_fifo_empty.c **** * Function Name: isr_fifo_empty_Interrupt
 123:.\Generated_Source\PSoC4/isr_fifo_empty.c **** ********************************************************************************
 124:.\Generated_Source\PSoC4/isr_fifo_empty.c **** *
 125:.\Generated_Source\PSoC4/isr_fifo_empty.c **** * Summary:
 126:.\Generated_Source\PSoC4/isr_fifo_empty.c **** *   The default Interrupt Service Routine for isr_fifo_empty.
 127:.\Generated_Source\PSoC4/isr_fifo_empty.c **** *
 128:.\Generated_Source\PSoC4/isr_fifo_empty.c **** *   Add custom code between the coments to keep the next version of this file
 129:.\Generated_Source\PSoC4/isr_fifo_empty.c **** *   from over writting your code.
 130:.\Generated_Source\PSoC4/isr_fifo_empty.c **** *
 131:.\Generated_Source\PSoC4/isr_fifo_empty.c **** * Parameters:  
 132:.\Generated_Source\PSoC4/isr_fifo_empty.c **** *   None
 133:.\Generated_Source\PSoC4/isr_fifo_empty.c **** *
 134:.\Generated_Source\PSoC4/isr_fifo_empty.c **** * Return:
 135:.\Generated_Source\PSoC4/isr_fifo_empty.c **** *   None
 136:.\Generated_Source\PSoC4/isr_fifo_empty.c **** *
 137:.\Generated_Source\PSoC4/isr_fifo_empty.c **** *******************************************************************************/
 138:.\Generated_Source\PSoC4/isr_fifo_empty.c **** CY_ISR(isr_fifo_empty_Interrupt)
 139:.\Generated_Source\PSoC4/isr_fifo_empty.c **** {
 142              		.loc 1 139 0
 143              		.cfi_startproc
 144 0000 80B5     		push	{r7, lr}
 145              	.LCFI7:
 146              		.cfi_def_cfa_offset 8
ARM GAS  C:\Users\TSUBAS~1\AppData\Local\Temp\cc3DtMM5.s 			page 6


 147              		.cfi_offset 7, -8
 148              		.cfi_offset 14, -4
 149 0002 00AF     		add	r7, sp, #0
 150              	.LCFI8:
 151              		.cfi_def_cfa_register 7
 140:.\Generated_Source\PSoC4/isr_fifo_empty.c ****     /*  Place your Interrupt code here. */
 141:.\Generated_Source\PSoC4/isr_fifo_empty.c ****     /* `#START isr_fifo_empty_Interrupt` */
 142:.\Generated_Source\PSoC4/isr_fifo_empty.c **** 
 143:.\Generated_Source\PSoC4/isr_fifo_empty.c ****     /* `#END` */
 144:.\Generated_Source\PSoC4/isr_fifo_empty.c **** }
 152              		.loc 1 144 0
 153 0004 BD46     		mov	sp, r7
 154              		@ sp needed for prologue
 155 0006 80BD     		pop	{r7, pc}
 156              		.cfi_endproc
 157              	.LFE3:
 158              		.size	isr_fifo_empty_Interrupt, .-isr_fifo_empty_Interrupt
 159              		.section	.text.isr_fifo_empty_SetVector,"ax",%progbits
 160              		.align	2
 161              		.global	isr_fifo_empty_SetVector
 162              		.code	16
 163              		.thumb_func
 164              		.type	isr_fifo_empty_SetVector, %function
 165              	isr_fifo_empty_SetVector:
 166              	.LFB4:
 145:.\Generated_Source\PSoC4/isr_fifo_empty.c **** 
 146:.\Generated_Source\PSoC4/isr_fifo_empty.c **** 
 147:.\Generated_Source\PSoC4/isr_fifo_empty.c **** /*******************************************************************************
 148:.\Generated_Source\PSoC4/isr_fifo_empty.c **** * Function Name: isr_fifo_empty_SetVector
 149:.\Generated_Source\PSoC4/isr_fifo_empty.c **** ********************************************************************************
 150:.\Generated_Source\PSoC4/isr_fifo_empty.c **** *
 151:.\Generated_Source\PSoC4/isr_fifo_empty.c **** * Summary:
 152:.\Generated_Source\PSoC4/isr_fifo_empty.c **** *   Change the ISR vector for the Interrupt. Note calling isr_fifo_empty_Start
 153:.\Generated_Source\PSoC4/isr_fifo_empty.c **** *   will override any effect this method would have had. To set the vector 
 154:.\Generated_Source\PSoC4/isr_fifo_empty.c **** *   before the component has been started use isr_fifo_empty_StartEx instead.
 155:.\Generated_Source\PSoC4/isr_fifo_empty.c **** *
 156:.\Generated_Source\PSoC4/isr_fifo_empty.c **** * Parameters:
 157:.\Generated_Source\PSoC4/isr_fifo_empty.c **** *   address: Address of the ISR to set in the interrupt vector table.
 158:.\Generated_Source\PSoC4/isr_fifo_empty.c **** *
 159:.\Generated_Source\PSoC4/isr_fifo_empty.c **** * Return:
 160:.\Generated_Source\PSoC4/isr_fifo_empty.c **** *   None
 161:.\Generated_Source\PSoC4/isr_fifo_empty.c **** *
 162:.\Generated_Source\PSoC4/isr_fifo_empty.c **** *******************************************************************************/
 163:.\Generated_Source\PSoC4/isr_fifo_empty.c **** void isr_fifo_empty_SetVector(cyisraddress address)
 164:.\Generated_Source\PSoC4/isr_fifo_empty.c **** {
 167              		.loc 1 164 0
 168              		.cfi_startproc
 169 0000 80B5     		push	{r7, lr}
 170              	.LCFI9:
 171              		.cfi_def_cfa_offset 8
 172              		.cfi_offset 7, -8
 173              		.cfi_offset 14, -4
 174 0002 82B0     		sub	sp, sp, #8
 175              	.LCFI10:
 176              		.cfi_def_cfa_offset 16
 177 0004 00AF     		add	r7, sp, #0
 178              	.LCFI11:
ARM GAS  C:\Users\TSUBAS~1\AppData\Local\Temp\cc3DtMM5.s 			page 7


 179              		.cfi_def_cfa_register 7
 180 0006 7860     		str	r0, [r7, #4]
 165:.\Generated_Source\PSoC4/isr_fifo_empty.c ****     CyRamVectors[CYINT_IRQ_BASE + isr_fifo_empty__INTC_NUMBER] = address;
 181              		.loc 1 165 0
 182 0008 024B     		ldr	r3, .L10
 183 000a 7A68     		ldr	r2, [r7, #4]
 184 000c 1A64     		str	r2, [r3, #64]
 166:.\Generated_Source\PSoC4/isr_fifo_empty.c **** }
 185              		.loc 1 166 0
 186 000e BD46     		mov	sp, r7
 187 0010 02B0     		add	sp, sp, #8
 188              		@ sp needed for prologue
 189 0012 80BD     		pop	{r7, pc}
 190              	.L11:
 191              		.align	2
 192              	.L10:
 193 0014 00000000 		.word	CyRamVectors
 194              		.cfi_endproc
 195              	.LFE4:
 196              		.size	isr_fifo_empty_SetVector, .-isr_fifo_empty_SetVector
 197              		.section	.text.isr_fifo_empty_GetVector,"ax",%progbits
 198              		.align	2
 199              		.global	isr_fifo_empty_GetVector
 200              		.code	16
 201              		.thumb_func
 202              		.type	isr_fifo_empty_GetVector, %function
 203              	isr_fifo_empty_GetVector:
 204              	.LFB5:
 167:.\Generated_Source\PSoC4/isr_fifo_empty.c **** 
 168:.\Generated_Source\PSoC4/isr_fifo_empty.c **** 
 169:.\Generated_Source\PSoC4/isr_fifo_empty.c **** /*******************************************************************************
 170:.\Generated_Source\PSoC4/isr_fifo_empty.c **** * Function Name: isr_fifo_empty_GetVector
 171:.\Generated_Source\PSoC4/isr_fifo_empty.c **** ********************************************************************************
 172:.\Generated_Source\PSoC4/isr_fifo_empty.c **** *
 173:.\Generated_Source\PSoC4/isr_fifo_empty.c **** * Summary:
 174:.\Generated_Source\PSoC4/isr_fifo_empty.c **** *   Gets the "address" of the current ISR vector for the Interrupt.
 175:.\Generated_Source\PSoC4/isr_fifo_empty.c **** *
 176:.\Generated_Source\PSoC4/isr_fifo_empty.c **** * Parameters:
 177:.\Generated_Source\PSoC4/isr_fifo_empty.c **** *   None
 178:.\Generated_Source\PSoC4/isr_fifo_empty.c **** *
 179:.\Generated_Source\PSoC4/isr_fifo_empty.c **** * Return:
 180:.\Generated_Source\PSoC4/isr_fifo_empty.c **** *   Address of the ISR in the interrupt vector table.
 181:.\Generated_Source\PSoC4/isr_fifo_empty.c **** *
 182:.\Generated_Source\PSoC4/isr_fifo_empty.c **** *******************************************************************************/
 183:.\Generated_Source\PSoC4/isr_fifo_empty.c **** cyisraddress isr_fifo_empty_GetVector(void)
 184:.\Generated_Source\PSoC4/isr_fifo_empty.c **** {
 205              		.loc 1 184 0
 206              		.cfi_startproc
 207 0000 80B5     		push	{r7, lr}
 208              	.LCFI12:
 209              		.cfi_def_cfa_offset 8
 210              		.cfi_offset 7, -8
 211              		.cfi_offset 14, -4
 212 0002 00AF     		add	r7, sp, #0
 213              	.LCFI13:
 214              		.cfi_def_cfa_register 7
 185:.\Generated_Source\PSoC4/isr_fifo_empty.c ****     return CyRamVectors[CYINT_IRQ_BASE + isr_fifo_empty__INTC_NUMBER];
ARM GAS  C:\Users\TSUBAS~1\AppData\Local\Temp\cc3DtMM5.s 			page 8


 215              		.loc 1 185 0
 216 0004 024B     		ldr	r3, .L14
 217 0006 1B6C     		ldr	r3, [r3, #64]
 186:.\Generated_Source\PSoC4/isr_fifo_empty.c **** }
 218              		.loc 1 186 0
 219 0008 181C     		mov	r0, r3
 220 000a BD46     		mov	sp, r7
 221              		@ sp needed for prologue
 222 000c 80BD     		pop	{r7, pc}
 223              	.L15:
 224 000e C046     		.align	2
 225              	.L14:
 226 0010 00000000 		.word	CyRamVectors
 227              		.cfi_endproc
 228              	.LFE5:
 229              		.size	isr_fifo_empty_GetVector, .-isr_fifo_empty_GetVector
 230              		.section	.text.isr_fifo_empty_SetPriority,"ax",%progbits
 231              		.align	2
 232              		.global	isr_fifo_empty_SetPriority
 233              		.code	16
 234              		.thumb_func
 235              		.type	isr_fifo_empty_SetPriority, %function
 236              	isr_fifo_empty_SetPriority:
 237              	.LFB6:
 187:.\Generated_Source\PSoC4/isr_fifo_empty.c **** 
 188:.\Generated_Source\PSoC4/isr_fifo_empty.c **** 
 189:.\Generated_Source\PSoC4/isr_fifo_empty.c **** /*******************************************************************************
 190:.\Generated_Source\PSoC4/isr_fifo_empty.c **** * Function Name: isr_fifo_empty_SetPriority
 191:.\Generated_Source\PSoC4/isr_fifo_empty.c **** ********************************************************************************
 192:.\Generated_Source\PSoC4/isr_fifo_empty.c **** *
 193:.\Generated_Source\PSoC4/isr_fifo_empty.c **** * Summary:
 194:.\Generated_Source\PSoC4/isr_fifo_empty.c **** *   Sets the Priority of the Interrupt. Note calling isr_fifo_empty_Start
 195:.\Generated_Source\PSoC4/isr_fifo_empty.c **** *   or isr_fifo_empty_StartEx will override any effect this method would 
 196:.\Generated_Source\PSoC4/isr_fifo_empty.c **** *   have had. This method should only be called after isr_fifo_empty_Start or 
 197:.\Generated_Source\PSoC4/isr_fifo_empty.c **** *   isr_fifo_empty_StartEx has been called. To set the initial
 198:.\Generated_Source\PSoC4/isr_fifo_empty.c **** *   priority for the component use the cydwr file in the tool.
 199:.\Generated_Source\PSoC4/isr_fifo_empty.c **** *
 200:.\Generated_Source\PSoC4/isr_fifo_empty.c **** * Parameters:
 201:.\Generated_Source\PSoC4/isr_fifo_empty.c **** *   priority: Priority of the interrupt. 0 - 3, 0 being the highest.
 202:.\Generated_Source\PSoC4/isr_fifo_empty.c **** *
 203:.\Generated_Source\PSoC4/isr_fifo_empty.c **** * Return:
 204:.\Generated_Source\PSoC4/isr_fifo_empty.c **** *   None
 205:.\Generated_Source\PSoC4/isr_fifo_empty.c **** *
 206:.\Generated_Source\PSoC4/isr_fifo_empty.c **** *******************************************************************************/
 207:.\Generated_Source\PSoC4/isr_fifo_empty.c **** void isr_fifo_empty_SetPriority(uint8 priority)
 208:.\Generated_Source\PSoC4/isr_fifo_empty.c **** {
 238              		.loc 1 208 0
 239              		.cfi_startproc
 240 0000 90B5     		push	{r4, r7, lr}
 241              	.LCFI14:
 242              		.cfi_def_cfa_offset 12
 243              		.cfi_offset 4, -12
 244              		.cfi_offset 7, -8
 245              		.cfi_offset 14, -4
 246 0002 85B0     		sub	sp, sp, #20
 247              	.LCFI15:
 248              		.cfi_def_cfa_offset 32
ARM GAS  C:\Users\TSUBAS~1\AppData\Local\Temp\cc3DtMM5.s 			page 9


 249 0004 00AF     		add	r7, sp, #0
 250              	.LCFI16:
 251              		.cfi_def_cfa_register 7
 252 0006 021C     		mov	r2, r0
 253 0008 FB1D     		add	r3, r7, #7
 254 000a 1A70     		strb	r2, [r3]
 209:.\Generated_Source\PSoC4/isr_fifo_empty.c **** 	uint8 interruptState;
 210:.\Generated_Source\PSoC4/isr_fifo_empty.c ****     uint32 priorityOffset = ((isr_fifo_empty__INTC_NUMBER % 4u) * 8u) + 6u;
 255              		.loc 1 210 0
 256 000c 0623     		mov	r3, #6
 257 000e FB60     		str	r3, [r7, #12]
 211:.\Generated_Source\PSoC4/isr_fifo_empty.c ****     
 212:.\Generated_Source\PSoC4/isr_fifo_empty.c **** 	interruptState = CyEnterCriticalSection();
 258              		.loc 1 212 0
 259 0010 3C1C     		mov	r4, r7
 260 0012 0B34     		add	r4, r4, #11
 261 0014 FFF7FEFF 		bl	CyEnterCriticalSection
 262 0018 031C     		mov	r3, r0
 263 001a 2370     		strb	r3, [r4]
 213:.\Generated_Source\PSoC4/isr_fifo_empty.c ****     *isr_fifo_empty_INTC_PRIOR = (*isr_fifo_empty_INTC_PRIOR & (uint32)(~isr_fifo_empty__INTC_PRIOR
 264              		.loc 1 213 0
 265 001c 0B4B     		ldr	r3, .L17
 266 001e 0B4A     		ldr	r2, .L17
 267 0020 1268     		ldr	r2, [r2]
 268 0022 C021     		mov	r1, #192
 269 0024 101C     		mov	r0, r2
 270 0026 8843     		bic	r0, r1
 271 0028 011C     		mov	r1, r0
 214:.\Generated_Source\PSoC4/isr_fifo_empty.c ****                                     ((uint32)priority << priorityOffset);
 272              		.loc 1 214 0
 273 002a FA1D     		add	r2, r7, #7
 274 002c 1078     		ldrb	r0, [r2]
 275 002e FA68     		ldr	r2, [r7, #12]
 276 0030 041C     		mov	r4, r0
 277 0032 9440     		lsl	r4, r4, r2
 278 0034 221C     		mov	r2, r4
 213:.\Generated_Source\PSoC4/isr_fifo_empty.c ****     *isr_fifo_empty_INTC_PRIOR = (*isr_fifo_empty_INTC_PRIOR & (uint32)(~isr_fifo_empty__INTC_PRIOR
 279              		.loc 1 213 0
 280 0036 0A43     		orr	r2, r1
 281 0038 1A60     		str	r2, [r3]
 215:.\Generated_Source\PSoC4/isr_fifo_empty.c **** 	CyExitCriticalSection(interruptState);
 282              		.loc 1 215 0
 283 003a 3B1C     		mov	r3, r7
 284 003c 0B33     		add	r3, r3, #11
 285 003e 1B78     		ldrb	r3, [r3]
 286 0040 181C     		mov	r0, r3
 287 0042 FFF7FEFF 		bl	CyExitCriticalSection
 216:.\Generated_Source\PSoC4/isr_fifo_empty.c **** }
 288              		.loc 1 216 0
 289 0046 BD46     		mov	sp, r7
 290 0048 05B0     		add	sp, sp, #20
 291              		@ sp needed for prologue
 292 004a 90BD     		pop	{r4, r7, pc}
 293              	.L18:
 294              		.align	2
 295              	.L17:
 296 004c 00E400E0 		.word	-536812544
ARM GAS  C:\Users\TSUBAS~1\AppData\Local\Temp\cc3DtMM5.s 			page 10


 297              		.cfi_endproc
 298              	.LFE6:
 299              		.size	isr_fifo_empty_SetPriority, .-isr_fifo_empty_SetPriority
 300              		.section	.text.isr_fifo_empty_GetPriority,"ax",%progbits
 301              		.align	2
 302              		.global	isr_fifo_empty_GetPriority
 303              		.code	16
 304              		.thumb_func
 305              		.type	isr_fifo_empty_GetPriority, %function
 306              	isr_fifo_empty_GetPriority:
 307              	.LFB7:
 217:.\Generated_Source\PSoC4/isr_fifo_empty.c **** 
 218:.\Generated_Source\PSoC4/isr_fifo_empty.c **** 
 219:.\Generated_Source\PSoC4/isr_fifo_empty.c **** /*******************************************************************************
 220:.\Generated_Source\PSoC4/isr_fifo_empty.c **** * Function Name: isr_fifo_empty_GetPriority
 221:.\Generated_Source\PSoC4/isr_fifo_empty.c **** ********************************************************************************
 222:.\Generated_Source\PSoC4/isr_fifo_empty.c **** *
 223:.\Generated_Source\PSoC4/isr_fifo_empty.c **** * Summary:
 224:.\Generated_Source\PSoC4/isr_fifo_empty.c **** *   Gets the Priority of the Interrupt.
 225:.\Generated_Source\PSoC4/isr_fifo_empty.c **** *
 226:.\Generated_Source\PSoC4/isr_fifo_empty.c **** * Parameters:
 227:.\Generated_Source\PSoC4/isr_fifo_empty.c **** *   None
 228:.\Generated_Source\PSoC4/isr_fifo_empty.c **** *
 229:.\Generated_Source\PSoC4/isr_fifo_empty.c **** * Return:
 230:.\Generated_Source\PSoC4/isr_fifo_empty.c **** *   Priority of the interrupt. 0 - 3, 0 being the highest.
 231:.\Generated_Source\PSoC4/isr_fifo_empty.c **** *
 232:.\Generated_Source\PSoC4/isr_fifo_empty.c **** *******************************************************************************/
 233:.\Generated_Source\PSoC4/isr_fifo_empty.c **** uint8 isr_fifo_empty_GetPriority(void)
 234:.\Generated_Source\PSoC4/isr_fifo_empty.c **** {
 308              		.loc 1 234 0
 309              		.cfi_startproc
 310 0000 80B5     		push	{r7, lr}
 311              	.LCFI17:
 312              		.cfi_def_cfa_offset 8
 313              		.cfi_offset 7, -8
 314              		.cfi_offset 14, -4
 315 0002 82B0     		sub	sp, sp, #8
 316              	.LCFI18:
 317              		.cfi_def_cfa_offset 16
 318 0004 00AF     		add	r7, sp, #0
 319              	.LCFI19:
 320              		.cfi_def_cfa_register 7
 235:.\Generated_Source\PSoC4/isr_fifo_empty.c ****     uint32 priority;
 236:.\Generated_Source\PSoC4/isr_fifo_empty.c **** 	uint32 priorityOffset = ((isr_fifo_empty__INTC_NUMBER % 4u) * 8u) + 6u;
 321              		.loc 1 236 0
 322 0006 0623     		mov	r3, #6
 323 0008 7B60     		str	r3, [r7, #4]
 237:.\Generated_Source\PSoC4/isr_fifo_empty.c **** 
 238:.\Generated_Source\PSoC4/isr_fifo_empty.c ****     priority = (*isr_fifo_empty_INTC_PRIOR & isr_fifo_empty__INTC_PRIOR_MASK) >> priorityOffset;
 324              		.loc 1 238 0
 325 000a 074B     		ldr	r3, .L21
 326 000c 1A68     		ldr	r2, [r3]
 327 000e C023     		mov	r3, #192
 328 0010 1A40     		and	r2, r3
 329 0012 7B68     		ldr	r3, [r7, #4]
 330 0014 111C     		mov	r1, r2
 331 0016 D940     		lsr	r1, r1, r3
ARM GAS  C:\Users\TSUBAS~1\AppData\Local\Temp\cc3DtMM5.s 			page 11


 332 0018 0B1C     		mov	r3, r1
 333 001a 3B60     		str	r3, [r7]
 239:.\Generated_Source\PSoC4/isr_fifo_empty.c **** 
 240:.\Generated_Source\PSoC4/isr_fifo_empty.c ****     return (uint8)priority;
 334              		.loc 1 240 0
 335 001c 3B68     		ldr	r3, [r7]
 336 001e DBB2     		uxtb	r3, r3
 241:.\Generated_Source\PSoC4/isr_fifo_empty.c **** }
 337              		.loc 1 241 0
 338 0020 181C     		mov	r0, r3
 339 0022 BD46     		mov	sp, r7
 340 0024 02B0     		add	sp, sp, #8
 341              		@ sp needed for prologue
 342 0026 80BD     		pop	{r7, pc}
 343              	.L22:
 344              		.align	2
 345              	.L21:
 346 0028 00E400E0 		.word	-536812544
 347              		.cfi_endproc
 348              	.LFE7:
 349              		.size	isr_fifo_empty_GetPriority, .-isr_fifo_empty_GetPriority
 350              		.section	.text.isr_fifo_empty_Enable,"ax",%progbits
 351              		.align	2
 352              		.global	isr_fifo_empty_Enable
 353              		.code	16
 354              		.thumb_func
 355              		.type	isr_fifo_empty_Enable, %function
 356              	isr_fifo_empty_Enable:
 357              	.LFB8:
 242:.\Generated_Source\PSoC4/isr_fifo_empty.c **** 
 243:.\Generated_Source\PSoC4/isr_fifo_empty.c **** 
 244:.\Generated_Source\PSoC4/isr_fifo_empty.c **** /*******************************************************************************
 245:.\Generated_Source\PSoC4/isr_fifo_empty.c **** * Function Name: isr_fifo_empty_Enable
 246:.\Generated_Source\PSoC4/isr_fifo_empty.c **** ********************************************************************************
 247:.\Generated_Source\PSoC4/isr_fifo_empty.c **** *
 248:.\Generated_Source\PSoC4/isr_fifo_empty.c **** * Summary:
 249:.\Generated_Source\PSoC4/isr_fifo_empty.c **** *   Enables the interrupt.
 250:.\Generated_Source\PSoC4/isr_fifo_empty.c **** *
 251:.\Generated_Source\PSoC4/isr_fifo_empty.c **** * Parameters:
 252:.\Generated_Source\PSoC4/isr_fifo_empty.c **** *   None
 253:.\Generated_Source\PSoC4/isr_fifo_empty.c **** *
 254:.\Generated_Source\PSoC4/isr_fifo_empty.c **** * Return:
 255:.\Generated_Source\PSoC4/isr_fifo_empty.c **** *   None
 256:.\Generated_Source\PSoC4/isr_fifo_empty.c **** *
 257:.\Generated_Source\PSoC4/isr_fifo_empty.c **** *******************************************************************************/
 258:.\Generated_Source\PSoC4/isr_fifo_empty.c **** void isr_fifo_empty_Enable(void)
 259:.\Generated_Source\PSoC4/isr_fifo_empty.c **** {
 358              		.loc 1 259 0
 359              		.cfi_startproc
 360 0000 80B5     		push	{r7, lr}
 361              	.LCFI20:
 362              		.cfi_def_cfa_offset 8
 363              		.cfi_offset 7, -8
 364              		.cfi_offset 14, -4
 365 0002 00AF     		add	r7, sp, #0
 366              	.LCFI21:
 367              		.cfi_def_cfa_register 7
ARM GAS  C:\Users\TSUBAS~1\AppData\Local\Temp\cc3DtMM5.s 			page 12


 260:.\Generated_Source\PSoC4/isr_fifo_empty.c ****     /* Enable the general interrupt. */
 261:.\Generated_Source\PSoC4/isr_fifo_empty.c ****     *isr_fifo_empty_INTC_SET_EN = isr_fifo_empty__INTC_MASK;
 368              		.loc 1 261 0
 369 0004 024B     		ldr	r3, .L24
 370 0006 0122     		mov	r2, #1
 371 0008 1A60     		str	r2, [r3]
 262:.\Generated_Source\PSoC4/isr_fifo_empty.c **** }
 372              		.loc 1 262 0
 373 000a BD46     		mov	sp, r7
 374              		@ sp needed for prologue
 375 000c 80BD     		pop	{r7, pc}
 376              	.L25:
 377 000e C046     		.align	2
 378              	.L24:
 379 0010 00E100E0 		.word	-536813312
 380              		.cfi_endproc
 381              	.LFE8:
 382              		.size	isr_fifo_empty_Enable, .-isr_fifo_empty_Enable
 383              		.section	.text.isr_fifo_empty_GetState,"ax",%progbits
 384              		.align	2
 385              		.global	isr_fifo_empty_GetState
 386              		.code	16
 387              		.thumb_func
 388              		.type	isr_fifo_empty_GetState, %function
 389              	isr_fifo_empty_GetState:
 390              	.LFB9:
 263:.\Generated_Source\PSoC4/isr_fifo_empty.c **** 
 264:.\Generated_Source\PSoC4/isr_fifo_empty.c **** 
 265:.\Generated_Source\PSoC4/isr_fifo_empty.c **** /*******************************************************************************
 266:.\Generated_Source\PSoC4/isr_fifo_empty.c **** * Function Name: isr_fifo_empty_GetState
 267:.\Generated_Source\PSoC4/isr_fifo_empty.c **** ********************************************************************************
 268:.\Generated_Source\PSoC4/isr_fifo_empty.c **** *
 269:.\Generated_Source\PSoC4/isr_fifo_empty.c **** * Summary:
 270:.\Generated_Source\PSoC4/isr_fifo_empty.c **** *   Gets the state (enabled, disabled) of the Interrupt.
 271:.\Generated_Source\PSoC4/isr_fifo_empty.c **** *
 272:.\Generated_Source\PSoC4/isr_fifo_empty.c **** * Parameters:
 273:.\Generated_Source\PSoC4/isr_fifo_empty.c **** *   None
 274:.\Generated_Source\PSoC4/isr_fifo_empty.c **** *
 275:.\Generated_Source\PSoC4/isr_fifo_empty.c **** * Return:
 276:.\Generated_Source\PSoC4/isr_fifo_empty.c **** *   1 if enabled, 0 if disabled.
 277:.\Generated_Source\PSoC4/isr_fifo_empty.c **** *
 278:.\Generated_Source\PSoC4/isr_fifo_empty.c **** *******************************************************************************/
 279:.\Generated_Source\PSoC4/isr_fifo_empty.c **** uint8 isr_fifo_empty_GetState(void)
 280:.\Generated_Source\PSoC4/isr_fifo_empty.c **** {
 391              		.loc 1 280 0
 392              		.cfi_startproc
 393 0000 80B5     		push	{r7, lr}
 394              	.LCFI22:
 395              		.cfi_def_cfa_offset 8
 396              		.cfi_offset 7, -8
 397              		.cfi_offset 14, -4
 398 0002 00AF     		add	r7, sp, #0
 399              	.LCFI23:
 400              		.cfi_def_cfa_register 7
 281:.\Generated_Source\PSoC4/isr_fifo_empty.c ****     /* Get the state of the general interrupt. */
 282:.\Generated_Source\PSoC4/isr_fifo_empty.c ****     return ((*isr_fifo_empty_INTC_SET_EN & (uint32)isr_fifo_empty__INTC_MASK) != 0u) ? 1u:0u;
 401              		.loc 1 282 0
ARM GAS  C:\Users\TSUBAS~1\AppData\Local\Temp\cc3DtMM5.s 			page 13


 402 0004 044B     		ldr	r3, .L28
 403 0006 1B68     		ldr	r3, [r3]
 404 0008 DAB2     		uxtb	r2, r3
 405 000a 0123     		mov	r3, #1
 406 000c 1340     		and	r3, r2
 407 000e DBB2     		uxtb	r3, r3
 283:.\Generated_Source\PSoC4/isr_fifo_empty.c **** }
 408              		.loc 1 283 0
 409 0010 181C     		mov	r0, r3
 410 0012 BD46     		mov	sp, r7
 411              		@ sp needed for prologue
 412 0014 80BD     		pop	{r7, pc}
 413              	.L29:
 414 0016 C046     		.align	2
 415              	.L28:
 416 0018 00E100E0 		.word	-536813312
 417              		.cfi_endproc
 418              	.LFE9:
 419              		.size	isr_fifo_empty_GetState, .-isr_fifo_empty_GetState
 420              		.section	.text.isr_fifo_empty_Disable,"ax",%progbits
 421              		.align	2
 422              		.global	isr_fifo_empty_Disable
 423              		.code	16
 424              		.thumb_func
 425              		.type	isr_fifo_empty_Disable, %function
 426              	isr_fifo_empty_Disable:
 427              	.LFB10:
 284:.\Generated_Source\PSoC4/isr_fifo_empty.c **** 
 285:.\Generated_Source\PSoC4/isr_fifo_empty.c **** 
 286:.\Generated_Source\PSoC4/isr_fifo_empty.c **** /*******************************************************************************
 287:.\Generated_Source\PSoC4/isr_fifo_empty.c **** * Function Name: isr_fifo_empty_Disable
 288:.\Generated_Source\PSoC4/isr_fifo_empty.c **** ********************************************************************************
 289:.\Generated_Source\PSoC4/isr_fifo_empty.c **** *
 290:.\Generated_Source\PSoC4/isr_fifo_empty.c **** * Summary:
 291:.\Generated_Source\PSoC4/isr_fifo_empty.c **** *   Disables the Interrupt.
 292:.\Generated_Source\PSoC4/isr_fifo_empty.c **** *
 293:.\Generated_Source\PSoC4/isr_fifo_empty.c **** * Parameters:
 294:.\Generated_Source\PSoC4/isr_fifo_empty.c **** *   None
 295:.\Generated_Source\PSoC4/isr_fifo_empty.c **** *
 296:.\Generated_Source\PSoC4/isr_fifo_empty.c **** * Return:
 297:.\Generated_Source\PSoC4/isr_fifo_empty.c **** *   None
 298:.\Generated_Source\PSoC4/isr_fifo_empty.c **** *
 299:.\Generated_Source\PSoC4/isr_fifo_empty.c **** *******************************************************************************/
 300:.\Generated_Source\PSoC4/isr_fifo_empty.c **** void isr_fifo_empty_Disable(void)
 301:.\Generated_Source\PSoC4/isr_fifo_empty.c **** {
 428              		.loc 1 301 0
 429              		.cfi_startproc
 430 0000 80B5     		push	{r7, lr}
 431              	.LCFI24:
 432              		.cfi_def_cfa_offset 8
 433              		.cfi_offset 7, -8
 434              		.cfi_offset 14, -4
 435 0002 00AF     		add	r7, sp, #0
 436              	.LCFI25:
 437              		.cfi_def_cfa_register 7
 302:.\Generated_Source\PSoC4/isr_fifo_empty.c ****     /* Disable the general interrupt. */
 303:.\Generated_Source\PSoC4/isr_fifo_empty.c ****     *isr_fifo_empty_INTC_CLR_EN = isr_fifo_empty__INTC_MASK;
ARM GAS  C:\Users\TSUBAS~1\AppData\Local\Temp\cc3DtMM5.s 			page 14


 438              		.loc 1 303 0
 439 0004 024B     		ldr	r3, .L31
 440 0006 0122     		mov	r2, #1
 441 0008 1A60     		str	r2, [r3]
 304:.\Generated_Source\PSoC4/isr_fifo_empty.c **** }
 442              		.loc 1 304 0
 443 000a BD46     		mov	sp, r7
 444              		@ sp needed for prologue
 445 000c 80BD     		pop	{r7, pc}
 446              	.L32:
 447 000e C046     		.align	2
 448              	.L31:
 449 0010 80E100E0 		.word	-536813184
 450              		.cfi_endproc
 451              	.LFE10:
 452              		.size	isr_fifo_empty_Disable, .-isr_fifo_empty_Disable
 453              		.section	.text.isr_fifo_empty_SetPending,"ax",%progbits
 454              		.align	2
 455              		.global	isr_fifo_empty_SetPending
 456              		.code	16
 457              		.thumb_func
 458              		.type	isr_fifo_empty_SetPending, %function
 459              	isr_fifo_empty_SetPending:
 460              	.LFB11:
 305:.\Generated_Source\PSoC4/isr_fifo_empty.c **** 
 306:.\Generated_Source\PSoC4/isr_fifo_empty.c **** 
 307:.\Generated_Source\PSoC4/isr_fifo_empty.c **** /*******************************************************************************
 308:.\Generated_Source\PSoC4/isr_fifo_empty.c **** * Function Name: isr_fifo_empty_SetPending
 309:.\Generated_Source\PSoC4/isr_fifo_empty.c **** ********************************************************************************
 310:.\Generated_Source\PSoC4/isr_fifo_empty.c **** *
 311:.\Generated_Source\PSoC4/isr_fifo_empty.c **** * Summary:
 312:.\Generated_Source\PSoC4/isr_fifo_empty.c **** *   Causes the Interrupt to enter the pending state, a software method of
 313:.\Generated_Source\PSoC4/isr_fifo_empty.c **** *   generating the interrupt.
 314:.\Generated_Source\PSoC4/isr_fifo_empty.c **** *
 315:.\Generated_Source\PSoC4/isr_fifo_empty.c **** * Parameters:
 316:.\Generated_Source\PSoC4/isr_fifo_empty.c **** *   None
 317:.\Generated_Source\PSoC4/isr_fifo_empty.c **** *
 318:.\Generated_Source\PSoC4/isr_fifo_empty.c **** * Return:
 319:.\Generated_Source\PSoC4/isr_fifo_empty.c **** *   None
 320:.\Generated_Source\PSoC4/isr_fifo_empty.c **** *
 321:.\Generated_Source\PSoC4/isr_fifo_empty.c **** *******************************************************************************/
 322:.\Generated_Source\PSoC4/isr_fifo_empty.c **** void isr_fifo_empty_SetPending(void)
 323:.\Generated_Source\PSoC4/isr_fifo_empty.c **** {
 461              		.loc 1 323 0
 462              		.cfi_startproc
 463 0000 80B5     		push	{r7, lr}
 464              	.LCFI26:
 465              		.cfi_def_cfa_offset 8
 466              		.cfi_offset 7, -8
 467              		.cfi_offset 14, -4
 468 0002 00AF     		add	r7, sp, #0
 469              	.LCFI27:
 470              		.cfi_def_cfa_register 7
 324:.\Generated_Source\PSoC4/isr_fifo_empty.c ****     *isr_fifo_empty_INTC_SET_PD = isr_fifo_empty__INTC_MASK;
 471              		.loc 1 324 0
 472 0004 024B     		ldr	r3, .L34
 473 0006 0122     		mov	r2, #1
ARM GAS  C:\Users\TSUBAS~1\AppData\Local\Temp\cc3DtMM5.s 			page 15


 474 0008 1A60     		str	r2, [r3]
 325:.\Generated_Source\PSoC4/isr_fifo_empty.c **** }
 475              		.loc 1 325 0
 476 000a BD46     		mov	sp, r7
 477              		@ sp needed for prologue
 478 000c 80BD     		pop	{r7, pc}
 479              	.L35:
 480 000e C046     		.align	2
 481              	.L34:
 482 0010 00E200E0 		.word	-536813056
 483              		.cfi_endproc
 484              	.LFE11:
 485              		.size	isr_fifo_empty_SetPending, .-isr_fifo_empty_SetPending
 486              		.section	.text.isr_fifo_empty_ClearPending,"ax",%progbits
 487              		.align	2
 488              		.global	isr_fifo_empty_ClearPending
 489              		.code	16
 490              		.thumb_func
 491              		.type	isr_fifo_empty_ClearPending, %function
 492              	isr_fifo_empty_ClearPending:
 493              	.LFB12:
 326:.\Generated_Source\PSoC4/isr_fifo_empty.c **** 
 327:.\Generated_Source\PSoC4/isr_fifo_empty.c **** 
 328:.\Generated_Source\PSoC4/isr_fifo_empty.c **** /*******************************************************************************
 329:.\Generated_Source\PSoC4/isr_fifo_empty.c **** * Function Name: isr_fifo_empty_ClearPending
 330:.\Generated_Source\PSoC4/isr_fifo_empty.c **** ********************************************************************************
 331:.\Generated_Source\PSoC4/isr_fifo_empty.c **** *
 332:.\Generated_Source\PSoC4/isr_fifo_empty.c **** * Summary:
 333:.\Generated_Source\PSoC4/isr_fifo_empty.c **** *   Clears a pending interrupt.
 334:.\Generated_Source\PSoC4/isr_fifo_empty.c **** *
 335:.\Generated_Source\PSoC4/isr_fifo_empty.c **** * Parameters:
 336:.\Generated_Source\PSoC4/isr_fifo_empty.c **** *   None
 337:.\Generated_Source\PSoC4/isr_fifo_empty.c **** *
 338:.\Generated_Source\PSoC4/isr_fifo_empty.c **** * Return:
 339:.\Generated_Source\PSoC4/isr_fifo_empty.c **** *   None
 340:.\Generated_Source\PSoC4/isr_fifo_empty.c **** *
 341:.\Generated_Source\PSoC4/isr_fifo_empty.c **** *******************************************************************************/
 342:.\Generated_Source\PSoC4/isr_fifo_empty.c **** void isr_fifo_empty_ClearPending(void)
 343:.\Generated_Source\PSoC4/isr_fifo_empty.c **** {
 494              		.loc 1 343 0
 495              		.cfi_startproc
 496 0000 80B5     		push	{r7, lr}
 497              	.LCFI28:
 498              		.cfi_def_cfa_offset 8
 499              		.cfi_offset 7, -8
 500              		.cfi_offset 14, -4
 501 0002 00AF     		add	r7, sp, #0
 502              	.LCFI29:
 503              		.cfi_def_cfa_register 7
 344:.\Generated_Source\PSoC4/isr_fifo_empty.c ****     *isr_fifo_empty_INTC_CLR_PD = isr_fifo_empty__INTC_MASK;
 504              		.loc 1 344 0
 505 0004 024B     		ldr	r3, .L37
 506 0006 0122     		mov	r2, #1
 507 0008 1A60     		str	r2, [r3]
 345:.\Generated_Source\PSoC4/isr_fifo_empty.c **** }
 508              		.loc 1 345 0
 509 000a BD46     		mov	sp, r7
ARM GAS  C:\Users\TSUBAS~1\AppData\Local\Temp\cc3DtMM5.s 			page 16


 510              		@ sp needed for prologue
 511 000c 80BD     		pop	{r7, pc}
 512              	.L38:
 513 000e C046     		.align	2
 514              	.L37:
 515 0010 80E200E0 		.word	-536812928
 516              		.cfi_endproc
 517              	.LFE12:
 518              		.size	isr_fifo_empty_ClearPending, .-isr_fifo_empty_ClearPending
 519              		.text
 520              	.Letext0:
 521              		.file 2 "./Generated_Source/PSoC4/cytypes.h"