ARM GAS  C:\Users\TSUBAS~1\AppData\Local\Temp\ccNzva3j.s 			page 1


   1              		.cpu cortex-m0
   2              		.fpu softvfp
   3              		.eabi_attribute 20, 1
   4              		.eabi_attribute 21, 1
   5              		.eabi_attribute 23, 3
   6              		.eabi_attribute 24, 1
   7              		.eabi_attribute 25, 1
   8              		.eabi_attribute 26, 1
   9              		.eabi_attribute 30, 6
  10              		.eabi_attribute 34, 0
  11              		.eabi_attribute 18, 4
  12              		.code	16
  13              		.file	"isr_reset_done.c"
  14              		.text
  15              	.Ltext0:
  16              		.cfi_sections	.debug_frame
  17              		.section	.text.isr_reset_done_Start,"ax",%progbits
  18              		.align	2
  19              		.global	isr_reset_done_Start
  20              		.code	16
  21              		.thumb_func
  22              		.type	isr_reset_done_Start, %function
  23              	isr_reset_done_Start:
  24              	.LFB0:
  25              		.file 1 ".\\Generated_Source\\PSoC4\\isr_reset_done.c"
   1:.\Generated_Source\PSoC4/isr_reset_done.c **** /*******************************************************************************
   2:.\Generated_Source\PSoC4/isr_reset_done.c **** * File Name: isr_reset_done.c  
   3:.\Generated_Source\PSoC4/isr_reset_done.c **** * Version 1.70
   4:.\Generated_Source\PSoC4/isr_reset_done.c **** *
   5:.\Generated_Source\PSoC4/isr_reset_done.c **** *  Description:
   6:.\Generated_Source\PSoC4/isr_reset_done.c **** *   API for controlling the state of an interrupt.
   7:.\Generated_Source\PSoC4/isr_reset_done.c **** *
   8:.\Generated_Source\PSoC4/isr_reset_done.c **** *
   9:.\Generated_Source\PSoC4/isr_reset_done.c **** *  Note:
  10:.\Generated_Source\PSoC4/isr_reset_done.c **** *
  11:.\Generated_Source\PSoC4/isr_reset_done.c **** ********************************************************************************
  12:.\Generated_Source\PSoC4/isr_reset_done.c **** * Copyright 2008-2012, Cypress Semiconductor Corporation.  All rights reserved.
  13:.\Generated_Source\PSoC4/isr_reset_done.c **** * You may use this file only in accordance with the license, terms, conditions, 
  14:.\Generated_Source\PSoC4/isr_reset_done.c **** * disclaimers, and limitations in the end user license agreement accompanying 
  15:.\Generated_Source\PSoC4/isr_reset_done.c **** * the software package with which this file was provided.
  16:.\Generated_Source\PSoC4/isr_reset_done.c **** *******************************************************************************/
  17:.\Generated_Source\PSoC4/isr_reset_done.c **** 
  18:.\Generated_Source\PSoC4/isr_reset_done.c **** 
  19:.\Generated_Source\PSoC4/isr_reset_done.c **** #include <cydevice_trm.h>
  20:.\Generated_Source\PSoC4/isr_reset_done.c **** #include <CyLib.h>
  21:.\Generated_Source\PSoC4/isr_reset_done.c **** #include <isr_reset_done.h>
  22:.\Generated_Source\PSoC4/isr_reset_done.c **** 
  23:.\Generated_Source\PSoC4/isr_reset_done.c **** #if !defined(isr_reset_done__REMOVED) /* Check for removal by optimization */
  24:.\Generated_Source\PSoC4/isr_reset_done.c **** 
  25:.\Generated_Source\PSoC4/isr_reset_done.c **** /*******************************************************************************
  26:.\Generated_Source\PSoC4/isr_reset_done.c **** *  Place your includes, defines and code here 
  27:.\Generated_Source\PSoC4/isr_reset_done.c **** ********************************************************************************/
  28:.\Generated_Source\PSoC4/isr_reset_done.c **** /* `#START isr_reset_done_intc` */
  29:.\Generated_Source\PSoC4/isr_reset_done.c **** 
  30:.\Generated_Source\PSoC4/isr_reset_done.c **** /* `#END` */
  31:.\Generated_Source\PSoC4/isr_reset_done.c **** 
  32:.\Generated_Source\PSoC4/isr_reset_done.c **** extern cyisraddress CyRamVectors[CYINT_IRQ_BASE + CY_NUM_INTERRUPTS];
ARM GAS  C:\Users\TSUBAS~1\AppData\Local\Temp\ccNzva3j.s 			page 2


  33:.\Generated_Source\PSoC4/isr_reset_done.c **** 
  34:.\Generated_Source\PSoC4/isr_reset_done.c **** /* Declared in startup, used to set unused interrupts to. */
  35:.\Generated_Source\PSoC4/isr_reset_done.c **** CY_ISR_PROTO(IntDefaultHandler);
  36:.\Generated_Source\PSoC4/isr_reset_done.c **** 
  37:.\Generated_Source\PSoC4/isr_reset_done.c **** 
  38:.\Generated_Source\PSoC4/isr_reset_done.c **** /*******************************************************************************
  39:.\Generated_Source\PSoC4/isr_reset_done.c **** * Function Name: isr_reset_done_Start
  40:.\Generated_Source\PSoC4/isr_reset_done.c **** ********************************************************************************
  41:.\Generated_Source\PSoC4/isr_reset_done.c **** *
  42:.\Generated_Source\PSoC4/isr_reset_done.c **** * Summary:
  43:.\Generated_Source\PSoC4/isr_reset_done.c **** *  Set up the interrupt and enable it.
  44:.\Generated_Source\PSoC4/isr_reset_done.c **** *
  45:.\Generated_Source\PSoC4/isr_reset_done.c **** * Parameters:  
  46:.\Generated_Source\PSoC4/isr_reset_done.c **** *   None
  47:.\Generated_Source\PSoC4/isr_reset_done.c **** *
  48:.\Generated_Source\PSoC4/isr_reset_done.c **** * Return:
  49:.\Generated_Source\PSoC4/isr_reset_done.c **** *   None
  50:.\Generated_Source\PSoC4/isr_reset_done.c **** *
  51:.\Generated_Source\PSoC4/isr_reset_done.c **** *******************************************************************************/
  52:.\Generated_Source\PSoC4/isr_reset_done.c **** void isr_reset_done_Start(void)
  53:.\Generated_Source\PSoC4/isr_reset_done.c **** {
  26              		.loc 1 53 0
  27              		.cfi_startproc
  28 0000 80B5     		push	{r7, lr}
  29              	.LCFI0:
  30              		.cfi_def_cfa_offset 8
  31              		.cfi_offset 7, -8
  32              		.cfi_offset 14, -4
  33 0002 00AF     		add	r7, sp, #0
  34              	.LCFI1:
  35              		.cfi_def_cfa_register 7
  54:.\Generated_Source\PSoC4/isr_reset_done.c ****     /* For all we know the interrupt is active. */
  55:.\Generated_Source\PSoC4/isr_reset_done.c ****     isr_reset_done_Disable();
  36              		.loc 1 55 0
  37 0004 FFF7FEFF 		bl	isr_reset_done_Disable
  56:.\Generated_Source\PSoC4/isr_reset_done.c **** 
  57:.\Generated_Source\PSoC4/isr_reset_done.c ****     /* Set the ISR to point to the isr_reset_done Interrupt. */
  58:.\Generated_Source\PSoC4/isr_reset_done.c ****     isr_reset_done_SetVector(&isr_reset_done_Interrupt);
  38              		.loc 1 58 0
  39 0008 054B     		ldr	r3, .L2
  40 000a 181C     		mov	r0, r3
  41 000c FFF7FEFF 		bl	isr_reset_done_SetVector
  59:.\Generated_Source\PSoC4/isr_reset_done.c **** 
  60:.\Generated_Source\PSoC4/isr_reset_done.c ****     /* Set the priority. */
  61:.\Generated_Source\PSoC4/isr_reset_done.c ****     isr_reset_done_SetPriority((uint8)isr_reset_done_INTC_PRIOR_NUMBER);
  42              		.loc 1 61 0
  43 0010 0320     		mov	r0, #3
  44 0012 FFF7FEFF 		bl	isr_reset_done_SetPriority
  62:.\Generated_Source\PSoC4/isr_reset_done.c **** 
  63:.\Generated_Source\PSoC4/isr_reset_done.c ****     /* Enable it. */
  64:.\Generated_Source\PSoC4/isr_reset_done.c ****     isr_reset_done_Enable();
  45              		.loc 1 64 0
  46 0016 FFF7FEFF 		bl	isr_reset_done_Enable
  65:.\Generated_Source\PSoC4/isr_reset_done.c **** }
  47              		.loc 1 65 0
  48 001a BD46     		mov	sp, r7
  49              		@ sp needed for prologue
ARM GAS  C:\Users\TSUBAS~1\AppData\Local\Temp\ccNzva3j.s 			page 3


  50 001c 80BD     		pop	{r7, pc}
  51              	.L3:
  52 001e C046     		.align	2
  53              	.L2:
  54 0020 00000000 		.word	isr_reset_done_Interrupt
  55              		.cfi_endproc
  56              	.LFE0:
  57              		.size	isr_reset_done_Start, .-isr_reset_done_Start
  58              		.section	.text.isr_reset_done_StartEx,"ax",%progbits
  59              		.align	2
  60              		.global	isr_reset_done_StartEx
  61              		.code	16
  62              		.thumb_func
  63              		.type	isr_reset_done_StartEx, %function
  64              	isr_reset_done_StartEx:
  65              	.LFB1:
  66:.\Generated_Source\PSoC4/isr_reset_done.c **** 
  67:.\Generated_Source\PSoC4/isr_reset_done.c **** 
  68:.\Generated_Source\PSoC4/isr_reset_done.c **** /*******************************************************************************
  69:.\Generated_Source\PSoC4/isr_reset_done.c **** * Function Name: isr_reset_done_StartEx
  70:.\Generated_Source\PSoC4/isr_reset_done.c **** ********************************************************************************
  71:.\Generated_Source\PSoC4/isr_reset_done.c **** *
  72:.\Generated_Source\PSoC4/isr_reset_done.c **** * Summary:
  73:.\Generated_Source\PSoC4/isr_reset_done.c **** *  Set up the interrupt and enable it.
  74:.\Generated_Source\PSoC4/isr_reset_done.c **** *
  75:.\Generated_Source\PSoC4/isr_reset_done.c **** * Parameters:  
  76:.\Generated_Source\PSoC4/isr_reset_done.c **** *   address: Address of the ISR to set in the interrupt vector table.
  77:.\Generated_Source\PSoC4/isr_reset_done.c **** *
  78:.\Generated_Source\PSoC4/isr_reset_done.c **** * Return:
  79:.\Generated_Source\PSoC4/isr_reset_done.c **** *   None
  80:.\Generated_Source\PSoC4/isr_reset_done.c **** *
  81:.\Generated_Source\PSoC4/isr_reset_done.c **** *******************************************************************************/
  82:.\Generated_Source\PSoC4/isr_reset_done.c **** void isr_reset_done_StartEx(cyisraddress address)
  83:.\Generated_Source\PSoC4/isr_reset_done.c **** {
  66              		.loc 1 83 0
  67              		.cfi_startproc
  68 0000 80B5     		push	{r7, lr}
  69              	.LCFI2:
  70              		.cfi_def_cfa_offset 8
  71              		.cfi_offset 7, -8
  72              		.cfi_offset 14, -4
  73 0002 82B0     		sub	sp, sp, #8
  74              	.LCFI3:
  75              		.cfi_def_cfa_offset 16
  76 0004 00AF     		add	r7, sp, #0
  77              	.LCFI4:
  78              		.cfi_def_cfa_register 7
  79 0006 7860     		str	r0, [r7, #4]
  84:.\Generated_Source\PSoC4/isr_reset_done.c ****     /* For all we know the interrupt is active. */
  85:.\Generated_Source\PSoC4/isr_reset_done.c ****     isr_reset_done_Disable();
  80              		.loc 1 85 0
  81 0008 FFF7FEFF 		bl	isr_reset_done_Disable
  86:.\Generated_Source\PSoC4/isr_reset_done.c **** 
  87:.\Generated_Source\PSoC4/isr_reset_done.c ****     /* Set the ISR to point to the isr_reset_done Interrupt. */
  88:.\Generated_Source\PSoC4/isr_reset_done.c ****     isr_reset_done_SetVector(address);
  82              		.loc 1 88 0
  83 000c 7B68     		ldr	r3, [r7, #4]
ARM GAS  C:\Users\TSUBAS~1\AppData\Local\Temp\ccNzva3j.s 			page 4


  84 000e 181C     		mov	r0, r3
  85 0010 FFF7FEFF 		bl	isr_reset_done_SetVector
  89:.\Generated_Source\PSoC4/isr_reset_done.c **** 
  90:.\Generated_Source\PSoC4/isr_reset_done.c ****     /* Set the priority. */
  91:.\Generated_Source\PSoC4/isr_reset_done.c ****     isr_reset_done_SetPriority((uint8)isr_reset_done_INTC_PRIOR_NUMBER);
  86              		.loc 1 91 0
  87 0014 0320     		mov	r0, #3
  88 0016 FFF7FEFF 		bl	isr_reset_done_SetPriority
  92:.\Generated_Source\PSoC4/isr_reset_done.c **** 
  93:.\Generated_Source\PSoC4/isr_reset_done.c ****     /* Enable it. */
  94:.\Generated_Source\PSoC4/isr_reset_done.c ****     isr_reset_done_Enable();
  89              		.loc 1 94 0
  90 001a FFF7FEFF 		bl	isr_reset_done_Enable
  95:.\Generated_Source\PSoC4/isr_reset_done.c **** }
  91              		.loc 1 95 0
  92 001e BD46     		mov	sp, r7
  93 0020 02B0     		add	sp, sp, #8
  94              		@ sp needed for prologue
  95 0022 80BD     		pop	{r7, pc}
  96              		.cfi_endproc
  97              	.LFE1:
  98              		.size	isr_reset_done_StartEx, .-isr_reset_done_StartEx
  99              		.section	.text.isr_reset_done_Stop,"ax",%progbits
 100              		.align	2
 101              		.global	isr_reset_done_Stop
 102              		.code	16
 103              		.thumb_func
 104              		.type	isr_reset_done_Stop, %function
 105              	isr_reset_done_Stop:
 106              	.LFB2:
  96:.\Generated_Source\PSoC4/isr_reset_done.c **** 
  97:.\Generated_Source\PSoC4/isr_reset_done.c **** 
  98:.\Generated_Source\PSoC4/isr_reset_done.c **** /*******************************************************************************
  99:.\Generated_Source\PSoC4/isr_reset_done.c **** * Function Name: isr_reset_done_Stop
 100:.\Generated_Source\PSoC4/isr_reset_done.c **** ********************************************************************************
 101:.\Generated_Source\PSoC4/isr_reset_done.c **** *
 102:.\Generated_Source\PSoC4/isr_reset_done.c **** * Summary:
 103:.\Generated_Source\PSoC4/isr_reset_done.c **** *   Disables and removes the interrupt.
 104:.\Generated_Source\PSoC4/isr_reset_done.c **** *
 105:.\Generated_Source\PSoC4/isr_reset_done.c **** * Parameters:  
 106:.\Generated_Source\PSoC4/isr_reset_done.c **** *
 107:.\Generated_Source\PSoC4/isr_reset_done.c **** * Return:
 108:.\Generated_Source\PSoC4/isr_reset_done.c **** *   None
 109:.\Generated_Source\PSoC4/isr_reset_done.c **** *
 110:.\Generated_Source\PSoC4/isr_reset_done.c **** *******************************************************************************/
 111:.\Generated_Source\PSoC4/isr_reset_done.c **** void isr_reset_done_Stop(void)
 112:.\Generated_Source\PSoC4/isr_reset_done.c **** {
 107              		.loc 1 112 0
 108              		.cfi_startproc
 109 0000 80B5     		push	{r7, lr}
 110              	.LCFI5:
 111              		.cfi_def_cfa_offset 8
 112              		.cfi_offset 7, -8
 113              		.cfi_offset 14, -4
 114 0002 00AF     		add	r7, sp, #0
 115              	.LCFI6:
 116              		.cfi_def_cfa_register 7
ARM GAS  C:\Users\TSUBAS~1\AppData\Local\Temp\ccNzva3j.s 			page 5


 113:.\Generated_Source\PSoC4/isr_reset_done.c ****     /* Disable this interrupt. */
 114:.\Generated_Source\PSoC4/isr_reset_done.c ****     isr_reset_done_Disable();
 117              		.loc 1 114 0
 118 0004 FFF7FEFF 		bl	isr_reset_done_Disable
 115:.\Generated_Source\PSoC4/isr_reset_done.c **** 
 116:.\Generated_Source\PSoC4/isr_reset_done.c ****     /* Set the ISR to point to the passive one. */
 117:.\Generated_Source\PSoC4/isr_reset_done.c ****     isr_reset_done_SetVector(&IntDefaultHandler);
 119              		.loc 1 117 0
 120 0008 024B     		ldr	r3, .L6
 121 000a 181C     		mov	r0, r3
 122 000c FFF7FEFF 		bl	isr_reset_done_SetVector
 118:.\Generated_Source\PSoC4/isr_reset_done.c **** }
 123              		.loc 1 118 0
 124 0010 BD46     		mov	sp, r7
 125              		@ sp needed for prologue
 126 0012 80BD     		pop	{r7, pc}
 127              	.L7:
 128              		.align	2
 129              	.L6:
 130 0014 00000000 		.word	IntDefaultHandler
 131              		.cfi_endproc
 132              	.LFE2:
 133              		.size	isr_reset_done_Stop, .-isr_reset_done_Stop
 134              		.section	.text.isr_reset_done_Interrupt,"ax",%progbits
 135              		.align	2
 136              		.global	isr_reset_done_Interrupt
 137              		.code	16
 138              		.thumb_func
 139              		.type	isr_reset_done_Interrupt, %function
 140              	isr_reset_done_Interrupt:
 141              	.LFB3:
 119:.\Generated_Source\PSoC4/isr_reset_done.c **** 
 120:.\Generated_Source\PSoC4/isr_reset_done.c **** 
 121:.\Generated_Source\PSoC4/isr_reset_done.c **** /*******************************************************************************
 122:.\Generated_Source\PSoC4/isr_reset_done.c **** * Function Name: isr_reset_done_Interrupt
 123:.\Generated_Source\PSoC4/isr_reset_done.c **** ********************************************************************************
 124:.\Generated_Source\PSoC4/isr_reset_done.c **** *
 125:.\Generated_Source\PSoC4/isr_reset_done.c **** * Summary:
 126:.\Generated_Source\PSoC4/isr_reset_done.c **** *   The default Interrupt Service Routine for isr_reset_done.
 127:.\Generated_Source\PSoC4/isr_reset_done.c **** *
 128:.\Generated_Source\PSoC4/isr_reset_done.c **** *   Add custom code between the coments to keep the next version of this file
 129:.\Generated_Source\PSoC4/isr_reset_done.c **** *   from over writting your code.
 130:.\Generated_Source\PSoC4/isr_reset_done.c **** *
 131:.\Generated_Source\PSoC4/isr_reset_done.c **** * Parameters:  
 132:.\Generated_Source\PSoC4/isr_reset_done.c **** *   None
 133:.\Generated_Source\PSoC4/isr_reset_done.c **** *
 134:.\Generated_Source\PSoC4/isr_reset_done.c **** * Return:
 135:.\Generated_Source\PSoC4/isr_reset_done.c **** *   None
 136:.\Generated_Source\PSoC4/isr_reset_done.c **** *
 137:.\Generated_Source\PSoC4/isr_reset_done.c **** *******************************************************************************/
 138:.\Generated_Source\PSoC4/isr_reset_done.c **** CY_ISR(isr_reset_done_Interrupt)
 139:.\Generated_Source\PSoC4/isr_reset_done.c **** {
 142              		.loc 1 139 0
 143              		.cfi_startproc
 144 0000 80B5     		push	{r7, lr}
 145              	.LCFI7:
 146              		.cfi_def_cfa_offset 8
ARM GAS  C:\Users\TSUBAS~1\AppData\Local\Temp\ccNzva3j.s 			page 6


 147              		.cfi_offset 7, -8
 148              		.cfi_offset 14, -4
 149 0002 00AF     		add	r7, sp, #0
 150              	.LCFI8:
 151              		.cfi_def_cfa_register 7
 140:.\Generated_Source\PSoC4/isr_reset_done.c ****     /*  Place your Interrupt code here. */
 141:.\Generated_Source\PSoC4/isr_reset_done.c ****     /* `#START isr_reset_done_Interrupt` */
 142:.\Generated_Source\PSoC4/isr_reset_done.c **** 
 143:.\Generated_Source\PSoC4/isr_reset_done.c ****     /* `#END` */
 144:.\Generated_Source\PSoC4/isr_reset_done.c **** }
 152              		.loc 1 144 0
 153 0004 BD46     		mov	sp, r7
 154              		@ sp needed for prologue
 155 0006 80BD     		pop	{r7, pc}
 156              		.cfi_endproc
 157              	.LFE3:
 158              		.size	isr_reset_done_Interrupt, .-isr_reset_done_Interrupt
 159              		.section	.text.isr_reset_done_SetVector,"ax",%progbits
 160              		.align	2
 161              		.global	isr_reset_done_SetVector
 162              		.code	16
 163              		.thumb_func
 164              		.type	isr_reset_done_SetVector, %function
 165              	isr_reset_done_SetVector:
 166              	.LFB4:
 145:.\Generated_Source\PSoC4/isr_reset_done.c **** 
 146:.\Generated_Source\PSoC4/isr_reset_done.c **** 
 147:.\Generated_Source\PSoC4/isr_reset_done.c **** /*******************************************************************************
 148:.\Generated_Source\PSoC4/isr_reset_done.c **** * Function Name: isr_reset_done_SetVector
 149:.\Generated_Source\PSoC4/isr_reset_done.c **** ********************************************************************************
 150:.\Generated_Source\PSoC4/isr_reset_done.c **** *
 151:.\Generated_Source\PSoC4/isr_reset_done.c **** * Summary:
 152:.\Generated_Source\PSoC4/isr_reset_done.c **** *   Change the ISR vector for the Interrupt. Note calling isr_reset_done_Start
 153:.\Generated_Source\PSoC4/isr_reset_done.c **** *   will override any effect this method would have had. To set the vector 
 154:.\Generated_Source\PSoC4/isr_reset_done.c **** *   before the component has been started use isr_reset_done_StartEx instead.
 155:.\Generated_Source\PSoC4/isr_reset_done.c **** *
 156:.\Generated_Source\PSoC4/isr_reset_done.c **** * Parameters:
 157:.\Generated_Source\PSoC4/isr_reset_done.c **** *   address: Address of the ISR to set in the interrupt vector table.
 158:.\Generated_Source\PSoC4/isr_reset_done.c **** *
 159:.\Generated_Source\PSoC4/isr_reset_done.c **** * Return:
 160:.\Generated_Source\PSoC4/isr_reset_done.c **** *   None
 161:.\Generated_Source\PSoC4/isr_reset_done.c **** *
 162:.\Generated_Source\PSoC4/isr_reset_done.c **** *******************************************************************************/
 163:.\Generated_Source\PSoC4/isr_reset_done.c **** void isr_reset_done_SetVector(cyisraddress address)
 164:.\Generated_Source\PSoC4/isr_reset_done.c **** {
 167              		.loc 1 164 0
 168              		.cfi_startproc
 169 0000 80B5     		push	{r7, lr}
 170              	.LCFI9:
 171              		.cfi_def_cfa_offset 8
 172              		.cfi_offset 7, -8
 173              		.cfi_offset 14, -4
 174 0002 82B0     		sub	sp, sp, #8
 175              	.LCFI10:
 176              		.cfi_def_cfa_offset 16
 177 0004 00AF     		add	r7, sp, #0
 178              	.LCFI11:
ARM GAS  C:\Users\TSUBAS~1\AppData\Local\Temp\ccNzva3j.s 			page 7


 179              		.cfi_def_cfa_register 7
 180 0006 7860     		str	r0, [r7, #4]
 165:.\Generated_Source\PSoC4/isr_reset_done.c ****     CyRamVectors[CYINT_IRQ_BASE + isr_reset_done__INTC_NUMBER] = address;
 181              		.loc 1 165 0
 182 0008 024B     		ldr	r3, .L10
 183 000a 7A68     		ldr	r2, [r7, #4]
 184 000c 9A64     		str	r2, [r3, #72]
 166:.\Generated_Source\PSoC4/isr_reset_done.c **** }
 185              		.loc 1 166 0
 186 000e BD46     		mov	sp, r7
 187 0010 02B0     		add	sp, sp, #8
 188              		@ sp needed for prologue
 189 0012 80BD     		pop	{r7, pc}
 190              	.L11:
 191              		.align	2
 192              	.L10:
 193 0014 00000000 		.word	CyRamVectors
 194              		.cfi_endproc
 195              	.LFE4:
 196              		.size	isr_reset_done_SetVector, .-isr_reset_done_SetVector
 197              		.section	.text.isr_reset_done_GetVector,"ax",%progbits
 198              		.align	2
 199              		.global	isr_reset_done_GetVector
 200              		.code	16
 201              		.thumb_func
 202              		.type	isr_reset_done_GetVector, %function
 203              	isr_reset_done_GetVector:
 204              	.LFB5:
 167:.\Generated_Source\PSoC4/isr_reset_done.c **** 
 168:.\Generated_Source\PSoC4/isr_reset_done.c **** 
 169:.\Generated_Source\PSoC4/isr_reset_done.c **** /*******************************************************************************
 170:.\Generated_Source\PSoC4/isr_reset_done.c **** * Function Name: isr_reset_done_GetVector
 171:.\Generated_Source\PSoC4/isr_reset_done.c **** ********************************************************************************
 172:.\Generated_Source\PSoC4/isr_reset_done.c **** *
 173:.\Generated_Source\PSoC4/isr_reset_done.c **** * Summary:
 174:.\Generated_Source\PSoC4/isr_reset_done.c **** *   Gets the "address" of the current ISR vector for the Interrupt.
 175:.\Generated_Source\PSoC4/isr_reset_done.c **** *
 176:.\Generated_Source\PSoC4/isr_reset_done.c **** * Parameters:
 177:.\Generated_Source\PSoC4/isr_reset_done.c **** *   None
 178:.\Generated_Source\PSoC4/isr_reset_done.c **** *
 179:.\Generated_Source\PSoC4/isr_reset_done.c **** * Return:
 180:.\Generated_Source\PSoC4/isr_reset_done.c **** *   Address of the ISR in the interrupt vector table.
 181:.\Generated_Source\PSoC4/isr_reset_done.c **** *
 182:.\Generated_Source\PSoC4/isr_reset_done.c **** *******************************************************************************/
 183:.\Generated_Source\PSoC4/isr_reset_done.c **** cyisraddress isr_reset_done_GetVector(void)
 184:.\Generated_Source\PSoC4/isr_reset_done.c **** {
 205              		.loc 1 184 0
 206              		.cfi_startproc
 207 0000 80B5     		push	{r7, lr}
 208              	.LCFI12:
 209              		.cfi_def_cfa_offset 8
 210              		.cfi_offset 7, -8
 211              		.cfi_offset 14, -4
 212 0002 00AF     		add	r7, sp, #0
 213              	.LCFI13:
 214              		.cfi_def_cfa_register 7
 185:.\Generated_Source\PSoC4/isr_reset_done.c ****     return CyRamVectors[CYINT_IRQ_BASE + isr_reset_done__INTC_NUMBER];
ARM GAS  C:\Users\TSUBAS~1\AppData\Local\Temp\ccNzva3j.s 			page 8


 215              		.loc 1 185 0
 216 0004 024B     		ldr	r3, .L14
 217 0006 9B6C     		ldr	r3, [r3, #72]
 186:.\Generated_Source\PSoC4/isr_reset_done.c **** }
 218              		.loc 1 186 0
 219 0008 181C     		mov	r0, r3
 220 000a BD46     		mov	sp, r7
 221              		@ sp needed for prologue
 222 000c 80BD     		pop	{r7, pc}
 223              	.L15:
 224 000e C046     		.align	2
 225              	.L14:
 226 0010 00000000 		.word	CyRamVectors
 227              		.cfi_endproc
 228              	.LFE5:
 229              		.size	isr_reset_done_GetVector, .-isr_reset_done_GetVector
 230              		.section	.text.isr_reset_done_SetPriority,"ax",%progbits
 231              		.align	2
 232              		.global	isr_reset_done_SetPriority
 233              		.code	16
 234              		.thumb_func
 235              		.type	isr_reset_done_SetPriority, %function
 236              	isr_reset_done_SetPriority:
 237              	.LFB6:
 187:.\Generated_Source\PSoC4/isr_reset_done.c **** 
 188:.\Generated_Source\PSoC4/isr_reset_done.c **** 
 189:.\Generated_Source\PSoC4/isr_reset_done.c **** /*******************************************************************************
 190:.\Generated_Source\PSoC4/isr_reset_done.c **** * Function Name: isr_reset_done_SetPriority
 191:.\Generated_Source\PSoC4/isr_reset_done.c **** ********************************************************************************
 192:.\Generated_Source\PSoC4/isr_reset_done.c **** *
 193:.\Generated_Source\PSoC4/isr_reset_done.c **** * Summary:
 194:.\Generated_Source\PSoC4/isr_reset_done.c **** *   Sets the Priority of the Interrupt. Note calling isr_reset_done_Start
 195:.\Generated_Source\PSoC4/isr_reset_done.c **** *   or isr_reset_done_StartEx will override any effect this method would 
 196:.\Generated_Source\PSoC4/isr_reset_done.c **** *   have had. This method should only be called after isr_reset_done_Start or 
 197:.\Generated_Source\PSoC4/isr_reset_done.c **** *   isr_reset_done_StartEx has been called. To set the initial
 198:.\Generated_Source\PSoC4/isr_reset_done.c **** *   priority for the component use the cydwr file in the tool.
 199:.\Generated_Source\PSoC4/isr_reset_done.c **** *
 200:.\Generated_Source\PSoC4/isr_reset_done.c **** * Parameters:
 201:.\Generated_Source\PSoC4/isr_reset_done.c **** *   priority: Priority of the interrupt. 0 - 3, 0 being the highest.
 202:.\Generated_Source\PSoC4/isr_reset_done.c **** *
 203:.\Generated_Source\PSoC4/isr_reset_done.c **** * Return:
 204:.\Generated_Source\PSoC4/isr_reset_done.c **** *   None
 205:.\Generated_Source\PSoC4/isr_reset_done.c **** *
 206:.\Generated_Source\PSoC4/isr_reset_done.c **** *******************************************************************************/
 207:.\Generated_Source\PSoC4/isr_reset_done.c **** void isr_reset_done_SetPriority(uint8 priority)
 208:.\Generated_Source\PSoC4/isr_reset_done.c **** {
 238              		.loc 1 208 0
 239              		.cfi_startproc
 240 0000 90B5     		push	{r4, r7, lr}
 241              	.LCFI14:
 242              		.cfi_def_cfa_offset 12
 243              		.cfi_offset 4, -12
 244              		.cfi_offset 7, -8
 245              		.cfi_offset 14, -4
 246 0002 85B0     		sub	sp, sp, #20
 247              	.LCFI15:
 248              		.cfi_def_cfa_offset 32
ARM GAS  C:\Users\TSUBAS~1\AppData\Local\Temp\ccNzva3j.s 			page 9


 249 0004 00AF     		add	r7, sp, #0
 250              	.LCFI16:
 251              		.cfi_def_cfa_register 7
 252 0006 021C     		mov	r2, r0
 253 0008 FB1D     		add	r3, r7, #7
 254 000a 1A70     		strb	r2, [r3]
 209:.\Generated_Source\PSoC4/isr_reset_done.c **** 	uint8 interruptState;
 210:.\Generated_Source\PSoC4/isr_reset_done.c ****     uint32 priorityOffset = ((isr_reset_done__INTC_NUMBER % 4u) * 8u) + 6u;
 255              		.loc 1 210 0
 256 000c 1623     		mov	r3, #22
 257 000e FB60     		str	r3, [r7, #12]
 211:.\Generated_Source\PSoC4/isr_reset_done.c ****     
 212:.\Generated_Source\PSoC4/isr_reset_done.c **** 	interruptState = CyEnterCriticalSection();
 258              		.loc 1 212 0
 259 0010 3C1C     		mov	r4, r7
 260 0012 0B34     		add	r4, r4, #11
 261 0014 FFF7FEFF 		bl	CyEnterCriticalSection
 262 0018 031C     		mov	r3, r0
 263 001a 2370     		strb	r3, [r4]
 213:.\Generated_Source\PSoC4/isr_reset_done.c ****     *isr_reset_done_INTC_PRIOR = (*isr_reset_done_INTC_PRIOR & (uint32)(~isr_reset_done__INTC_PRIOR
 264              		.loc 1 213 0
 265 001c 0A4B     		ldr	r3, .L17
 266 001e 0A4A     		ldr	r2, .L17
 267 0020 1168     		ldr	r1, [r2]
 268 0022 0A4A     		ldr	r2, .L17+4
 269 0024 1140     		and	r1, r2
 214:.\Generated_Source\PSoC4/isr_reset_done.c ****                                     ((uint32)priority << priorityOffset);
 270              		.loc 1 214 0
 271 0026 FA1D     		add	r2, r7, #7
 272 0028 1078     		ldrb	r0, [r2]
 273 002a FA68     		ldr	r2, [r7, #12]
 274 002c 041C     		mov	r4, r0
 275 002e 9440     		lsl	r4, r4, r2
 276 0030 221C     		mov	r2, r4
 213:.\Generated_Source\PSoC4/isr_reset_done.c ****     *isr_reset_done_INTC_PRIOR = (*isr_reset_done_INTC_PRIOR & (uint32)(~isr_reset_done__INTC_PRIOR
 277              		.loc 1 213 0
 278 0032 0A43     		orr	r2, r1
 279 0034 1A60     		str	r2, [r3]
 215:.\Generated_Source\PSoC4/isr_reset_done.c **** 	CyExitCriticalSection(interruptState);
 280              		.loc 1 215 0
 281 0036 3B1C     		mov	r3, r7
 282 0038 0B33     		add	r3, r3, #11
 283 003a 1B78     		ldrb	r3, [r3]
 284 003c 181C     		mov	r0, r3
 285 003e FFF7FEFF 		bl	CyExitCriticalSection
 216:.\Generated_Source\PSoC4/isr_reset_done.c **** }
 286              		.loc 1 216 0
 287 0042 BD46     		mov	sp, r7
 288 0044 05B0     		add	sp, sp, #20
 289              		@ sp needed for prologue
 290 0046 90BD     		pop	{r4, r7, pc}
 291              	.L18:
 292              		.align	2
 293              	.L17:
 294 0048 00E400E0 		.word	-536812544
 295 004c FFFF3FFF 		.word	-12582913
 296              		.cfi_endproc
ARM GAS  C:\Users\TSUBAS~1\AppData\Local\Temp\ccNzva3j.s 			page 10


 297              	.LFE6:
 298              		.size	isr_reset_done_SetPriority, .-isr_reset_done_SetPriority
 299              		.section	.text.isr_reset_done_GetPriority,"ax",%progbits
 300              		.align	2
 301              		.global	isr_reset_done_GetPriority
 302              		.code	16
 303              		.thumb_func
 304              		.type	isr_reset_done_GetPriority, %function
 305              	isr_reset_done_GetPriority:
 306              	.LFB7:
 217:.\Generated_Source\PSoC4/isr_reset_done.c **** 
 218:.\Generated_Source\PSoC4/isr_reset_done.c **** 
 219:.\Generated_Source\PSoC4/isr_reset_done.c **** /*******************************************************************************
 220:.\Generated_Source\PSoC4/isr_reset_done.c **** * Function Name: isr_reset_done_GetPriority
 221:.\Generated_Source\PSoC4/isr_reset_done.c **** ********************************************************************************
 222:.\Generated_Source\PSoC4/isr_reset_done.c **** *
 223:.\Generated_Source\PSoC4/isr_reset_done.c **** * Summary:
 224:.\Generated_Source\PSoC4/isr_reset_done.c **** *   Gets the Priority of the Interrupt.
 225:.\Generated_Source\PSoC4/isr_reset_done.c **** *
 226:.\Generated_Source\PSoC4/isr_reset_done.c **** * Parameters:
 227:.\Generated_Source\PSoC4/isr_reset_done.c **** *   None
 228:.\Generated_Source\PSoC4/isr_reset_done.c **** *
 229:.\Generated_Source\PSoC4/isr_reset_done.c **** * Return:
 230:.\Generated_Source\PSoC4/isr_reset_done.c **** *   Priority of the interrupt. 0 - 3, 0 being the highest.
 231:.\Generated_Source\PSoC4/isr_reset_done.c **** *
 232:.\Generated_Source\PSoC4/isr_reset_done.c **** *******************************************************************************/
 233:.\Generated_Source\PSoC4/isr_reset_done.c **** uint8 isr_reset_done_GetPriority(void)
 234:.\Generated_Source\PSoC4/isr_reset_done.c **** {
 307              		.loc 1 234 0
 308              		.cfi_startproc
 309 0000 80B5     		push	{r7, lr}
 310              	.LCFI17:
 311              		.cfi_def_cfa_offset 8
 312              		.cfi_offset 7, -8
 313              		.cfi_offset 14, -4
 314 0002 82B0     		sub	sp, sp, #8
 315              	.LCFI18:
 316              		.cfi_def_cfa_offset 16
 317 0004 00AF     		add	r7, sp, #0
 318              	.LCFI19:
 319              		.cfi_def_cfa_register 7
 235:.\Generated_Source\PSoC4/isr_reset_done.c ****     uint32 priority;
 236:.\Generated_Source\PSoC4/isr_reset_done.c **** 	uint32 priorityOffset = ((isr_reset_done__INTC_NUMBER % 4u) * 8u) + 6u;
 320              		.loc 1 236 0
 321 0006 1623     		mov	r3, #22
 322 0008 7B60     		str	r3, [r7, #4]
 237:.\Generated_Source\PSoC4/isr_reset_done.c **** 
 238:.\Generated_Source\PSoC4/isr_reset_done.c ****     priority = (*isr_reset_done_INTC_PRIOR & isr_reset_done__INTC_PRIOR_MASK) >> priorityOffset;
 323              		.loc 1 238 0
 324 000a 084B     		ldr	r3, .L21
 325 000c 1A68     		ldr	r2, [r3]
 326 000e C023     		mov	r3, #192
 327 0010 1B04     		lsl	r3, r3, #16
 328 0012 1A40     		and	r2, r3
 329 0014 7B68     		ldr	r3, [r7, #4]
 330 0016 111C     		mov	r1, r2
 331 0018 D940     		lsr	r1, r1, r3
ARM GAS  C:\Users\TSUBAS~1\AppData\Local\Temp\ccNzva3j.s 			page 11


 332 001a 0B1C     		mov	r3, r1
 333 001c 3B60     		str	r3, [r7]
 239:.\Generated_Source\PSoC4/isr_reset_done.c **** 
 240:.\Generated_Source\PSoC4/isr_reset_done.c ****     return (uint8)priority;
 334              		.loc 1 240 0
 335 001e 3B68     		ldr	r3, [r7]
 336 0020 DBB2     		uxtb	r3, r3
 241:.\Generated_Source\PSoC4/isr_reset_done.c **** }
 337              		.loc 1 241 0
 338 0022 181C     		mov	r0, r3
 339 0024 BD46     		mov	sp, r7
 340 0026 02B0     		add	sp, sp, #8
 341              		@ sp needed for prologue
 342 0028 80BD     		pop	{r7, pc}
 343              	.L22:
 344 002a C046     		.align	2
 345              	.L21:
 346 002c 00E400E0 		.word	-536812544
 347              		.cfi_endproc
 348              	.LFE7:
 349              		.size	isr_reset_done_GetPriority, .-isr_reset_done_GetPriority
 350              		.section	.text.isr_reset_done_Enable,"ax",%progbits
 351              		.align	2
 352              		.global	isr_reset_done_Enable
 353              		.code	16
 354              		.thumb_func
 355              		.type	isr_reset_done_Enable, %function
 356              	isr_reset_done_Enable:
 357              	.LFB8:
 242:.\Generated_Source\PSoC4/isr_reset_done.c **** 
 243:.\Generated_Source\PSoC4/isr_reset_done.c **** 
 244:.\Generated_Source\PSoC4/isr_reset_done.c **** /*******************************************************************************
 245:.\Generated_Source\PSoC4/isr_reset_done.c **** * Function Name: isr_reset_done_Enable
 246:.\Generated_Source\PSoC4/isr_reset_done.c **** ********************************************************************************
 247:.\Generated_Source\PSoC4/isr_reset_done.c **** *
 248:.\Generated_Source\PSoC4/isr_reset_done.c **** * Summary:
 249:.\Generated_Source\PSoC4/isr_reset_done.c **** *   Enables the interrupt.
 250:.\Generated_Source\PSoC4/isr_reset_done.c **** *
 251:.\Generated_Source\PSoC4/isr_reset_done.c **** * Parameters:
 252:.\Generated_Source\PSoC4/isr_reset_done.c **** *   None
 253:.\Generated_Source\PSoC4/isr_reset_done.c **** *
 254:.\Generated_Source\PSoC4/isr_reset_done.c **** * Return:
 255:.\Generated_Source\PSoC4/isr_reset_done.c **** *   None
 256:.\Generated_Source\PSoC4/isr_reset_done.c **** *
 257:.\Generated_Source\PSoC4/isr_reset_done.c **** *******************************************************************************/
 258:.\Generated_Source\PSoC4/isr_reset_done.c **** void isr_reset_done_Enable(void)
 259:.\Generated_Source\PSoC4/isr_reset_done.c **** {
 358              		.loc 1 259 0
 359              		.cfi_startproc
 360 0000 80B5     		push	{r7, lr}
 361              	.LCFI20:
 362              		.cfi_def_cfa_offset 8
 363              		.cfi_offset 7, -8
 364              		.cfi_offset 14, -4
 365 0002 00AF     		add	r7, sp, #0
 366              	.LCFI21:
 367              		.cfi_def_cfa_register 7
ARM GAS  C:\Users\TSUBAS~1\AppData\Local\Temp\ccNzva3j.s 			page 12


 260:.\Generated_Source\PSoC4/isr_reset_done.c ****     /* Enable the general interrupt. */
 261:.\Generated_Source\PSoC4/isr_reset_done.c ****     *isr_reset_done_INTC_SET_EN = isr_reset_done__INTC_MASK;
 368              		.loc 1 261 0
 369 0004 024B     		ldr	r3, .L24
 370 0006 0422     		mov	r2, #4
 371 0008 1A60     		str	r2, [r3]
 262:.\Generated_Source\PSoC4/isr_reset_done.c **** }
 372              		.loc 1 262 0
 373 000a BD46     		mov	sp, r7
 374              		@ sp needed for prologue
 375 000c 80BD     		pop	{r7, pc}
 376              	.L25:
 377 000e C046     		.align	2
 378              	.L24:
 379 0010 00E100E0 		.word	-536813312
 380              		.cfi_endproc
 381              	.LFE8:
 382              		.size	isr_reset_done_Enable, .-isr_reset_done_Enable
 383              		.section	.text.isr_reset_done_GetState,"ax",%progbits
 384              		.align	2
 385              		.global	isr_reset_done_GetState
 386              		.code	16
 387              		.thumb_func
 388              		.type	isr_reset_done_GetState, %function
 389              	isr_reset_done_GetState:
 390              	.LFB9:
 263:.\Generated_Source\PSoC4/isr_reset_done.c **** 
 264:.\Generated_Source\PSoC4/isr_reset_done.c **** 
 265:.\Generated_Source\PSoC4/isr_reset_done.c **** /*******************************************************************************
 266:.\Generated_Source\PSoC4/isr_reset_done.c **** * Function Name: isr_reset_done_GetState
 267:.\Generated_Source\PSoC4/isr_reset_done.c **** ********************************************************************************
 268:.\Generated_Source\PSoC4/isr_reset_done.c **** *
 269:.\Generated_Source\PSoC4/isr_reset_done.c **** * Summary:
 270:.\Generated_Source\PSoC4/isr_reset_done.c **** *   Gets the state (enabled, disabled) of the Interrupt.
 271:.\Generated_Source\PSoC4/isr_reset_done.c **** *
 272:.\Generated_Source\PSoC4/isr_reset_done.c **** * Parameters:
 273:.\Generated_Source\PSoC4/isr_reset_done.c **** *   None
 274:.\Generated_Source\PSoC4/isr_reset_done.c **** *
 275:.\Generated_Source\PSoC4/isr_reset_done.c **** * Return:
 276:.\Generated_Source\PSoC4/isr_reset_done.c **** *   1 if enabled, 0 if disabled.
 277:.\Generated_Source\PSoC4/isr_reset_done.c **** *
 278:.\Generated_Source\PSoC4/isr_reset_done.c **** *******************************************************************************/
 279:.\Generated_Source\PSoC4/isr_reset_done.c **** uint8 isr_reset_done_GetState(void)
 280:.\Generated_Source\PSoC4/isr_reset_done.c **** {
 391              		.loc 1 280 0
 392              		.cfi_startproc
 393 0000 80B5     		push	{r7, lr}
 394              	.LCFI22:
 395              		.cfi_def_cfa_offset 8
 396              		.cfi_offset 7, -8
 397              		.cfi_offset 14, -4
 398 0002 00AF     		add	r7, sp, #0
 399              	.LCFI23:
 400              		.cfi_def_cfa_register 7
 281:.\Generated_Source\PSoC4/isr_reset_done.c ****     /* Get the state of the general interrupt. */
 282:.\Generated_Source\PSoC4/isr_reset_done.c ****     return ((*isr_reset_done_INTC_SET_EN & (uint32)isr_reset_done__INTC_MASK) != 0u) ? 1u:0u;
 401              		.loc 1 282 0
ARM GAS  C:\Users\TSUBAS~1\AppData\Local\Temp\ccNzva3j.s 			page 13


 402 0004 054B     		ldr	r3, .L30
 403 0006 1A68     		ldr	r2, [r3]
 404 0008 0423     		mov	r3, #4
 405 000a 1340     		and	r3, r2
 406 000c 01D0     		beq	.L27
 407              		.loc 1 282 0 is_stmt 0 discriminator 1
 408 000e 0123     		mov	r3, #1
 409 0010 00E0     		b	.L28
 410              	.L27:
 411              		.loc 1 282 0 discriminator 2
 412 0012 0023     		mov	r3, #0
 413              	.L28:
 283:.\Generated_Source\PSoC4/isr_reset_done.c **** }
 414              		.loc 1 283 0 is_stmt 1 discriminator 3
 415 0014 181C     		mov	r0, r3
 416 0016 BD46     		mov	sp, r7
 417              		@ sp needed for prologue
 418 0018 80BD     		pop	{r7, pc}
 419              	.L31:
 420 001a C046     		.align	2
 421              	.L30:
 422 001c 00E100E0 		.word	-536813312
 423              		.cfi_endproc
 424              	.LFE9:
 425              		.size	isr_reset_done_GetState, .-isr_reset_done_GetState
 426              		.section	.text.isr_reset_done_Disable,"ax",%progbits
 427              		.align	2
 428              		.global	isr_reset_done_Disable
 429              		.code	16
 430              		.thumb_func
 431              		.type	isr_reset_done_Disable, %function
 432              	isr_reset_done_Disable:
 433              	.LFB10:
 284:.\Generated_Source\PSoC4/isr_reset_done.c **** 
 285:.\Generated_Source\PSoC4/isr_reset_done.c **** 
 286:.\Generated_Source\PSoC4/isr_reset_done.c **** /*******************************************************************************
 287:.\Generated_Source\PSoC4/isr_reset_done.c **** * Function Name: isr_reset_done_Disable
 288:.\Generated_Source\PSoC4/isr_reset_done.c **** ********************************************************************************
 289:.\Generated_Source\PSoC4/isr_reset_done.c **** *
 290:.\Generated_Source\PSoC4/isr_reset_done.c **** * Summary:
 291:.\Generated_Source\PSoC4/isr_reset_done.c **** *   Disables the Interrupt.
 292:.\Generated_Source\PSoC4/isr_reset_done.c **** *
 293:.\Generated_Source\PSoC4/isr_reset_done.c **** * Parameters:
 294:.\Generated_Source\PSoC4/isr_reset_done.c **** *   None
 295:.\Generated_Source\PSoC4/isr_reset_done.c **** *
 296:.\Generated_Source\PSoC4/isr_reset_done.c **** * Return:
 297:.\Generated_Source\PSoC4/isr_reset_done.c **** *   None
 298:.\Generated_Source\PSoC4/isr_reset_done.c **** *
 299:.\Generated_Source\PSoC4/isr_reset_done.c **** *******************************************************************************/
 300:.\Generated_Source\PSoC4/isr_reset_done.c **** void isr_reset_done_Disable(void)
 301:.\Generated_Source\PSoC4/isr_reset_done.c **** {
 434              		.loc 1 301 0
 435              		.cfi_startproc
 436 0000 80B5     		push	{r7, lr}
 437              	.LCFI24:
 438              		.cfi_def_cfa_offset 8
 439              		.cfi_offset 7, -8
ARM GAS  C:\Users\TSUBAS~1\AppData\Local\Temp\ccNzva3j.s 			page 14


 440              		.cfi_offset 14, -4
 441 0002 00AF     		add	r7, sp, #0
 442              	.LCFI25:
 443              		.cfi_def_cfa_register 7
 302:.\Generated_Source\PSoC4/isr_reset_done.c ****     /* Disable the general interrupt. */
 303:.\Generated_Source\PSoC4/isr_reset_done.c ****     *isr_reset_done_INTC_CLR_EN = isr_reset_done__INTC_MASK;
 444              		.loc 1 303 0
 445 0004 024B     		ldr	r3, .L33
 446 0006 0422     		mov	r2, #4
 447 0008 1A60     		str	r2, [r3]
 304:.\Generated_Source\PSoC4/isr_reset_done.c **** }
 448              		.loc 1 304 0
 449 000a BD46     		mov	sp, r7
 450              		@ sp needed for prologue
 451 000c 80BD     		pop	{r7, pc}
 452              	.L34:
 453 000e C046     		.align	2
 454              	.L33:
 455 0010 80E100E0 		.word	-536813184
 456              		.cfi_endproc
 457              	.LFE10:
 458              		.size	isr_reset_done_Disable, .-isr_reset_done_Disable
 459              		.section	.text.isr_reset_done_SetPending,"ax",%progbits
 460              		.align	2
 461              		.global	isr_reset_done_SetPending
 462              		.code	16
 463              		.thumb_func
 464              		.type	isr_reset_done_SetPending, %function
 465              	isr_reset_done_SetPending:
 466              	.LFB11:
 305:.\Generated_Source\PSoC4/isr_reset_done.c **** 
 306:.\Generated_Source\PSoC4/isr_reset_done.c **** 
 307:.\Generated_Source\PSoC4/isr_reset_done.c **** /*******************************************************************************
 308:.\Generated_Source\PSoC4/isr_reset_done.c **** * Function Name: isr_reset_done_SetPending
 309:.\Generated_Source\PSoC4/isr_reset_done.c **** ********************************************************************************
 310:.\Generated_Source\PSoC4/isr_reset_done.c **** *
 311:.\Generated_Source\PSoC4/isr_reset_done.c **** * Summary:
 312:.\Generated_Source\PSoC4/isr_reset_done.c **** *   Causes the Interrupt to enter the pending state, a software method of
 313:.\Generated_Source\PSoC4/isr_reset_done.c **** *   generating the interrupt.
 314:.\Generated_Source\PSoC4/isr_reset_done.c **** *
 315:.\Generated_Source\PSoC4/isr_reset_done.c **** * Parameters:
 316:.\Generated_Source\PSoC4/isr_reset_done.c **** *   None
 317:.\Generated_Source\PSoC4/isr_reset_done.c **** *
 318:.\Generated_Source\PSoC4/isr_reset_done.c **** * Return:
 319:.\Generated_Source\PSoC4/isr_reset_done.c **** *   None
 320:.\Generated_Source\PSoC4/isr_reset_done.c **** *
 321:.\Generated_Source\PSoC4/isr_reset_done.c **** *******************************************************************************/
 322:.\Generated_Source\PSoC4/isr_reset_done.c **** void isr_reset_done_SetPending(void)
 323:.\Generated_Source\PSoC4/isr_reset_done.c **** {
 467              		.loc 1 323 0
 468              		.cfi_startproc
 469 0000 80B5     		push	{r7, lr}
 470              	.LCFI26:
 471              		.cfi_def_cfa_offset 8
 472              		.cfi_offset 7, -8
 473              		.cfi_offset 14, -4
 474 0002 00AF     		add	r7, sp, #0
ARM GAS  C:\Users\TSUBAS~1\AppData\Local\Temp\ccNzva3j.s 			page 15


 475              	.LCFI27:
 476              		.cfi_def_cfa_register 7
 324:.\Generated_Source\PSoC4/isr_reset_done.c ****     *isr_reset_done_INTC_SET_PD = isr_reset_done__INTC_MASK;
 477              		.loc 1 324 0
 478 0004 024B     		ldr	r3, .L36
 479 0006 0422     		mov	r2, #4
 480 0008 1A60     		str	r2, [r3]
 325:.\Generated_Source\PSoC4/isr_reset_done.c **** }
 481              		.loc 1 325 0
 482 000a BD46     		mov	sp, r7
 483              		@ sp needed for prologue
 484 000c 80BD     		pop	{r7, pc}
 485              	.L37:
 486 000e C046     		.align	2
 487              	.L36:
 488 0010 00E200E0 		.word	-536813056
 489              		.cfi_endproc
 490              	.LFE11:
 491              		.size	isr_reset_done_SetPending, .-isr_reset_done_SetPending
 492              		.section	.text.isr_reset_done_ClearPending,"ax",%progbits
 493              		.align	2
 494              		.global	isr_reset_done_ClearPending
 495              		.code	16
 496              		.thumb_func
 497              		.type	isr_reset_done_ClearPending, %function
 498              	isr_reset_done_ClearPending:
 499              	.LFB12:
 326:.\Generated_Source\PSoC4/isr_reset_done.c **** 
 327:.\Generated_Source\PSoC4/isr_reset_done.c **** 
 328:.\Generated_Source\PSoC4/isr_reset_done.c **** /*******************************************************************************
 329:.\Generated_Source\PSoC4/isr_reset_done.c **** * Function Name: isr_reset_done_ClearPending
 330:.\Generated_Source\PSoC4/isr_reset_done.c **** ********************************************************************************
 331:.\Generated_Source\PSoC4/isr_reset_done.c **** *
 332:.\Generated_Source\PSoC4/isr_reset_done.c **** * Summary:
 333:.\Generated_Source\PSoC4/isr_reset_done.c **** *   Clears a pending interrupt.
 334:.\Generated_Source\PSoC4/isr_reset_done.c **** *
 335:.\Generated_Source\PSoC4/isr_reset_done.c **** * Parameters:
 336:.\Generated_Source\PSoC4/isr_reset_done.c **** *   None
 337:.\Generated_Source\PSoC4/isr_reset_done.c **** *
 338:.\Generated_Source\PSoC4/isr_reset_done.c **** * Return:
 339:.\Generated_Source\PSoC4/isr_reset_done.c **** *   None
 340:.\Generated_Source\PSoC4/isr_reset_done.c **** *
 341:.\Generated_Source\PSoC4/isr_reset_done.c **** *******************************************************************************/
 342:.\Generated_Source\PSoC4/isr_reset_done.c **** void isr_reset_done_ClearPending(void)
 343:.\Generated_Source\PSoC4/isr_reset_done.c **** {
 500              		.loc 1 343 0
 501              		.cfi_startproc
 502 0000 80B5     		push	{r7, lr}
 503              	.LCFI28:
 504              		.cfi_def_cfa_offset 8
 505              		.cfi_offset 7, -8
 506              		.cfi_offset 14, -4
 507 0002 00AF     		add	r7, sp, #0
 508              	.LCFI29:
 509              		.cfi_def_cfa_register 7
 344:.\Generated_Source\PSoC4/isr_reset_done.c ****     *isr_reset_done_INTC_CLR_PD = isr_reset_done__INTC_MASK;
 510              		.loc 1 344 0
ARM GAS  C:\Users\TSUBAS~1\AppData\Local\Temp\ccNzva3j.s 			page 16


 511 0004 024B     		ldr	r3, .L39
 512 0006 0422     		mov	r2, #4
 513 0008 1A60     		str	r2, [r3]
 345:.\Generated_Source\PSoC4/isr_reset_done.c **** }
 514              		.loc 1 345 0
 515 000a BD46     		mov	sp, r7
 516              		@ sp needed for prologue
 517 000c 80BD     		pop	{r7, pc}
 518              	.L40:
 519 000e C046     		.align	2
 520              	.L39:
 521 0010 80E200E0 		.word	-536812928
 522              		.cfi_endproc
 523              	.LFE12:
 524              		.size	isr_reset_done_ClearPending, .-isr_reset_done_ClearPending
 525              		.text
 526              	.Letext0:
 527              		.file 2 "./Generated_Source/PSoC4/cytypes.h"