ARM GAS  C:\Users\TSUBAS~1\AppData\Local\Temp\ccZNqQv1.s 			page 1


   1              		.cpu cortex-m0
   2              		.fpu softvfp
   3              		.eabi_attribute 20, 1
   4              		.eabi_attribute 21, 1
   5              		.eabi_attribute 23, 3
   6              		.eabi_attribute 24, 1
   7              		.eabi_attribute 25, 1
   8              		.eabi_attribute 26, 1
   9              		.eabi_attribute 30, 6
  10              		.eabi_attribute 34, 0
  11              		.eabi_attribute 18, 4
  12              		.code	16
  13              		.file	"main.c"
  14              		.text
  15              	.Ltext0:
  16              		.cfi_sections	.debug_frame
  17              		.section	.text.NVIC_SetPriority,"ax",%progbits
  18              		.align	2
  19              		.code	16
  20              		.thumb_func
  21              		.type	NVIC_SetPriority, %function
  22              	NVIC_SetPriority:
  23              	.LFB29:
  24              		.file 1 "./Generated_Source/PSoC4/core_cm0.h"
   1:./Generated_Source/PSoC4/core_cm0.h **** /**************************************************************************//**
   2:./Generated_Source/PSoC4/core_cm0.h ****  * @file     core_cm0.h
   3:./Generated_Source/PSoC4/core_cm0.h ****  * @brief    CMSIS Cortex-M0 Core Peripheral Access Layer Header File
   4:./Generated_Source/PSoC4/core_cm0.h ****  * @version  V3.20
   5:./Generated_Source/PSoC4/core_cm0.h ****  * @date     25. February 2013
   6:./Generated_Source/PSoC4/core_cm0.h ****  *
   7:./Generated_Source/PSoC4/core_cm0.h ****  * @note
   8:./Generated_Source/PSoC4/core_cm0.h ****  *
   9:./Generated_Source/PSoC4/core_cm0.h ****  ******************************************************************************/
  10:./Generated_Source/PSoC4/core_cm0.h **** /* Copyright (c) 2009 - 2013 ARM LIMITED
  11:./Generated_Source/PSoC4/core_cm0.h **** 
  12:./Generated_Source/PSoC4/core_cm0.h ****    All rights reserved.
  13:./Generated_Source/PSoC4/core_cm0.h ****    Redistribution and use in source and binary forms, with or without
  14:./Generated_Source/PSoC4/core_cm0.h ****    modification, are permitted provided that the following conditions are met:
  15:./Generated_Source/PSoC4/core_cm0.h ****    - Redistributions of source code must retain the above copyright
  16:./Generated_Source/PSoC4/core_cm0.h ****      notice, this list of conditions and the following disclaimer.
  17:./Generated_Source/PSoC4/core_cm0.h ****    - Redistributions in binary form must reproduce the above copyright
  18:./Generated_Source/PSoC4/core_cm0.h ****      notice, this list of conditions and the following disclaimer in the
  19:./Generated_Source/PSoC4/core_cm0.h ****      documentation and/or other materials provided with the distribution.
  20:./Generated_Source/PSoC4/core_cm0.h ****    - Neither the name of ARM nor the names of its contributors may be used
  21:./Generated_Source/PSoC4/core_cm0.h ****      to endorse or promote products derived from this software without
  22:./Generated_Source/PSoC4/core_cm0.h ****      specific prior written permission.
  23:./Generated_Source/PSoC4/core_cm0.h ****    *
  24:./Generated_Source/PSoC4/core_cm0.h ****    THIS SOFTWARE IS PROVIDED BY THE COPYRIGHT HOLDERS AND CONTRIBUTORS "AS IS"
  25:./Generated_Source/PSoC4/core_cm0.h ****    AND ANY EXPRESS OR IMPLIED WARRANTIES, INCLUDING, BUT NOT LIMITED TO, THE
  26:./Generated_Source/PSoC4/core_cm0.h ****    IMPLIED WARRANTIES OF MERCHANTABILITY AND FITNESS FOR A PARTICULAR PURPOSE
  27:./Generated_Source/PSoC4/core_cm0.h ****    ARE DISCLAIMED. IN NO EVENT SHALL COPYRIGHT HOLDERS AND CONTRIBUTORS BE
  28:./Generated_Source/PSoC4/core_cm0.h ****    LIABLE FOR ANY DIRECT, INDIRECT, INCIDENTAL, SPECIAL, EXEMPLARY, OR
  29:./Generated_Source/PSoC4/core_cm0.h ****    CONSEQUENTIAL DAMAGES (INCLUDING, BUT NOT LIMITED TO, PROCUREMENT OF
  30:./Generated_Source/PSoC4/core_cm0.h ****    SUBSTITUTE GOODS OR SERVICES; LOSS OF USE, DATA, OR PROFITS; OR BUSINESS
  31:./Generated_Source/PSoC4/core_cm0.h ****    INTERRUPTION) HOWEVER CAUSED AND ON ANY THEORY OF LIABILITY, WHETHER IN
  32:./Generated_Source/PSoC4/core_cm0.h ****    CONTRACT, STRICT LIABILITY, OR TORT (INCLUDING NEGLIGENCE OR OTHERWISE)
  33:./Generated_Source/PSoC4/core_cm0.h ****    ARISING IN ANY WAY OUT OF THE USE OF THIS SOFTWARE, EVEN IF ADVISED OF THE
ARM GAS  C:\Users\TSUBAS~1\AppData\Local\Temp\ccZNqQv1.s 			page 2


  34:./Generated_Source/PSoC4/core_cm0.h ****    POSSIBILITY OF SUCH DAMAGE.
  35:./Generated_Source/PSoC4/core_cm0.h ****    ---------------------------------------------------------------------------*/
  36:./Generated_Source/PSoC4/core_cm0.h **** 
  37:./Generated_Source/PSoC4/core_cm0.h **** 
  38:./Generated_Source/PSoC4/core_cm0.h **** #if defined ( __ICCARM__ )
  39:./Generated_Source/PSoC4/core_cm0.h ****  #pragma system_include  /* treat file as system include file for MISRA check */
  40:./Generated_Source/PSoC4/core_cm0.h **** #endif
  41:./Generated_Source/PSoC4/core_cm0.h **** 
  42:./Generated_Source/PSoC4/core_cm0.h **** #ifdef __cplusplus
  43:./Generated_Source/PSoC4/core_cm0.h ****  extern "C" {
  44:./Generated_Source/PSoC4/core_cm0.h **** #endif
  45:./Generated_Source/PSoC4/core_cm0.h **** 
  46:./Generated_Source/PSoC4/core_cm0.h **** #ifndef __CORE_CM0_H_GENERIC
  47:./Generated_Source/PSoC4/core_cm0.h **** #define __CORE_CM0_H_GENERIC
  48:./Generated_Source/PSoC4/core_cm0.h **** 
  49:./Generated_Source/PSoC4/core_cm0.h **** /** \page CMSIS_MISRA_Exceptions  MISRA-C:2004 Compliance Exceptions
  50:./Generated_Source/PSoC4/core_cm0.h ****   CMSIS violates the following MISRA-C:2004 rules:
  51:./Generated_Source/PSoC4/core_cm0.h **** 
  52:./Generated_Source/PSoC4/core_cm0.h ****    \li Required Rule 8.5, object/function definition in header file.<br>
  53:./Generated_Source/PSoC4/core_cm0.h ****      Function definitions in header files are used to allow 'inlining'.
  54:./Generated_Source/PSoC4/core_cm0.h **** 
  55:./Generated_Source/PSoC4/core_cm0.h ****    \li Required Rule 18.4, declaration of union type or object of union type: '{...}'.<br>
  56:./Generated_Source/PSoC4/core_cm0.h ****      Unions are used for effective representation of core registers.
  57:./Generated_Source/PSoC4/core_cm0.h **** 
  58:./Generated_Source/PSoC4/core_cm0.h ****    \li Advisory Rule 19.7, Function-like macro defined.<br>
  59:./Generated_Source/PSoC4/core_cm0.h ****      Function-like macros are used to allow more efficient code.
  60:./Generated_Source/PSoC4/core_cm0.h ****  */
  61:./Generated_Source/PSoC4/core_cm0.h **** 
  62:./Generated_Source/PSoC4/core_cm0.h **** 
  63:./Generated_Source/PSoC4/core_cm0.h **** /*******************************************************************************
  64:./Generated_Source/PSoC4/core_cm0.h ****  *                 CMSIS definitions
  65:./Generated_Source/PSoC4/core_cm0.h ****  ******************************************************************************/
  66:./Generated_Source/PSoC4/core_cm0.h **** /** \ingroup Cortex_M0
  67:./Generated_Source/PSoC4/core_cm0.h ****   @{
  68:./Generated_Source/PSoC4/core_cm0.h ****  */
  69:./Generated_Source/PSoC4/core_cm0.h **** 
  70:./Generated_Source/PSoC4/core_cm0.h **** /*  CMSIS CM0 definitions */
  71:./Generated_Source/PSoC4/core_cm0.h **** #define __CM0_CMSIS_VERSION_MAIN  (0x03)                                   /*!< [31:16] CMSIS HAL m
  72:./Generated_Source/PSoC4/core_cm0.h **** #define __CM0_CMSIS_VERSION_SUB   (0x20)                                   /*!< [15:0]  CMSIS HAL s
  73:./Generated_Source/PSoC4/core_cm0.h **** #define __CM0_CMSIS_VERSION       ((__CM0_CMSIS_VERSION_MAIN << 16) | \
  74:./Generated_Source/PSoC4/core_cm0.h ****                                     __CM0_CMSIS_VERSION_SUB          )     /*!< CMSIS HAL version n
  75:./Generated_Source/PSoC4/core_cm0.h **** 
  76:./Generated_Source/PSoC4/core_cm0.h **** #define __CORTEX_M                (0x00)                                   /*!< Cortex-M Core      
  77:./Generated_Source/PSoC4/core_cm0.h **** 
  78:./Generated_Source/PSoC4/core_cm0.h **** 
  79:./Generated_Source/PSoC4/core_cm0.h **** #if   defined ( __CC_ARM )
  80:./Generated_Source/PSoC4/core_cm0.h ****   #define __ASM            __asm                                      /*!< asm keyword for ARM Comp
  81:./Generated_Source/PSoC4/core_cm0.h ****   #define __INLINE         __inline                                   /*!< inline keyword for ARM C
  82:./Generated_Source/PSoC4/core_cm0.h ****   #define __STATIC_INLINE  static __inline
  83:./Generated_Source/PSoC4/core_cm0.h **** 
  84:./Generated_Source/PSoC4/core_cm0.h **** #elif defined ( __ICCARM__ )
  85:./Generated_Source/PSoC4/core_cm0.h ****   #define __ASM            __asm                                      /*!< asm keyword for IAR Comp
  86:./Generated_Source/PSoC4/core_cm0.h ****   #define __INLINE         inline                                     /*!< inline keyword for IAR C
  87:./Generated_Source/PSoC4/core_cm0.h ****   #define __STATIC_INLINE  static inline
  88:./Generated_Source/PSoC4/core_cm0.h **** 
  89:./Generated_Source/PSoC4/core_cm0.h **** #elif defined ( __GNUC__ )
  90:./Generated_Source/PSoC4/core_cm0.h ****   #define __ASM            __asm                                      /*!< asm keyword for GNU Comp
ARM GAS  C:\Users\TSUBAS~1\AppData\Local\Temp\ccZNqQv1.s 			page 3


  91:./Generated_Source/PSoC4/core_cm0.h ****   #define __INLINE         inline                                     /*!< inline keyword for GNU C
  92:./Generated_Source/PSoC4/core_cm0.h ****   #define __STATIC_INLINE  static inline
  93:./Generated_Source/PSoC4/core_cm0.h **** 
  94:./Generated_Source/PSoC4/core_cm0.h **** #elif defined ( __TASKING__ )
  95:./Generated_Source/PSoC4/core_cm0.h ****   #define __ASM            __asm                                      /*!< asm keyword for TASKING 
  96:./Generated_Source/PSoC4/core_cm0.h ****   #define __INLINE         inline                                     /*!< inline keyword for TASKI
  97:./Generated_Source/PSoC4/core_cm0.h ****   #define __STATIC_INLINE  static inline
  98:./Generated_Source/PSoC4/core_cm0.h **** 
  99:./Generated_Source/PSoC4/core_cm0.h **** #endif
 100:./Generated_Source/PSoC4/core_cm0.h **** 
 101:./Generated_Source/PSoC4/core_cm0.h **** /** __FPU_USED indicates whether an FPU is used or not. This core does not support an FPU at all
 102:./Generated_Source/PSoC4/core_cm0.h **** */
 103:./Generated_Source/PSoC4/core_cm0.h **** #define __FPU_USED       0
 104:./Generated_Source/PSoC4/core_cm0.h **** 
 105:./Generated_Source/PSoC4/core_cm0.h **** #if defined ( __CC_ARM )
 106:./Generated_Source/PSoC4/core_cm0.h ****   #if defined __TARGET_FPU_VFP
 107:./Generated_Source/PSoC4/core_cm0.h ****     #warning "Compiler generates FPU instructions for a device without an FPU (check __FPU_PRESENT)
 108:./Generated_Source/PSoC4/core_cm0.h ****   #endif
 109:./Generated_Source/PSoC4/core_cm0.h **** 
 110:./Generated_Source/PSoC4/core_cm0.h **** #elif defined ( __ICCARM__ )
 111:./Generated_Source/PSoC4/core_cm0.h ****   #if defined __ARMVFP__
 112:./Generated_Source/PSoC4/core_cm0.h ****     #warning "Compiler generates FPU instructions for a device without an FPU (check __FPU_PRESENT)
 113:./Generated_Source/PSoC4/core_cm0.h ****   #endif
 114:./Generated_Source/PSoC4/core_cm0.h **** 
 115:./Generated_Source/PSoC4/core_cm0.h **** #elif defined ( __GNUC__ )
 116:./Generated_Source/PSoC4/core_cm0.h ****   #if defined (__VFP_FP__) && !defined(__SOFTFP__)
 117:./Generated_Source/PSoC4/core_cm0.h ****     #warning "Compiler generates FPU instructions for a device without an FPU (check __FPU_PRESENT)
 118:./Generated_Source/PSoC4/core_cm0.h ****   #endif
 119:./Generated_Source/PSoC4/core_cm0.h **** 
 120:./Generated_Source/PSoC4/core_cm0.h **** #elif defined ( __TASKING__ )
 121:./Generated_Source/PSoC4/core_cm0.h ****   #if defined __FPU_VFP__
 122:./Generated_Source/PSoC4/core_cm0.h ****     #error "Compiler generates FPU instructions for a device without an FPU (check __FPU_PRESENT)"
 123:./Generated_Source/PSoC4/core_cm0.h ****   #endif
 124:./Generated_Source/PSoC4/core_cm0.h **** #endif
 125:./Generated_Source/PSoC4/core_cm0.h **** 
 126:./Generated_Source/PSoC4/core_cm0.h **** #include <stdint.h>                      /* standard types definitions                      */
 127:./Generated_Source/PSoC4/core_cm0.h **** #include <core_cmInstr.h>                /* Core Instruction Access                         */
 128:./Generated_Source/PSoC4/core_cm0.h **** #include <core_cmFunc.h>                 /* Core Function Access                            */
 129:./Generated_Source/PSoC4/core_cm0.h **** 
 130:./Generated_Source/PSoC4/core_cm0.h **** #endif /* __CORE_CM0_H_GENERIC */
 131:./Generated_Source/PSoC4/core_cm0.h **** 
 132:./Generated_Source/PSoC4/core_cm0.h **** #ifndef __CMSIS_GENERIC
 133:./Generated_Source/PSoC4/core_cm0.h **** 
 134:./Generated_Source/PSoC4/core_cm0.h **** #ifndef __CORE_CM0_H_DEPENDANT
 135:./Generated_Source/PSoC4/core_cm0.h **** #define __CORE_CM0_H_DEPENDANT
 136:./Generated_Source/PSoC4/core_cm0.h **** 
 137:./Generated_Source/PSoC4/core_cm0.h **** /* check device defines and use defaults */
 138:./Generated_Source/PSoC4/core_cm0.h **** #if defined __CHECK_DEVICE_DEFINES
 139:./Generated_Source/PSoC4/core_cm0.h ****   #ifndef __CM0_REV
 140:./Generated_Source/PSoC4/core_cm0.h ****     #define __CM0_REV               0x0000
 141:./Generated_Source/PSoC4/core_cm0.h ****     #warning "__CM0_REV not defined in device header file; using default!"
 142:./Generated_Source/PSoC4/core_cm0.h ****   #endif
 143:./Generated_Source/PSoC4/core_cm0.h **** 
 144:./Generated_Source/PSoC4/core_cm0.h ****   #ifndef __NVIC_PRIO_BITS
 145:./Generated_Source/PSoC4/core_cm0.h ****     #define __NVIC_PRIO_BITS          2
 146:./Generated_Source/PSoC4/core_cm0.h ****     #warning "__NVIC_PRIO_BITS not defined in device header file; using default!"
 147:./Generated_Source/PSoC4/core_cm0.h ****   #endif
ARM GAS  C:\Users\TSUBAS~1\AppData\Local\Temp\ccZNqQv1.s 			page 4


 148:./Generated_Source/PSoC4/core_cm0.h **** 
 149:./Generated_Source/PSoC4/core_cm0.h ****   #ifndef __Vendor_SysTickConfig
 150:./Generated_Source/PSoC4/core_cm0.h ****     #define __Vendor_SysTickConfig    0
 151:./Generated_Source/PSoC4/core_cm0.h ****     #warning "__Vendor_SysTickConfig not defined in device header file; using default!"
 152:./Generated_Source/PSoC4/core_cm0.h ****   #endif
 153:./Generated_Source/PSoC4/core_cm0.h **** #endif
 154:./Generated_Source/PSoC4/core_cm0.h **** 
 155:./Generated_Source/PSoC4/core_cm0.h **** /* IO definitions (access restrictions to peripheral registers) */
 156:./Generated_Source/PSoC4/core_cm0.h **** /**
 157:./Generated_Source/PSoC4/core_cm0.h ****     \defgroup CMSIS_glob_defs CMSIS Global Defines
 158:./Generated_Source/PSoC4/core_cm0.h **** 
 159:./Generated_Source/PSoC4/core_cm0.h ****     <strong>IO Type Qualifiers</strong> are used
 160:./Generated_Source/PSoC4/core_cm0.h ****     \li to specify the access to peripheral variables.
 161:./Generated_Source/PSoC4/core_cm0.h ****     \li for automatic generation of peripheral register debug information.
 162:./Generated_Source/PSoC4/core_cm0.h **** */
 163:./Generated_Source/PSoC4/core_cm0.h **** #ifdef __cplusplus
 164:./Generated_Source/PSoC4/core_cm0.h ****   #define   __I     volatile             /*!< Defines 'read only' permissions                 */
 165:./Generated_Source/PSoC4/core_cm0.h **** #else
 166:./Generated_Source/PSoC4/core_cm0.h ****   #define   __I     volatile const       /*!< Defines 'read only' permissions                 */
 167:./Generated_Source/PSoC4/core_cm0.h **** #endif
 168:./Generated_Source/PSoC4/core_cm0.h **** #define     __O     volatile             /*!< Defines 'write only' permissions                */
 169:./Generated_Source/PSoC4/core_cm0.h **** #define     __IO    volatile             /*!< Defines 'read / write' permissions              */
 170:./Generated_Source/PSoC4/core_cm0.h **** 
 171:./Generated_Source/PSoC4/core_cm0.h **** /*@} end of group Cortex_M0 */
 172:./Generated_Source/PSoC4/core_cm0.h **** 
 173:./Generated_Source/PSoC4/core_cm0.h **** 
 174:./Generated_Source/PSoC4/core_cm0.h **** 
 175:./Generated_Source/PSoC4/core_cm0.h **** /*******************************************************************************
 176:./Generated_Source/PSoC4/core_cm0.h ****  *                 Register Abstraction
 177:./Generated_Source/PSoC4/core_cm0.h ****   Core Register contain:
 178:./Generated_Source/PSoC4/core_cm0.h ****   - Core Register
 179:./Generated_Source/PSoC4/core_cm0.h ****   - Core NVIC Register
 180:./Generated_Source/PSoC4/core_cm0.h ****   - Core SCB Register
 181:./Generated_Source/PSoC4/core_cm0.h ****   - Core SysTick Register
 182:./Generated_Source/PSoC4/core_cm0.h ****  ******************************************************************************/
 183:./Generated_Source/PSoC4/core_cm0.h **** /** \defgroup CMSIS_core_register Defines and Type Definitions
 184:./Generated_Source/PSoC4/core_cm0.h ****     \brief Type definitions and defines for Cortex-M processor based devices.
 185:./Generated_Source/PSoC4/core_cm0.h **** */
 186:./Generated_Source/PSoC4/core_cm0.h **** 
 187:./Generated_Source/PSoC4/core_cm0.h **** /** \ingroup    CMSIS_core_register
 188:./Generated_Source/PSoC4/core_cm0.h ****     \defgroup   CMSIS_CORE  Status and Control Registers
 189:./Generated_Source/PSoC4/core_cm0.h ****     \brief  Core Register type definitions.
 190:./Generated_Source/PSoC4/core_cm0.h ****   @{
 191:./Generated_Source/PSoC4/core_cm0.h ****  */
 192:./Generated_Source/PSoC4/core_cm0.h **** 
 193:./Generated_Source/PSoC4/core_cm0.h **** /** \brief  Union type to access the Application Program Status Register (APSR).
 194:./Generated_Source/PSoC4/core_cm0.h ****  */
 195:./Generated_Source/PSoC4/core_cm0.h **** typedef union
 196:./Generated_Source/PSoC4/core_cm0.h **** {
 197:./Generated_Source/PSoC4/core_cm0.h ****   struct
 198:./Generated_Source/PSoC4/core_cm0.h ****   {
 199:./Generated_Source/PSoC4/core_cm0.h **** #if (__CORTEX_M != 0x04)
 200:./Generated_Source/PSoC4/core_cm0.h ****     uint32_t _reserved0:27;              /*!< bit:  0..26  Reserved                           */
 201:./Generated_Source/PSoC4/core_cm0.h **** #else
 202:./Generated_Source/PSoC4/core_cm0.h ****     uint32_t _reserved0:16;              /*!< bit:  0..15  Reserved                           */
 203:./Generated_Source/PSoC4/core_cm0.h ****     uint32_t GE:4;                       /*!< bit: 16..19  Greater than or Equal flags        */
 204:./Generated_Source/PSoC4/core_cm0.h ****     uint32_t _reserved1:7;               /*!< bit: 20..26  Reserved                           */
ARM GAS  C:\Users\TSUBAS~1\AppData\Local\Temp\ccZNqQv1.s 			page 5


 205:./Generated_Source/PSoC4/core_cm0.h **** #endif
 206:./Generated_Source/PSoC4/core_cm0.h ****     uint32_t Q:1;                        /*!< bit:     27  Saturation condition flag          */
 207:./Generated_Source/PSoC4/core_cm0.h ****     uint32_t V:1;                        /*!< bit:     28  Overflow condition code flag       */
 208:./Generated_Source/PSoC4/core_cm0.h ****     uint32_t C:1;                        /*!< bit:     29  Carry condition code flag          */
 209:./Generated_Source/PSoC4/core_cm0.h ****     uint32_t Z:1;                        /*!< bit:     30  Zero condition code flag           */
 210:./Generated_Source/PSoC4/core_cm0.h ****     uint32_t N:1;                        /*!< bit:     31  Negative condition code flag       */
 211:./Generated_Source/PSoC4/core_cm0.h ****   } b;                                   /*!< Structure used for bit  access                  */
 212:./Generated_Source/PSoC4/core_cm0.h ****   uint32_t w;                            /*!< Type      used for word access                  */
 213:./Generated_Source/PSoC4/core_cm0.h **** } APSR_Type;
 214:./Generated_Source/PSoC4/core_cm0.h **** 
 215:./Generated_Source/PSoC4/core_cm0.h **** 
 216:./Generated_Source/PSoC4/core_cm0.h **** /** \brief  Union type to access the Interrupt Program Status Register (IPSR).
 217:./Generated_Source/PSoC4/core_cm0.h ****  */
 218:./Generated_Source/PSoC4/core_cm0.h **** typedef union
 219:./Generated_Source/PSoC4/core_cm0.h **** {
 220:./Generated_Source/PSoC4/core_cm0.h ****   struct
 221:./Generated_Source/PSoC4/core_cm0.h ****   {
 222:./Generated_Source/PSoC4/core_cm0.h ****     uint32_t ISR:9;                      /*!< bit:  0.. 8  Exception number                   */
 223:./Generated_Source/PSoC4/core_cm0.h ****     uint32_t _reserved0:23;              /*!< bit:  9..31  Reserved                           */
 224:./Generated_Source/PSoC4/core_cm0.h ****   } b;                                   /*!< Structure used for bit  access                  */
 225:./Generated_Source/PSoC4/core_cm0.h ****   uint32_t w;                            /*!< Type      used for word access                  */
 226:./Generated_Source/PSoC4/core_cm0.h **** } IPSR_Type;
 227:./Generated_Source/PSoC4/core_cm0.h **** 
 228:./Generated_Source/PSoC4/core_cm0.h **** 
 229:./Generated_Source/PSoC4/core_cm0.h **** /** \brief  Union type to access the Special-Purpose Program Status Registers (xPSR).
 230:./Generated_Source/PSoC4/core_cm0.h ****  */
 231:./Generated_Source/PSoC4/core_cm0.h **** typedef union
 232:./Generated_Source/PSoC4/core_cm0.h **** {
 233:./Generated_Source/PSoC4/core_cm0.h ****   struct
 234:./Generated_Source/PSoC4/core_cm0.h ****   {
 235:./Generated_Source/PSoC4/core_cm0.h ****     uint32_t ISR:9;                      /*!< bit:  0.. 8  Exception number                   */
 236:./Generated_Source/PSoC4/core_cm0.h **** #if (__CORTEX_M != 0x04)
 237:./Generated_Source/PSoC4/core_cm0.h ****     uint32_t _reserved0:15;              /*!< bit:  9..23  Reserved                           */
 238:./Generated_Source/PSoC4/core_cm0.h **** #else
 239:./Generated_Source/PSoC4/core_cm0.h ****     uint32_t _reserved0:7;               /*!< bit:  9..15  Reserved                           */
 240:./Generated_Source/PSoC4/core_cm0.h ****     uint32_t GE:4;                       /*!< bit: 16..19  Greater than or Equal flags        */
 241:./Generated_Source/PSoC4/core_cm0.h ****     uint32_t _reserved1:4;               /*!< bit: 20..23  Reserved                           */
 242:./Generated_Source/PSoC4/core_cm0.h **** #endif
 243:./Generated_Source/PSoC4/core_cm0.h ****     uint32_t T:1;                        /*!< bit:     24  Thumb bit        (read 0)          */
 244:./Generated_Source/PSoC4/core_cm0.h ****     uint32_t IT:2;                       /*!< bit: 25..26  saved IT state   (read 0)          */
 245:./Generated_Source/PSoC4/core_cm0.h ****     uint32_t Q:1;                        /*!< bit:     27  Saturation condition flag          */
 246:./Generated_Source/PSoC4/core_cm0.h ****     uint32_t V:1;                        /*!< bit:     28  Overflow condition code flag       */
 247:./Generated_Source/PSoC4/core_cm0.h ****     uint32_t C:1;                        /*!< bit:     29  Carry condition code flag          */
 248:./Generated_Source/PSoC4/core_cm0.h ****     uint32_t Z:1;                        /*!< bit:     30  Zero condition code flag           */
 249:./Generated_Source/PSoC4/core_cm0.h ****     uint32_t N:1;                        /*!< bit:     31  Negative condition code flag       */
 250:./Generated_Source/PSoC4/core_cm0.h ****   } b;                                   /*!< Structure used for bit  access                  */
 251:./Generated_Source/PSoC4/core_cm0.h ****   uint32_t w;                            /*!< Type      used for word access                  */
 252:./Generated_Source/PSoC4/core_cm0.h **** } xPSR_Type;
 253:./Generated_Source/PSoC4/core_cm0.h **** 
 254:./Generated_Source/PSoC4/core_cm0.h **** 
 255:./Generated_Source/PSoC4/core_cm0.h **** /** \brief  Union type to access the Control Registers (CONTROL).
 256:./Generated_Source/PSoC4/core_cm0.h ****  */
 257:./Generated_Source/PSoC4/core_cm0.h **** typedef union
 258:./Generated_Source/PSoC4/core_cm0.h **** {
 259:./Generated_Source/PSoC4/core_cm0.h ****   struct
 260:./Generated_Source/PSoC4/core_cm0.h ****   {
 261:./Generated_Source/PSoC4/core_cm0.h ****     uint32_t nPRIV:1;                    /*!< bit:      0  Execution privilege in Thread mode */
ARM GAS  C:\Users\TSUBAS~1\AppData\Local\Temp\ccZNqQv1.s 			page 6


 262:./Generated_Source/PSoC4/core_cm0.h ****     uint32_t SPSEL:1;                    /*!< bit:      1  Stack to be used                   */
 263:./Generated_Source/PSoC4/core_cm0.h ****     uint32_t FPCA:1;                     /*!< bit:      2  FP extension active flag           */
 264:./Generated_Source/PSoC4/core_cm0.h ****     uint32_t _reserved0:29;              /*!< bit:  3..31  Reserved                           */
 265:./Generated_Source/PSoC4/core_cm0.h ****   } b;                                   /*!< Structure used for bit  access                  */
 266:./Generated_Source/PSoC4/core_cm0.h ****   uint32_t w;                            /*!< Type      used for word access                  */
 267:./Generated_Source/PSoC4/core_cm0.h **** } CONTROL_Type;
 268:./Generated_Source/PSoC4/core_cm0.h **** 
 269:./Generated_Source/PSoC4/core_cm0.h **** /*@} end of group CMSIS_CORE */
 270:./Generated_Source/PSoC4/core_cm0.h **** 
 271:./Generated_Source/PSoC4/core_cm0.h **** 
 272:./Generated_Source/PSoC4/core_cm0.h **** /** \ingroup    CMSIS_core_register
 273:./Generated_Source/PSoC4/core_cm0.h ****     \defgroup   CMSIS_NVIC  Nested Vectored Interrupt Controller (NVIC)
 274:./Generated_Source/PSoC4/core_cm0.h ****     \brief      Type definitions for the NVIC Registers
 275:./Generated_Source/PSoC4/core_cm0.h ****   @{
 276:./Generated_Source/PSoC4/core_cm0.h ****  */
 277:./Generated_Source/PSoC4/core_cm0.h **** 
 278:./Generated_Source/PSoC4/core_cm0.h **** /** \brief  Structure type to access the Nested Vectored Interrupt Controller (NVIC).
 279:./Generated_Source/PSoC4/core_cm0.h ****  */
 280:./Generated_Source/PSoC4/core_cm0.h **** typedef struct
 281:./Generated_Source/PSoC4/core_cm0.h **** {
 282:./Generated_Source/PSoC4/core_cm0.h ****   __IO uint32_t ISER[1];                 /*!< Offset: 0x000 (R/W)  Interrupt Set Enable Register   
 283:./Generated_Source/PSoC4/core_cm0.h ****        uint32_t RESERVED0[31];
 284:./Generated_Source/PSoC4/core_cm0.h ****   __IO uint32_t ICER[1];                 /*!< Offset: 0x080 (R/W)  Interrupt Clear Enable Register 
 285:./Generated_Source/PSoC4/core_cm0.h ****        uint32_t RSERVED1[31];
 286:./Generated_Source/PSoC4/core_cm0.h ****   __IO uint32_t ISPR[1];                 /*!< Offset: 0x100 (R/W)  Interrupt Set Pending Register  
 287:./Generated_Source/PSoC4/core_cm0.h ****        uint32_t RESERVED2[31];
 288:./Generated_Source/PSoC4/core_cm0.h ****   __IO uint32_t ICPR[1];                 /*!< Offset: 0x180 (R/W)  Interrupt Clear Pending Register
 289:./Generated_Source/PSoC4/core_cm0.h ****        uint32_t RESERVED3[31];
 290:./Generated_Source/PSoC4/core_cm0.h ****        uint32_t RESERVED4[64];
 291:./Generated_Source/PSoC4/core_cm0.h ****   __IO uint32_t IP[8];                   /*!< Offset: 0x300 (R/W)  Interrupt Priority Register     
 292:./Generated_Source/PSoC4/core_cm0.h **** }  NVIC_Type;
 293:./Generated_Source/PSoC4/core_cm0.h **** 
 294:./Generated_Source/PSoC4/core_cm0.h **** /*@} end of group CMSIS_NVIC */
 295:./Generated_Source/PSoC4/core_cm0.h **** 
 296:./Generated_Source/PSoC4/core_cm0.h **** 
 297:./Generated_Source/PSoC4/core_cm0.h **** /** \ingroup  CMSIS_core_register
 298:./Generated_Source/PSoC4/core_cm0.h ****     \defgroup CMSIS_SCB     System Control Block (SCB)
 299:./Generated_Source/PSoC4/core_cm0.h ****     \brief      Type definitions for the System Control Block Registers
 300:./Generated_Source/PSoC4/core_cm0.h ****   @{
 301:./Generated_Source/PSoC4/core_cm0.h ****  */
 302:./Generated_Source/PSoC4/core_cm0.h **** 
 303:./Generated_Source/PSoC4/core_cm0.h **** /** \brief  Structure type to access the System Control Block (SCB).
 304:./Generated_Source/PSoC4/core_cm0.h ****  */
 305:./Generated_Source/PSoC4/core_cm0.h **** typedef struct
 306:./Generated_Source/PSoC4/core_cm0.h **** {
 307:./Generated_Source/PSoC4/core_cm0.h ****   __I  uint32_t CPUID;                   /*!< Offset: 0x000 (R/ )  CPUID Base Register             
 308:./Generated_Source/PSoC4/core_cm0.h ****   __IO uint32_t ICSR;                    /*!< Offset: 0x004 (R/W)  Interrupt Control and State Regi
 309:./Generated_Source/PSoC4/core_cm0.h ****        uint32_t RESERVED0;
 310:./Generated_Source/PSoC4/core_cm0.h ****   __IO uint32_t AIRCR;                   /*!< Offset: 0x00C (R/W)  Application Interrupt and Reset 
 311:./Generated_Source/PSoC4/core_cm0.h ****   __IO uint32_t SCR;                     /*!< Offset: 0x010 (R/W)  System Control Register         
 312:./Generated_Source/PSoC4/core_cm0.h ****   __IO uint32_t CCR;                     /*!< Offset: 0x014 (R/W)  Configuration Control Register  
 313:./Generated_Source/PSoC4/core_cm0.h ****        uint32_t RESERVED1;
 314:./Generated_Source/PSoC4/core_cm0.h ****   __IO uint32_t SHP[2];                  /*!< Offset: 0x01C (R/W)  System Handlers Priority Registe
 315:./Generated_Source/PSoC4/core_cm0.h ****   __IO uint32_t SHCSR;                   /*!< Offset: 0x024 (R/W)  System Handler Control and State
 316:./Generated_Source/PSoC4/core_cm0.h **** } SCB_Type;
 317:./Generated_Source/PSoC4/core_cm0.h **** 
 318:./Generated_Source/PSoC4/core_cm0.h **** /* SCB CPUID Register Definitions */
ARM GAS  C:\Users\TSUBAS~1\AppData\Local\Temp\ccZNqQv1.s 			page 7


 319:./Generated_Source/PSoC4/core_cm0.h **** #define SCB_CPUID_IMPLEMENTER_Pos          24                                             /*!< SCB 
 320:./Generated_Source/PSoC4/core_cm0.h **** #define SCB_CPUID_IMPLEMENTER_Msk          (0xFFUL << SCB_CPUID_IMPLEMENTER_Pos)          /*!< SCB 
 321:./Generated_Source/PSoC4/core_cm0.h **** 
 322:./Generated_Source/PSoC4/core_cm0.h **** #define SCB_CPUID_VARIANT_Pos              20                                             /*!< SCB 
 323:./Generated_Source/PSoC4/core_cm0.h **** #define SCB_CPUID_VARIANT_Msk              (0xFUL << SCB_CPUID_VARIANT_Pos)               /*!< SCB 
 324:./Generated_Source/PSoC4/core_cm0.h **** 
 325:./Generated_Source/PSoC4/core_cm0.h **** #define SCB_CPUID_ARCHITECTURE_Pos         16                                             /*!< SCB 
 326:./Generated_Source/PSoC4/core_cm0.h **** #define SCB_CPUID_ARCHITECTURE_Msk         (0xFUL << SCB_CPUID_ARCHITECTURE_Pos)          /*!< SCB 
 327:./Generated_Source/PSoC4/core_cm0.h **** 
 328:./Generated_Source/PSoC4/core_cm0.h **** #define SCB_CPUID_PARTNO_Pos                4                                             /*!< SCB 
 329:./Generated_Source/PSoC4/core_cm0.h **** #define SCB_CPUID_PARTNO_Msk               (0xFFFUL << SCB_CPUID_PARTNO_Pos)              /*!< SCB 
 330:./Generated_Source/PSoC4/core_cm0.h **** 
 331:./Generated_Source/PSoC4/core_cm0.h **** #define SCB_CPUID_REVISION_Pos              0                                             /*!< SCB 
 332:./Generated_Source/PSoC4/core_cm0.h **** #define SCB_CPUID_REVISION_Msk             (0xFUL << SCB_CPUID_REVISION_Pos)              /*!< SCB 
 333:./Generated_Source/PSoC4/core_cm0.h **** 
 334:./Generated_Source/PSoC4/core_cm0.h **** /* SCB Interrupt Control State Register Definitions */
 335:./Generated_Source/PSoC4/core_cm0.h **** #define SCB_ICSR_NMIPENDSET_Pos            31                                             /*!< SCB 
 336:./Generated_Source/PSoC4/core_cm0.h **** #define SCB_ICSR_NMIPENDSET_Msk            (1UL << SCB_ICSR_NMIPENDSET_Pos)               /*!< SCB 
 337:./Generated_Source/PSoC4/core_cm0.h **** 
 338:./Generated_Source/PSoC4/core_cm0.h **** #define SCB_ICSR_PENDSVSET_Pos             28                                             /*!< SCB 
 339:./Generated_Source/PSoC4/core_cm0.h **** #define SCB_ICSR_PENDSVSET_Msk             (1UL << SCB_ICSR_PENDSVSET_Pos)                /*!< SCB 
 340:./Generated_Source/PSoC4/core_cm0.h **** 
 341:./Generated_Source/PSoC4/core_cm0.h **** #define SCB_ICSR_PENDSVCLR_Pos             27                                             /*!< SCB 
 342:./Generated_Source/PSoC4/core_cm0.h **** #define SCB_ICSR_PENDSVCLR_Msk             (1UL << SCB_ICSR_PENDSVCLR_Pos)                /*!< SCB 
 343:./Generated_Source/PSoC4/core_cm0.h **** 
 344:./Generated_Source/PSoC4/core_cm0.h **** #define SCB_ICSR_PENDSTSET_Pos             26                                             /*!< SCB 
 345:./Generated_Source/PSoC4/core_cm0.h **** #define SCB_ICSR_PENDSTSET_Msk             (1UL << SCB_ICSR_PENDSTSET_Pos)                /*!< SCB 
 346:./Generated_Source/PSoC4/core_cm0.h **** 
 347:./Generated_Source/PSoC4/core_cm0.h **** #define SCB_ICSR_PENDSTCLR_Pos             25                                             /*!< SCB 
 348:./Generated_Source/PSoC4/core_cm0.h **** #define SCB_ICSR_PENDSTCLR_Msk             (1UL << SCB_ICSR_PENDSTCLR_Pos)                /*!< SCB 
 349:./Generated_Source/PSoC4/core_cm0.h **** 
 350:./Generated_Source/PSoC4/core_cm0.h **** #define SCB_ICSR_ISRPREEMPT_Pos            23                                             /*!< SCB 
 351:./Generated_Source/PSoC4/core_cm0.h **** #define SCB_ICSR_ISRPREEMPT_Msk            (1UL << SCB_ICSR_ISRPREEMPT_Pos)               /*!< SCB 
 352:./Generated_Source/PSoC4/core_cm0.h **** 
 353:./Generated_Source/PSoC4/core_cm0.h **** #define SCB_ICSR_ISRPENDING_Pos            22                                             /*!< SCB 
 354:./Generated_Source/PSoC4/core_cm0.h **** #define SCB_ICSR_ISRPENDING_Msk            (1UL << SCB_ICSR_ISRPENDING_Pos)               /*!< SCB 
 355:./Generated_Source/PSoC4/core_cm0.h **** 
 356:./Generated_Source/PSoC4/core_cm0.h **** #define SCB_ICSR_VECTPENDING_Pos           12                                             /*!< SCB 
 357:./Generated_Source/PSoC4/core_cm0.h **** #define SCB_ICSR_VECTPENDING_Msk           (0x1FFUL << SCB_ICSR_VECTPENDING_Pos)          /*!< SCB 
 358:./Generated_Source/PSoC4/core_cm0.h **** 
 359:./Generated_Source/PSoC4/core_cm0.h **** #define SCB_ICSR_VECTACTIVE_Pos             0                                             /*!< SCB 
 360:./Generated_Source/PSoC4/core_cm0.h **** #define SCB_ICSR_VECTACTIVE_Msk            (0x1FFUL << SCB_ICSR_VECTACTIVE_Pos)           /*!< SCB 
 361:./Generated_Source/PSoC4/core_cm0.h **** 
 362:./Generated_Source/PSoC4/core_cm0.h **** /* SCB Application Interrupt and Reset Control Register Definitions */
 363:./Generated_Source/PSoC4/core_cm0.h **** #define SCB_AIRCR_VECTKEY_Pos              16                                             /*!< SCB 
 364:./Generated_Source/PSoC4/core_cm0.h **** #define SCB_AIRCR_VECTKEY_Msk              (0xFFFFUL << SCB_AIRCR_VECTKEY_Pos)            /*!< SCB 
 365:./Generated_Source/PSoC4/core_cm0.h **** 
 366:./Generated_Source/PSoC4/core_cm0.h **** #define SCB_AIRCR_VECTKEYSTAT_Pos          16                                             /*!< SCB 
 367:./Generated_Source/PSoC4/core_cm0.h **** #define SCB_AIRCR_VECTKEYSTAT_Msk          (0xFFFFUL << SCB_AIRCR_VECTKEYSTAT_Pos)        /*!< SCB 
 368:./Generated_Source/PSoC4/core_cm0.h **** 
 369:./Generated_Source/PSoC4/core_cm0.h **** #define SCB_AIRCR_ENDIANESS_Pos            15                                             /*!< SCB 
 370:./Generated_Source/PSoC4/core_cm0.h **** #define SCB_AIRCR_ENDIANESS_Msk            (1UL << SCB_AIRCR_ENDIANESS_Pos)               /*!< SCB 
 371:./Generated_Source/PSoC4/core_cm0.h **** 
 372:./Generated_Source/PSoC4/core_cm0.h **** #define SCB_AIRCR_SYSRESETREQ_Pos           2                                             /*!< SCB 
 373:./Generated_Source/PSoC4/core_cm0.h **** #define SCB_AIRCR_SYSRESETREQ_Msk          (1UL << SCB_AIRCR_SYSRESETREQ_Pos)             /*!< SCB 
 374:./Generated_Source/PSoC4/core_cm0.h **** 
 375:./Generated_Source/PSoC4/core_cm0.h **** #define SCB_AIRCR_VECTCLRACTIVE_Pos         1                                             /*!< SCB 
ARM GAS  C:\Users\TSUBAS~1\AppData\Local\Temp\ccZNqQv1.s 			page 8


 376:./Generated_Source/PSoC4/core_cm0.h **** #define SCB_AIRCR_VECTCLRACTIVE_Msk        (1UL << SCB_AIRCR_VECTCLRACTIVE_Pos)           /*!< SCB 
 377:./Generated_Source/PSoC4/core_cm0.h **** 
 378:./Generated_Source/PSoC4/core_cm0.h **** /* SCB System Control Register Definitions */
 379:./Generated_Source/PSoC4/core_cm0.h **** #define SCB_SCR_SEVONPEND_Pos               4                                             /*!< SCB 
 380:./Generated_Source/PSoC4/core_cm0.h **** #define SCB_SCR_SEVONPEND_Msk              (1UL << SCB_SCR_SEVONPEND_Pos)                 /*!< SCB 
 381:./Generated_Source/PSoC4/core_cm0.h **** 
 382:./Generated_Source/PSoC4/core_cm0.h **** #define SCB_SCR_SLEEPDEEP_Pos               2                                             /*!< SCB 
 383:./Generated_Source/PSoC4/core_cm0.h **** #define SCB_SCR_SLEEPDEEP_Msk              (1UL << SCB_SCR_SLEEPDEEP_Pos)                 /*!< SCB 
 384:./Generated_Source/PSoC4/core_cm0.h **** 
 385:./Generated_Source/PSoC4/core_cm0.h **** #define SCB_SCR_SLEEPONEXIT_Pos             1                                             /*!< SCB 
 386:./Generated_Source/PSoC4/core_cm0.h **** #define SCB_SCR_SLEEPONEXIT_Msk            (1UL << SCB_SCR_SLEEPONEXIT_Pos)               /*!< SCB 
 387:./Generated_Source/PSoC4/core_cm0.h **** 
 388:./Generated_Source/PSoC4/core_cm0.h **** /* SCB Configuration Control Register Definitions */
 389:./Generated_Source/PSoC4/core_cm0.h **** #define SCB_CCR_STKALIGN_Pos                9                                             /*!< SCB 
 390:./Generated_Source/PSoC4/core_cm0.h **** #define SCB_CCR_STKALIGN_Msk               (1UL << SCB_CCR_STKALIGN_Pos)                  /*!< SCB 
 391:./Generated_Source/PSoC4/core_cm0.h **** 
 392:./Generated_Source/PSoC4/core_cm0.h **** #define SCB_CCR_UNALIGN_TRP_Pos             3                                             /*!< SCB 
 393:./Generated_Source/PSoC4/core_cm0.h **** #define SCB_CCR_UNALIGN_TRP_Msk            (1UL << SCB_CCR_UNALIGN_TRP_Pos)               /*!< SCB 
 394:./Generated_Source/PSoC4/core_cm0.h **** 
 395:./Generated_Source/PSoC4/core_cm0.h **** /* SCB System Handler Control and State Register Definitions */
 396:./Generated_Source/PSoC4/core_cm0.h **** #define SCB_SHCSR_SVCALLPENDED_Pos         15                                             /*!< SCB 
 397:./Generated_Source/PSoC4/core_cm0.h **** #define SCB_SHCSR_SVCALLPENDED_Msk         (1UL << SCB_SHCSR_SVCALLPENDED_Pos)            /*!< SCB 
 398:./Generated_Source/PSoC4/core_cm0.h **** 
 399:./Generated_Source/PSoC4/core_cm0.h **** /*@} end of group CMSIS_SCB */
 400:./Generated_Source/PSoC4/core_cm0.h **** 
 401:./Generated_Source/PSoC4/core_cm0.h **** 
 402:./Generated_Source/PSoC4/core_cm0.h **** /** \ingroup  CMSIS_core_register
 403:./Generated_Source/PSoC4/core_cm0.h ****     \defgroup CMSIS_SysTick     System Tick Timer (SysTick)
 404:./Generated_Source/PSoC4/core_cm0.h ****     \brief      Type definitions for the System Timer Registers.
 405:./Generated_Source/PSoC4/core_cm0.h ****   @{
 406:./Generated_Source/PSoC4/core_cm0.h ****  */
 407:./Generated_Source/PSoC4/core_cm0.h **** 
 408:./Generated_Source/PSoC4/core_cm0.h **** /** \brief  Structure type to access the System Timer (SysTick).
 409:./Generated_Source/PSoC4/core_cm0.h ****  */
 410:./Generated_Source/PSoC4/core_cm0.h **** typedef struct
 411:./Generated_Source/PSoC4/core_cm0.h **** {
 412:./Generated_Source/PSoC4/core_cm0.h ****   __IO uint32_t CTRL;                    /*!< Offset: 0x000 (R/W)  SysTick Control and Status Regis
 413:./Generated_Source/PSoC4/core_cm0.h ****   __IO uint32_t LOAD;                    /*!< Offset: 0x004 (R/W)  SysTick Reload Value Register   
 414:./Generated_Source/PSoC4/core_cm0.h ****   __IO uint32_t VAL;                     /*!< Offset: 0x008 (R/W)  SysTick Current Value Register  
 415:./Generated_Source/PSoC4/core_cm0.h ****   __I  uint32_t CALIB;                   /*!< Offset: 0x00C (R/ )  SysTick Calibration Register    
 416:./Generated_Source/PSoC4/core_cm0.h **** } SysTick_Type;
 417:./Generated_Source/PSoC4/core_cm0.h **** 
 418:./Generated_Source/PSoC4/core_cm0.h **** /* SysTick Control / Status Register Definitions */
 419:./Generated_Source/PSoC4/core_cm0.h **** #define SysTick_CTRL_COUNTFLAG_Pos         16                                             /*!< SysT
 420:./Generated_Source/PSoC4/core_cm0.h **** #define SysTick_CTRL_COUNTFLAG_Msk         (1UL << SysTick_CTRL_COUNTFLAG_Pos)            /*!< SysT
 421:./Generated_Source/PSoC4/core_cm0.h **** 
 422:./Generated_Source/PSoC4/core_cm0.h **** #define SysTick_CTRL_CLKSOURCE_Pos          2                                             /*!< SysT
 423:./Generated_Source/PSoC4/core_cm0.h **** #define SysTick_CTRL_CLKSOURCE_Msk         (1UL << SysTick_CTRL_CLKSOURCE_Pos)            /*!< SysT
 424:./Generated_Source/PSoC4/core_cm0.h **** 
 425:./Generated_Source/PSoC4/core_cm0.h **** #define SysTick_CTRL_TICKINT_Pos            1                                             /*!< SysT
 426:./Generated_Source/PSoC4/core_cm0.h **** #define SysTick_CTRL_TICKINT_Msk           (1UL << SysTick_CTRL_TICKINT_Pos)              /*!< SysT
 427:./Generated_Source/PSoC4/core_cm0.h **** 
 428:./Generated_Source/PSoC4/core_cm0.h **** #define SysTick_CTRL_ENABLE_Pos             0                                             /*!< SysT
 429:./Generated_Source/PSoC4/core_cm0.h **** #define SysTick_CTRL_ENABLE_Msk            (1UL << SysTick_CTRL_ENABLE_Pos)               /*!< SysT
 430:./Generated_Source/PSoC4/core_cm0.h **** 
 431:./Generated_Source/PSoC4/core_cm0.h **** /* SysTick Reload Register Definitions */
 432:./Generated_Source/PSoC4/core_cm0.h **** #define SysTick_LOAD_RELOAD_Pos             0                                             /*!< SysT
ARM GAS  C:\Users\TSUBAS~1\AppData\Local\Temp\ccZNqQv1.s 			page 9


 433:./Generated_Source/PSoC4/core_cm0.h **** #define SysTick_LOAD_RELOAD_Msk            (0xFFFFFFUL << SysTick_LOAD_RELOAD_Pos)        /*!< SysT
 434:./Generated_Source/PSoC4/core_cm0.h **** 
 435:./Generated_Source/PSoC4/core_cm0.h **** /* SysTick Current Register Definitions */
 436:./Generated_Source/PSoC4/core_cm0.h **** #define SysTick_VAL_CURRENT_Pos             0                                             /*!< SysT
 437:./Generated_Source/PSoC4/core_cm0.h **** #define SysTick_VAL_CURRENT_Msk            (0xFFFFFFUL << SysTick_VAL_CURRENT_Pos)        /*!< SysT
 438:./Generated_Source/PSoC4/core_cm0.h **** 
 439:./Generated_Source/PSoC4/core_cm0.h **** /* SysTick Calibration Register Definitions */
 440:./Generated_Source/PSoC4/core_cm0.h **** #define SysTick_CALIB_NOREF_Pos            31                                             /*!< SysT
 441:./Generated_Source/PSoC4/core_cm0.h **** #define SysTick_CALIB_NOREF_Msk            (1UL << SysTick_CALIB_NOREF_Pos)               /*!< SysT
 442:./Generated_Source/PSoC4/core_cm0.h **** 
 443:./Generated_Source/PSoC4/core_cm0.h **** #define SysTick_CALIB_SKEW_Pos             30                                             /*!< SysT
 444:./Generated_Source/PSoC4/core_cm0.h **** #define SysTick_CALIB_SKEW_Msk             (1UL << SysTick_CALIB_SKEW_Pos)                /*!< SysT
 445:./Generated_Source/PSoC4/core_cm0.h **** 
 446:./Generated_Source/PSoC4/core_cm0.h **** #define SysTick_CALIB_TENMS_Pos             0                                             /*!< SysT
 447:./Generated_Source/PSoC4/core_cm0.h **** #define SysTick_CALIB_TENMS_Msk            (0xFFFFFFUL << SysTick_VAL_CURRENT_Pos)        /*!< SysT
 448:./Generated_Source/PSoC4/core_cm0.h **** 
 449:./Generated_Source/PSoC4/core_cm0.h **** /*@} end of group CMSIS_SysTick */
 450:./Generated_Source/PSoC4/core_cm0.h **** 
 451:./Generated_Source/PSoC4/core_cm0.h **** 
 452:./Generated_Source/PSoC4/core_cm0.h **** /** \ingroup  CMSIS_core_register
 453:./Generated_Source/PSoC4/core_cm0.h ****     \defgroup CMSIS_CoreDebug       Core Debug Registers (CoreDebug)
 454:./Generated_Source/PSoC4/core_cm0.h ****     \brief      Cortex-M0 Core Debug Registers (DCB registers, SHCSR, and DFSR)
 455:./Generated_Source/PSoC4/core_cm0.h ****                 are only accessible over DAP and not via processor. Therefore
 456:./Generated_Source/PSoC4/core_cm0.h ****                 they are not covered by the Cortex-M0 header file.
 457:./Generated_Source/PSoC4/core_cm0.h ****   @{
 458:./Generated_Source/PSoC4/core_cm0.h ****  */
 459:./Generated_Source/PSoC4/core_cm0.h **** /*@} end of group CMSIS_CoreDebug */
 460:./Generated_Source/PSoC4/core_cm0.h **** 
 461:./Generated_Source/PSoC4/core_cm0.h **** 
 462:./Generated_Source/PSoC4/core_cm0.h **** /** \ingroup    CMSIS_core_register
 463:./Generated_Source/PSoC4/core_cm0.h ****     \defgroup   CMSIS_core_base     Core Definitions
 464:./Generated_Source/PSoC4/core_cm0.h ****     \brief      Definitions for base addresses, unions, and structures.
 465:./Generated_Source/PSoC4/core_cm0.h ****   @{
 466:./Generated_Source/PSoC4/core_cm0.h ****  */
 467:./Generated_Source/PSoC4/core_cm0.h **** 
 468:./Generated_Source/PSoC4/core_cm0.h **** /* Memory mapping of Cortex-M0 Hardware */
 469:./Generated_Source/PSoC4/core_cm0.h **** #define SCS_BASE            (0xE000E000UL)                            /*!< System Control Space Bas
 470:./Generated_Source/PSoC4/core_cm0.h **** #define SysTick_BASE        (SCS_BASE +  0x0010UL)                    /*!< SysTick Base Address    
 471:./Generated_Source/PSoC4/core_cm0.h **** #define NVIC_BASE           (SCS_BASE +  0x0100UL)                    /*!< NVIC Base Address       
 472:./Generated_Source/PSoC4/core_cm0.h **** #define SCB_BASE            (SCS_BASE +  0x0D00UL)                    /*!< System Control Block Bas
 473:./Generated_Source/PSoC4/core_cm0.h **** 
 474:./Generated_Source/PSoC4/core_cm0.h **** #define SCB                 ((SCB_Type       *)     SCB_BASE      )   /*!< SCB configuration struct
 475:./Generated_Source/PSoC4/core_cm0.h **** #define SysTick             ((SysTick_Type   *)     SysTick_BASE  )   /*!< SysTick configuration st
 476:./Generated_Source/PSoC4/core_cm0.h **** #define NVIC                ((NVIC_Type      *)     NVIC_BASE     )   /*!< NVIC configuration struc
 477:./Generated_Source/PSoC4/core_cm0.h **** 
 478:./Generated_Source/PSoC4/core_cm0.h **** 
 479:./Generated_Source/PSoC4/core_cm0.h **** /*@} */
 480:./Generated_Source/PSoC4/core_cm0.h **** 
 481:./Generated_Source/PSoC4/core_cm0.h **** 
 482:./Generated_Source/PSoC4/core_cm0.h **** 
 483:./Generated_Source/PSoC4/core_cm0.h **** /*******************************************************************************
 484:./Generated_Source/PSoC4/core_cm0.h ****  *                Hardware Abstraction Layer
 485:./Generated_Source/PSoC4/core_cm0.h ****   Core Function Interface contains:
 486:./Generated_Source/PSoC4/core_cm0.h ****   - Core NVIC Functions
 487:./Generated_Source/PSoC4/core_cm0.h ****   - Core SysTick Functions
 488:./Generated_Source/PSoC4/core_cm0.h ****   - Core Register Access Functions
 489:./Generated_Source/PSoC4/core_cm0.h ****  ******************************************************************************/
ARM GAS  C:\Users\TSUBAS~1\AppData\Local\Temp\ccZNqQv1.s 			page 10


 490:./Generated_Source/PSoC4/core_cm0.h **** /** \defgroup CMSIS_Core_FunctionInterface Functions and Instructions Reference
 491:./Generated_Source/PSoC4/core_cm0.h **** */
 492:./Generated_Source/PSoC4/core_cm0.h **** 
 493:./Generated_Source/PSoC4/core_cm0.h **** 
 494:./Generated_Source/PSoC4/core_cm0.h **** 
 495:./Generated_Source/PSoC4/core_cm0.h **** /* ##########################   NVIC functions  #################################### */
 496:./Generated_Source/PSoC4/core_cm0.h **** /** \ingroup  CMSIS_Core_FunctionInterface
 497:./Generated_Source/PSoC4/core_cm0.h ****     \defgroup CMSIS_Core_NVICFunctions NVIC Functions
 498:./Generated_Source/PSoC4/core_cm0.h ****     \brief      Functions that manage interrupts and exceptions via the NVIC.
 499:./Generated_Source/PSoC4/core_cm0.h ****     @{
 500:./Generated_Source/PSoC4/core_cm0.h ****  */
 501:./Generated_Source/PSoC4/core_cm0.h **** 
 502:./Generated_Source/PSoC4/core_cm0.h **** /* Interrupt Priorities are WORD accessible only under ARMv6M                   */
 503:./Generated_Source/PSoC4/core_cm0.h **** /* The following MACROS handle generation of the register offset and byte masks */
 504:./Generated_Source/PSoC4/core_cm0.h **** #define _BIT_SHIFT(IRQn)         (  (((uint32_t)(IRQn)       )    &  0x03) * 8 )
 505:./Generated_Source/PSoC4/core_cm0.h **** #define _SHP_IDX(IRQn)           ( ((((uint32_t)(IRQn) & 0x0F)-8) >>    2)     )
 506:./Generated_Source/PSoC4/core_cm0.h **** #define _IP_IDX(IRQn)            (   ((uint32_t)(IRQn)            >>    2)     )
 507:./Generated_Source/PSoC4/core_cm0.h **** 
 508:./Generated_Source/PSoC4/core_cm0.h **** 
 509:./Generated_Source/PSoC4/core_cm0.h **** /** \brief  Enable External Interrupt
 510:./Generated_Source/PSoC4/core_cm0.h **** 
 511:./Generated_Source/PSoC4/core_cm0.h ****     The function enables a device-specific interrupt in the NVIC interrupt controller.
 512:./Generated_Source/PSoC4/core_cm0.h **** 
 513:./Generated_Source/PSoC4/core_cm0.h ****     \param [in]      IRQn  External interrupt number. Value cannot be negative.
 514:./Generated_Source/PSoC4/core_cm0.h ****  */
 515:./Generated_Source/PSoC4/core_cm0.h **** __STATIC_INLINE void NVIC_EnableIRQ(IRQn_Type IRQn)
 516:./Generated_Source/PSoC4/core_cm0.h **** {
 517:./Generated_Source/PSoC4/core_cm0.h ****   NVIC->ISER[0] = (1 << ((uint32_t)(IRQn) & 0x1F));
 518:./Generated_Source/PSoC4/core_cm0.h **** }
 519:./Generated_Source/PSoC4/core_cm0.h **** 
 520:./Generated_Source/PSoC4/core_cm0.h **** 
 521:./Generated_Source/PSoC4/core_cm0.h **** /** \brief  Disable External Interrupt
 522:./Generated_Source/PSoC4/core_cm0.h **** 
 523:./Generated_Source/PSoC4/core_cm0.h ****     The function disables a device-specific interrupt in the NVIC interrupt controller.
 524:./Generated_Source/PSoC4/core_cm0.h **** 
 525:./Generated_Source/PSoC4/core_cm0.h ****     \param [in]      IRQn  External interrupt number. Value cannot be negative.
 526:./Generated_Source/PSoC4/core_cm0.h ****  */
 527:./Generated_Source/PSoC4/core_cm0.h **** __STATIC_INLINE void NVIC_DisableIRQ(IRQn_Type IRQn)
 528:./Generated_Source/PSoC4/core_cm0.h **** {
 529:./Generated_Source/PSoC4/core_cm0.h ****   NVIC->ICER[0] = (1 << ((uint32_t)(IRQn) & 0x1F));
 530:./Generated_Source/PSoC4/core_cm0.h **** }
 531:./Generated_Source/PSoC4/core_cm0.h **** 
 532:./Generated_Source/PSoC4/core_cm0.h **** 
 533:./Generated_Source/PSoC4/core_cm0.h **** /** \brief  Get Pending Interrupt
 534:./Generated_Source/PSoC4/core_cm0.h **** 
 535:./Generated_Source/PSoC4/core_cm0.h ****     The function reads the pending register in the NVIC and returns the pending bit
 536:./Generated_Source/PSoC4/core_cm0.h ****     for the specified interrupt.
 537:./Generated_Source/PSoC4/core_cm0.h **** 
 538:./Generated_Source/PSoC4/core_cm0.h ****     \param [in]      IRQn  Interrupt number.
 539:./Generated_Source/PSoC4/core_cm0.h **** 
 540:./Generated_Source/PSoC4/core_cm0.h ****     \return             0  Interrupt status is not pending.
 541:./Generated_Source/PSoC4/core_cm0.h ****     \return             1  Interrupt status is pending.
 542:./Generated_Source/PSoC4/core_cm0.h ****  */
 543:./Generated_Source/PSoC4/core_cm0.h **** __STATIC_INLINE uint32_t NVIC_GetPendingIRQ(IRQn_Type IRQn)
 544:./Generated_Source/PSoC4/core_cm0.h **** {
 545:./Generated_Source/PSoC4/core_cm0.h ****   return((uint32_t) ((NVIC->ISPR[0] & (1 << ((uint32_t)(IRQn) & 0x1F)))?1:0));
 546:./Generated_Source/PSoC4/core_cm0.h **** }
ARM GAS  C:\Users\TSUBAS~1\AppData\Local\Temp\ccZNqQv1.s 			page 11


 547:./Generated_Source/PSoC4/core_cm0.h **** 
 548:./Generated_Source/PSoC4/core_cm0.h **** 
 549:./Generated_Source/PSoC4/core_cm0.h **** /** \brief  Set Pending Interrupt
 550:./Generated_Source/PSoC4/core_cm0.h **** 
 551:./Generated_Source/PSoC4/core_cm0.h ****     The function sets the pending bit of an external interrupt.
 552:./Generated_Source/PSoC4/core_cm0.h **** 
 553:./Generated_Source/PSoC4/core_cm0.h ****     \param [in]      IRQn  Interrupt number. Value cannot be negative.
 554:./Generated_Source/PSoC4/core_cm0.h ****  */
 555:./Generated_Source/PSoC4/core_cm0.h **** __STATIC_INLINE void NVIC_SetPendingIRQ(IRQn_Type IRQn)
 556:./Generated_Source/PSoC4/core_cm0.h **** {
 557:./Generated_Source/PSoC4/core_cm0.h ****   NVIC->ISPR[0] = (1 << ((uint32_t)(IRQn) & 0x1F));
 558:./Generated_Source/PSoC4/core_cm0.h **** }
 559:./Generated_Source/PSoC4/core_cm0.h **** 
 560:./Generated_Source/PSoC4/core_cm0.h **** 
 561:./Generated_Source/PSoC4/core_cm0.h **** /** \brief  Clear Pending Interrupt
 562:./Generated_Source/PSoC4/core_cm0.h **** 
 563:./Generated_Source/PSoC4/core_cm0.h ****     The function clears the pending bit of an external interrupt.
 564:./Generated_Source/PSoC4/core_cm0.h **** 
 565:./Generated_Source/PSoC4/core_cm0.h ****     \param [in]      IRQn  External interrupt number. Value cannot be negative.
 566:./Generated_Source/PSoC4/core_cm0.h ****  */
 567:./Generated_Source/PSoC4/core_cm0.h **** __STATIC_INLINE void NVIC_ClearPendingIRQ(IRQn_Type IRQn)
 568:./Generated_Source/PSoC4/core_cm0.h **** {
 569:./Generated_Source/PSoC4/core_cm0.h ****   NVIC->ICPR[0] = (1 << ((uint32_t)(IRQn) & 0x1F)); /* Clear pending interrupt */
 570:./Generated_Source/PSoC4/core_cm0.h **** }
 571:./Generated_Source/PSoC4/core_cm0.h **** 
 572:./Generated_Source/PSoC4/core_cm0.h **** 
 573:./Generated_Source/PSoC4/core_cm0.h **** /** \brief  Set Interrupt Priority
 574:./Generated_Source/PSoC4/core_cm0.h **** 
 575:./Generated_Source/PSoC4/core_cm0.h ****     The function sets the priority of an interrupt.
 576:./Generated_Source/PSoC4/core_cm0.h **** 
 577:./Generated_Source/PSoC4/core_cm0.h ****     \note The priority cannot be set for every core interrupt.
 578:./Generated_Source/PSoC4/core_cm0.h **** 
 579:./Generated_Source/PSoC4/core_cm0.h ****     \param [in]      IRQn  Interrupt number.
 580:./Generated_Source/PSoC4/core_cm0.h ****     \param [in]  priority  Priority to set.
 581:./Generated_Source/PSoC4/core_cm0.h ****  */
 582:./Generated_Source/PSoC4/core_cm0.h **** __STATIC_INLINE void NVIC_SetPriority(IRQn_Type IRQn, uint32_t priority)
 583:./Generated_Source/PSoC4/core_cm0.h **** {
  25              		.loc 1 583 0
  26              		.cfi_startproc
  27 0000 B0B5     		push	{r4, r5, r7, lr}
  28              	.LCFI0:
  29              		.cfi_def_cfa_offset 16
  30              		.cfi_offset 4, -16
  31              		.cfi_offset 5, -12
  32              		.cfi_offset 7, -8
  33              		.cfi_offset 14, -4
  34 0002 82B0     		sub	sp, sp, #8
  35              	.LCFI1:
  36              		.cfi_def_cfa_offset 24
  37 0004 00AF     		add	r7, sp, #0
  38              	.LCFI2:
  39              		.cfi_def_cfa_register 7
  40 0006 021C     		mov	r2, r0
  41 0008 3960     		str	r1, [r7]
  42 000a FB1D     		add	r3, r7, #7
  43 000c 1A70     		strb	r2, [r3]
 584:./Generated_Source/PSoC4/core_cm0.h ****   if(IRQn < 0) {
ARM GAS  C:\Users\TSUBAS~1\AppData\Local\Temp\ccZNqQv1.s 			page 12


  44              		.loc 1 584 0
  45 000e FB1D     		add	r3, r7, #7
  46 0010 1B78     		ldrb	r3, [r3]
  47 0012 7F2B     		cmp	r3, #127
  48 0014 32D9     		bls	.L2
 585:./Generated_Source/PSoC4/core_cm0.h ****     SCB->SHP[_SHP_IDX(IRQn)] = (SCB->SHP[_SHP_IDX(IRQn)] & ~(0xFF << _BIT_SHIFT(IRQn))) |
  49              		.loc 1 585 0
  50 0016 3049     		ldr	r1, .L4
  51 0018 FB1D     		add	r3, r7, #7
  52 001a 1B78     		ldrb	r3, [r3]
  53 001c 1A1C     		mov	r2, r3
  54 001e 0F23     		mov	r3, #15
  55 0020 1340     		and	r3, r2
  56 0022 083B     		sub	r3, r3, #8
  57 0024 9808     		lsr	r0, r3, #2
  58 0026 2C4A     		ldr	r2, .L4
  59 0028 FB1D     		add	r3, r7, #7
  60 002a 1B78     		ldrb	r3, [r3]
  61 002c 1C1C     		mov	r4, r3
  62 002e 0F23     		mov	r3, #15
  63 0030 2340     		and	r3, r4
  64 0032 083B     		sub	r3, r3, #8
  65 0034 9B08     		lsr	r3, r3, #2
  66 0036 0633     		add	r3, r3, #6
  67 0038 9B00     		lsl	r3, r3, #2
  68 003a D318     		add	r3, r2, r3
  69 003c 5B68     		ldr	r3, [r3, #4]
  70 003e FA1D     		add	r2, r7, #7
  71 0040 1278     		ldrb	r2, [r2]
  72 0042 141C     		mov	r4, r2
  73 0044 0322     		mov	r2, #3
  74 0046 2240     		and	r2, r4
  75 0048 D200     		lsl	r2, r2, #3
  76 004a FF24     		mov	r4, #255
  77 004c 251C     		mov	r5, r4
  78 004e 9540     		lsl	r5, r5, r2
  79 0050 2A1C     		mov	r2, r5
  80 0052 D243     		mvn	r2, r2
  81 0054 1A40     		and	r2, r3
 586:./Generated_Source/PSoC4/core_cm0.h ****         (((priority << (8 - __NVIC_PRIO_BITS)) & 0xFF) << _BIT_SHIFT(IRQn)); }
  82              		.loc 1 586 0
  83 0056 3B68     		ldr	r3, [r7]
  84 0058 9C01     		lsl	r4, r3, #6
  85 005a FF23     		mov	r3, #255
  86 005c 1C40     		and	r4, r3
  87 005e FB1D     		add	r3, r7, #7
  88 0060 1B78     		ldrb	r3, [r3]
  89 0062 1D1C     		mov	r5, r3
  90 0064 0323     		mov	r3, #3
  91 0066 2B40     		and	r3, r5
  92 0068 DB00     		lsl	r3, r3, #3
  93 006a 251C     		mov	r5, r4
  94 006c 9D40     		lsl	r5, r5, r3
  95 006e 2B1C     		mov	r3, r5
 585:./Generated_Source/PSoC4/core_cm0.h ****     SCB->SHP[_SHP_IDX(IRQn)] = (SCB->SHP[_SHP_IDX(IRQn)] & ~(0xFF << _BIT_SHIFT(IRQn))) |
  96              		.loc 1 585 0
  97 0070 1A43     		orr	r2, r3
ARM GAS  C:\Users\TSUBAS~1\AppData\Local\Temp\ccZNqQv1.s 			page 13


  98 0072 831D     		add	r3, r0, #6
  99 0074 9B00     		lsl	r3, r3, #2
 100 0076 CB18     		add	r3, r1, r3
 101 0078 5A60     		str	r2, [r3, #4]
 102 007a 29E0     		b	.L1
 103              	.L2:
 587:./Generated_Source/PSoC4/core_cm0.h ****   else {
 588:./Generated_Source/PSoC4/core_cm0.h ****     NVIC->IP[_IP_IDX(IRQn)] = (NVIC->IP[_IP_IDX(IRQn)] & ~(0xFF << _BIT_SHIFT(IRQn))) |
 104              		.loc 1 588 0
 105 007c 174B     		ldr	r3, .L4+4
 106 007e FA1D     		add	r2, r7, #7
 107 0080 1278     		ldrb	r2, [r2]
 108 0082 52B2     		sxtb	r2, r2
 109 0084 9208     		lsr	r2, r2, #2
 110 0086 1549     		ldr	r1, .L4+4
 111 0088 F81D     		add	r0, r7, #7
 112 008a 0078     		ldrb	r0, [r0]
 113 008c 40B2     		sxtb	r0, r0
 114 008e 8008     		lsr	r0, r0, #2
 115 0090 C030     		add	r0, r0, #192
 116 0092 8000     		lsl	r0, r0, #2
 117 0094 4158     		ldr	r1, [r0, r1]
 118 0096 F81D     		add	r0, r7, #7
 119 0098 0078     		ldrb	r0, [r0]
 120 009a 041C     		mov	r4, r0
 121 009c 0320     		mov	r0, #3
 122 009e 2040     		and	r0, r4
 123 00a0 C000     		lsl	r0, r0, #3
 124 00a2 FF24     		mov	r4, #255
 125 00a4 251C     		mov	r5, r4
 126 00a6 8540     		lsl	r5, r5, r0
 127 00a8 281C     		mov	r0, r5
 128 00aa C043     		mvn	r0, r0
 129 00ac 0840     		and	r0, r1
 589:./Generated_Source/PSoC4/core_cm0.h ****         (((priority << (8 - __NVIC_PRIO_BITS)) & 0xFF) << _BIT_SHIFT(IRQn)); }
 130              		.loc 1 589 0
 131 00ae 3968     		ldr	r1, [r7]
 132 00b0 8C01     		lsl	r4, r1, #6
 133 00b2 FF21     		mov	r1, #255
 134 00b4 0C40     		and	r4, r1
 135 00b6 F91D     		add	r1, r7, #7
 136 00b8 0978     		ldrb	r1, [r1]
 137 00ba 0D1C     		mov	r5, r1
 138 00bc 0321     		mov	r1, #3
 139 00be 2940     		and	r1, r5
 140 00c0 C900     		lsl	r1, r1, #3
 141 00c2 251C     		mov	r5, r4
 142 00c4 8D40     		lsl	r5, r5, r1
 143 00c6 291C     		mov	r1, r5
 588:./Generated_Source/PSoC4/core_cm0.h ****     NVIC->IP[_IP_IDX(IRQn)] = (NVIC->IP[_IP_IDX(IRQn)] & ~(0xFF << _BIT_SHIFT(IRQn))) |
 144              		.loc 1 588 0
 145 00c8 0143     		orr	r1, r0
 146 00ca C032     		add	r2, r2, #192
 147 00cc 9200     		lsl	r2, r2, #2
 148 00ce D150     		str	r1, [r2, r3]
 149              	.L1:
 590:./Generated_Source/PSoC4/core_cm0.h **** }
ARM GAS  C:\Users\TSUBAS~1\AppData\Local\Temp\ccZNqQv1.s 			page 14


 150              		.loc 1 590 0
 151 00d0 BD46     		mov	sp, r7
 152 00d2 02B0     		add	sp, sp, #8
 153              		@ sp needed for prologue
 154 00d4 B0BD     		pop	{r4, r5, r7, pc}
 155              	.L5:
 156 00d6 C046     		.align	2
 157              	.L4:
 158 00d8 00ED00E0 		.word	-536810240
 159 00dc 00E100E0 		.word	-536813312
 160              		.cfi_endproc
 161              	.LFE29:
 162              		.size	NVIC_SetPriority, .-NVIC_SetPriority
 163              		.section	.text.SysTick_Config,"ax",%progbits
 164              		.align	2
 165              		.code	16
 166              		.thumb_func
 167              		.type	SysTick_Config, %function
 168              	SysTick_Config:
 169              	.LFB32:
 591:./Generated_Source/PSoC4/core_cm0.h **** 
 592:./Generated_Source/PSoC4/core_cm0.h **** 
 593:./Generated_Source/PSoC4/core_cm0.h **** /** \brief  Get Interrupt Priority
 594:./Generated_Source/PSoC4/core_cm0.h **** 
 595:./Generated_Source/PSoC4/core_cm0.h ****     The function reads the priority of an interrupt. The interrupt
 596:./Generated_Source/PSoC4/core_cm0.h ****     number can be positive to specify an external (device specific)
 597:./Generated_Source/PSoC4/core_cm0.h ****     interrupt, or negative to specify an internal (core) interrupt.
 598:./Generated_Source/PSoC4/core_cm0.h **** 
 599:./Generated_Source/PSoC4/core_cm0.h **** 
 600:./Generated_Source/PSoC4/core_cm0.h ****     \param [in]   IRQn  Interrupt number.
 601:./Generated_Source/PSoC4/core_cm0.h ****     \return             Interrupt Priority. Value is aligned automatically to the implemented
 602:./Generated_Source/PSoC4/core_cm0.h ****                         priority bits of the microcontroller.
 603:./Generated_Source/PSoC4/core_cm0.h ****  */
 604:./Generated_Source/PSoC4/core_cm0.h **** __STATIC_INLINE uint32_t NVIC_GetPriority(IRQn_Type IRQn)
 605:./Generated_Source/PSoC4/core_cm0.h **** {
 606:./Generated_Source/PSoC4/core_cm0.h **** 
 607:./Generated_Source/PSoC4/core_cm0.h ****   if(IRQn < 0) {
 608:./Generated_Source/PSoC4/core_cm0.h ****     return((uint32_t)(((SCB->SHP[_SHP_IDX(IRQn)] >> _BIT_SHIFT(IRQn) ) & 0xFF) >> (8 - __NVIC_PRIO_
 609:./Generated_Source/PSoC4/core_cm0.h ****   else {
 610:./Generated_Source/PSoC4/core_cm0.h ****     return((uint32_t)(((NVIC->IP[ _IP_IDX(IRQn)] >> _BIT_SHIFT(IRQn) ) & 0xFF) >> (8 - __NVIC_PRIO_
 611:./Generated_Source/PSoC4/core_cm0.h **** }
 612:./Generated_Source/PSoC4/core_cm0.h **** 
 613:./Generated_Source/PSoC4/core_cm0.h **** 
 614:./Generated_Source/PSoC4/core_cm0.h **** /** \brief  System Reset
 615:./Generated_Source/PSoC4/core_cm0.h **** 
 616:./Generated_Source/PSoC4/core_cm0.h ****     The function initiates a system reset request to reset the MCU.
 617:./Generated_Source/PSoC4/core_cm0.h ****  */
 618:./Generated_Source/PSoC4/core_cm0.h **** __STATIC_INLINE void NVIC_SystemReset(void)
 619:./Generated_Source/PSoC4/core_cm0.h **** {
 620:./Generated_Source/PSoC4/core_cm0.h ****   __DSB();                                                     /* Ensure all outstanding memory acc
 621:./Generated_Source/PSoC4/core_cm0.h ****                                                                   buffered write are completed befo
 622:./Generated_Source/PSoC4/core_cm0.h ****   SCB->AIRCR  = ((0x5FA << SCB_AIRCR_VECTKEY_Pos)      |
 623:./Generated_Source/PSoC4/core_cm0.h ****                  SCB_AIRCR_SYSRESETREQ_Msk);
 624:./Generated_Source/PSoC4/core_cm0.h ****   __DSB();                                                     /* Ensure completion of memory acces
 625:./Generated_Source/PSoC4/core_cm0.h ****   while(1);                                                    /* wait until reset */
 626:./Generated_Source/PSoC4/core_cm0.h **** }
 627:./Generated_Source/PSoC4/core_cm0.h **** 
ARM GAS  C:\Users\TSUBAS~1\AppData\Local\Temp\ccZNqQv1.s 			page 15


 628:./Generated_Source/PSoC4/core_cm0.h **** /*@} end of CMSIS_Core_NVICFunctions */
 629:./Generated_Source/PSoC4/core_cm0.h **** 
 630:./Generated_Source/PSoC4/core_cm0.h **** 
 631:./Generated_Source/PSoC4/core_cm0.h **** 
 632:./Generated_Source/PSoC4/core_cm0.h **** /* ##################################    SysTick function  ########################################
 633:./Generated_Source/PSoC4/core_cm0.h **** /** \ingroup  CMSIS_Core_FunctionInterface
 634:./Generated_Source/PSoC4/core_cm0.h ****     \defgroup CMSIS_Core_SysTickFunctions SysTick Functions
 635:./Generated_Source/PSoC4/core_cm0.h ****     \brief      Functions that configure the System.
 636:./Generated_Source/PSoC4/core_cm0.h ****   @{
 637:./Generated_Source/PSoC4/core_cm0.h ****  */
 638:./Generated_Source/PSoC4/core_cm0.h **** 
 639:./Generated_Source/PSoC4/core_cm0.h **** #if (__Vendor_SysTickConfig == 0)
 640:./Generated_Source/PSoC4/core_cm0.h **** 
 641:./Generated_Source/PSoC4/core_cm0.h **** /** \brief  System Tick Configuration
 642:./Generated_Source/PSoC4/core_cm0.h **** 
 643:./Generated_Source/PSoC4/core_cm0.h ****     The function initializes the System Timer and its interrupt, and starts the System Tick Timer.
 644:./Generated_Source/PSoC4/core_cm0.h ****     Counter is in free running mode to generate periodic interrupts.
 645:./Generated_Source/PSoC4/core_cm0.h **** 
 646:./Generated_Source/PSoC4/core_cm0.h ****     \param [in]  ticks  Number of ticks between two interrupts.
 647:./Generated_Source/PSoC4/core_cm0.h **** 
 648:./Generated_Source/PSoC4/core_cm0.h ****     \return          0  Function succeeded.
 649:./Generated_Source/PSoC4/core_cm0.h ****     \return          1  Function failed.
 650:./Generated_Source/PSoC4/core_cm0.h **** 
 651:./Generated_Source/PSoC4/core_cm0.h ****     \note     When the variable <b>__Vendor_SysTickConfig</b> is set to 1, then the
 652:./Generated_Source/PSoC4/core_cm0.h ****     function <b>SysTick_Config</b> is not included. In this case, the file <b><i>device</i>.h</b>
 653:./Generated_Source/PSoC4/core_cm0.h ****     must contain a vendor-specific implementation of this function.
 654:./Generated_Source/PSoC4/core_cm0.h **** 
 655:./Generated_Source/PSoC4/core_cm0.h ****  */
 656:./Generated_Source/PSoC4/core_cm0.h **** __STATIC_INLINE uint32_t SysTick_Config(uint32_t ticks)
 657:./Generated_Source/PSoC4/core_cm0.h **** {
 170              		.loc 1 657 0
 171              		.cfi_startproc
 172 0000 80B5     		push	{r7, lr}
 173              	.LCFI3:
 174              		.cfi_def_cfa_offset 8
 175              		.cfi_offset 7, -8
 176              		.cfi_offset 14, -4
 177 0002 82B0     		sub	sp, sp, #8
 178              	.LCFI4:
 179              		.cfi_def_cfa_offset 16
 180 0004 00AF     		add	r7, sp, #0
 181              	.LCFI5:
 182              		.cfi_def_cfa_register 7
 183 0006 7860     		str	r0, [r7, #4]
 658:./Generated_Source/PSoC4/core_cm0.h ****   if ((ticks - 1) > SysTick_LOAD_RELOAD_Msk)  return (1);      /* Reload value impossible */
 184              		.loc 1 658 0
 185 0008 7B68     		ldr	r3, [r7, #4]
 186 000a 5A1E     		sub	r2, r3, #1
 187 000c 0C4B     		ldr	r3, .L9
 188 000e 9A42     		cmp	r2, r3
 189 0010 01D9     		bls	.L7
 190              		.loc 1 658 0 is_stmt 0 discriminator 1
 191 0012 0123     		mov	r3, #1
 192 0014 10E0     		b	.L8
 193              	.L7:
 659:./Generated_Source/PSoC4/core_cm0.h **** 
 660:./Generated_Source/PSoC4/core_cm0.h ****   SysTick->LOAD  = ticks - 1;                                  /* set reload register */
ARM GAS  C:\Users\TSUBAS~1\AppData\Local\Temp\ccZNqQv1.s 			page 16


 194              		.loc 1 660 0 is_stmt 1
 195 0016 0B4B     		ldr	r3, .L9+4
 196 0018 7A68     		ldr	r2, [r7, #4]
 197 001a 013A     		sub	r2, r2, #1
 198 001c 5A60     		str	r2, [r3, #4]
 661:./Generated_Source/PSoC4/core_cm0.h ****   NVIC_SetPriority (SysTick_IRQn, (1<<__NVIC_PRIO_BITS) - 1);  /* set Priority for Systick Interrup
 199              		.loc 1 661 0
 200 001e 0123     		mov	r3, #1
 201 0020 5B42     		neg	r3, r3
 202 0022 181C     		mov	r0, r3
 203 0024 0321     		mov	r1, #3
 204 0026 FFF7FEFF 		bl	NVIC_SetPriority
 662:./Generated_Source/PSoC4/core_cm0.h ****   SysTick->VAL   = 0;                                          /* Load the SysTick Counter Value */
 205              		.loc 1 662 0
 206 002a 064B     		ldr	r3, .L9+4
 207 002c 0022     		mov	r2, #0
 208 002e 9A60     		str	r2, [r3, #8]
 663:./Generated_Source/PSoC4/core_cm0.h ****   SysTick->CTRL  = SysTick_CTRL_CLKSOURCE_Msk |
 209              		.loc 1 663 0
 210 0030 044B     		ldr	r3, .L9+4
 211 0032 0722     		mov	r2, #7
 212 0034 1A60     		str	r2, [r3]
 664:./Generated_Source/PSoC4/core_cm0.h ****                    SysTick_CTRL_TICKINT_Msk   |
 665:./Generated_Source/PSoC4/core_cm0.h ****                    SysTick_CTRL_ENABLE_Msk;                    /* Enable SysTick IRQ and SysTick Ti
 666:./Generated_Source/PSoC4/core_cm0.h ****   return (0);                                                  /* Function successful */
 213              		.loc 1 666 0
 214 0036 0023     		mov	r3, #0
 215              	.L8:
 667:./Generated_Source/PSoC4/core_cm0.h **** }
 216              		.loc 1 667 0
 217 0038 181C     		mov	r0, r3
 218 003a BD46     		mov	sp, r7
 219 003c 02B0     		add	sp, sp, #8
 220              		@ sp needed for prologue
 221 003e 80BD     		pop	{r7, pc}
 222              	.L10:
 223              		.align	2
 224              	.L9:
 225 0040 FFFFFF00 		.word	16777215
 226 0044 10E000E0 		.word	-536813552
 227              		.cfi_endproc
 228              	.LFE32:
 229              		.size	SysTick_Config, .-SysTick_Config
 230              		.comm	onboardLED,3,4
 231              		.global	initLed
 232              		.data
 233              		.align	2
 234              		.type	initLed, %object
 235              		.size	initLed, 30
 236              	initLed:
 237 0000 00       		.byte	0
 238 0001 0F       		.byte	15
 239 0002 00       		.byte	0
 240 0003 0F       		.byte	15
 241 0004 00       		.byte	0
 242 0005 00       		.byte	0
 243 0006 00       		.byte	0
ARM GAS  C:\Users\TSUBAS~1\AppData\Local\Temp\ccZNqQv1.s 			page 17


 244 0007 00       		.byte	0
 245 0008 0F       		.byte	15
 246 0009 0F       		.byte	15
 247 000a 0F       		.byte	15
 248 000b 0F       		.byte	15
 249 000c 01       		.byte	1
 250 000d 01       		.byte	1
 251 000e 01       		.byte	1
 252 000f 00       		.byte	0
 253 0010 08       		.byte	8
 254 0011 08       		.byte	8
 255 0012 08       		.byte	8
 256 0013 08       		.byte	8
 257 0014 00       		.byte	0
 258 0015 08       		.byte	8
 259 0016 00       		.byte	0
 260 0017 08       		.byte	8
 261 0018 08       		.byte	8
 262 0019 08       		.byte	8
 263 001a 08       		.byte	8
 264 001b 08       		.byte	8
 265 001c 08       		.byte	8
 266 001d 08       		.byte	8
 267              		.comm	led,30,4
 268              		.comm	curPos,1,1
 269              		.global	sampleTimeout
 270              		.bss
 271              		.align	2
 272              		.type	sampleTimeout, %object
 273              		.size	sampleTimeout, 4
 274              	sampleTimeout:
 275 0000 00000000 		.space	4
 276              		.global	buttonTimeout
 277              		.type	buttonTimeout, %object
 278              		.size	buttonTimeout, 1
 279              	buttonTimeout:
 280 0004 00       		.space	1
 281              		.global	mode
 282              		.type	mode, %object
 283              		.size	mode, 1
 284              	mode:
 285 0005 00       		.space	1
 286 0006 0000     		.section	.text.WSDriverWriteByte,"ax",%progbits
 287              		.align	2
 288              		.global	WSDriverWriteByte
 289              		.code	16
 290              		.thumb_func
 291              		.type	WSDriverWriteByte, %function
 292              	WSDriverWriteByte:
 293              	.LFB33:
 294              		.file 2 ".\\main.c"
   1:.\main.c      **** /* ========================================
   2:.\main.c      ****  *
   3:.\main.c      ****  * Copyright YOUR COMPANY, THE YEAR
   4:.\main.c      ****  * All Rights Reserved
   5:.\main.c      ****  * UNPUBLISHED, LICENSED SOFTWARE.
   6:.\main.c      ****  *
ARM GAS  C:\Users\TSUBAS~1\AppData\Local\Temp\ccZNqQv1.s 			page 18


   7:.\main.c      ****  * CONFIDENTIAL AND PROPRIETARY INFORMATION
   8:.\main.c      ****  * WHICH IS THE PROPERTY OF your company.
   9:.\main.c      ****  *
  10:.\main.c      ****  * ========================================
  11:.\main.c      **** */
  12:.\main.c      **** #include <project.h>
  13:.\main.c      **** #include <string.h>
  14:.\main.c      **** 
  15:.\main.c      **** #define TIMEOUT     250
  16:.\main.c      **** #define BUTTON_SCAN 20
  17:.\main.c      **** #define LED_LENGTH  10
  18:.\main.c      **** 
  19:.\main.c      **** #define BUSY        0x1
  20:.\main.c      **** #define FIFO_FULL   0x2
  21:.\main.c      **** #define FIFO_EMPTY  0x4
  22:.\main.c      **** 
  23:.\main.c      **** // LED1RGB
  24:.\main.c      **** typedef struct _rgb{
  25:.\main.c      ****     uint8 g;
  26:.\main.c      ****     uint8 r;
  27:.\main.c      ****     uint8 b;
  28:.\main.c      **** }rgb_tag;
  29:.\main.c      **** 
  30:.\main.c      **** rgb_tag onboardLED;
  31:.\main.c      **** rgb_tag initLed[LED_LENGTH] = {
  32:.\main.c      ****     { 0x00, 0x0f, 0x00},
  33:.\main.c      ****     { 0x0f, 0x00, 0x00},
  34:.\main.c      ****     { 0x00, 0x00, 0x0f},
  35:.\main.c      ****     { 0x0f, 0x0f, 0x0f},
  36:.\main.c      ****     { 0x01, 0x01, 0x01},
  37:.\main.c      ****     { 0x00, 0x08, 0x08},
  38:.\main.c      ****     { 0x08, 0x08, 0x00},
  39:.\main.c      ****     { 0x08, 0x00, 0x08},
  40:.\main.c      ****     { 0x08, 0x08, 0x08},
  41:.\main.c      ****     { 0x08, 0x08, 0x08}
  42:.\main.c      **** };    // LED
  43:.\main.c      **** rgb_tag led[LED_LENGTH];
  44:.\main.c      **** 
  45:.\main.c      **** // 
  46:.\main.c      **** uint8 curPos;
  47:.\main.c      **** uint32 sampleTimeout = 0;
  48:.\main.c      **** uint8 buttonTimeout = 0;
  49:.\main.c      **** uint8 mode = 0;
  50:.\main.c      **** 
  51:.\main.c      **** // WS28121
  52:.\main.c      **** void WSDriverWriteByte(uint8 val){
 295              		.loc 2 52 0
 296              		.cfi_startproc
 297 0000 80B5     		push	{r7, lr}
 298              	.LCFI6:
 299              		.cfi_def_cfa_offset 8
 300              		.cfi_offset 7, -8
 301              		.cfi_offset 14, -4
 302 0002 82B0     		sub	sp, sp, #8
 303              	.LCFI7:
 304              		.cfi_def_cfa_offset 16
 305 0004 00AF     		add	r7, sp, #0
ARM GAS  C:\Users\TSUBAS~1\AppData\Local\Temp\ccZNqQv1.s 			page 19


 306              	.LCFI8:
 307              		.cfi_def_cfa_register 7
 308 0006 021C     		mov	r2, r0
 309 0008 FB1D     		add	r3, r7, #7
 310 000a 1A70     		strb	r2, [r3]
  53:.\main.c      ****         while(Status_Reg_1_Read()&FIFO_FULL){   // FIFO
 311              		.loc 2 53 0
 312 000c C046     		mov	r8, r8
 313              	.L12:
 314              		.loc 2 53 0 is_stmt 0 discriminator 1
 315 000e FFF7FEFF 		bl	Status_Reg_1_Read
 316 0012 031C     		mov	r3, r0
 317 0014 1A1C     		mov	r2, r3
 318 0016 0223     		mov	r3, #2
 319 0018 1340     		and	r3, r2
 320 001a F8D1     		bne	.L12
  54:.\main.c      ****             ;
  55:.\main.c      ****         }
  56:.\main.c      ****         CY_SET_REG8(WS2812driver_1_shifter_u0__F0_REG, val);
 321              		.loc 2 56 0 is_stmt 1
 322 001c 034B     		ldr	r3, .L13
 323 001e FA1D     		add	r2, r7, #7
 324 0020 1278     		ldrb	r2, [r2]
 325 0022 1A70     		strb	r2, [r3]
  57:.\main.c      **** }
 326              		.loc 2 57 0
 327 0024 BD46     		mov	sp, r7
 328 0026 02B0     		add	sp, sp, #8
 329              		@ sp needed for prologue
 330 0028 80BD     		pop	{r7, pc}
 331              	.L14:
 332 002a C046     		.align	2
 333              	.L13:
 334 002c 42000F40 		.word	1074724930
 335              		.cfi_endproc
 336              	.LFE33:
 337              		.size	WSDriverWriteByte, .-WSDriverWriteByte
 338              		.section	.text.sendPixels,"ax",%progbits
 339              		.align	2
 340              		.global	sendPixels
 341              		.code	16
 342              		.thumb_func
 343              		.type	sendPixels, %function
 344              	sendPixels:
 345              	.LFB34:
  58:.\main.c      **** 
  59:.\main.c      **** // WS2812
  60:.\main.c      **** void sendPixels(rgb_tag *rgb_tag, uint32 length){
 346              		.loc 2 60 0
 347              		.cfi_startproc
 348 0000 80B5     		push	{r7, lr}
 349              	.LCFI9:
 350              		.cfi_def_cfa_offset 8
 351              		.cfi_offset 7, -8
 352              		.cfi_offset 14, -4
 353 0002 84B0     		sub	sp, sp, #16
 354              	.LCFI10:
ARM GAS  C:\Users\TSUBAS~1\AppData\Local\Temp\ccZNqQv1.s 			page 20


 355              		.cfi_def_cfa_offset 24
 356 0004 00AF     		add	r7, sp, #0
 357              	.LCFI11:
 358              		.cfi_def_cfa_register 7
 359 0006 7860     		str	r0, [r7, #4]
 360 0008 3960     		str	r1, [r7]
  61:.\main.c      ****     uint32 i;
  62:.\main.c      ****     for(i=0;i<length;i++){
 361              		.loc 2 62 0
 362 000a 0023     		mov	r3, #0
 363 000c FB60     		str	r3, [r7, #12]
 364 000e 20E0     		b	.L16
 365              	.L17:
  63:.\main.c      ****         WSDriverWriteByte(rgb_tag[i].g);
 366              		.loc 2 63 0 discriminator 2
 367 0010 FA68     		ldr	r2, [r7, #12]
 368 0012 131C     		mov	r3, r2
 369 0014 5B00     		lsl	r3, r3, #1
 370 0016 9B18     		add	r3, r3, r2
 371 0018 7A68     		ldr	r2, [r7, #4]
 372 001a D318     		add	r3, r2, r3
 373 001c 1B78     		ldrb	r3, [r3]
 374 001e 181C     		mov	r0, r3
 375 0020 FFF7FEFF 		bl	WSDriverWriteByte
  64:.\main.c      ****         WSDriverWriteByte(rgb_tag[i].r);
 376              		.loc 2 64 0 discriminator 2
 377 0024 FA68     		ldr	r2, [r7, #12]
 378 0026 131C     		mov	r3, r2
 379 0028 5B00     		lsl	r3, r3, #1
 380 002a 9B18     		add	r3, r3, r2
 381 002c 7A68     		ldr	r2, [r7, #4]
 382 002e D318     		add	r3, r2, r3
 383 0030 5B78     		ldrb	r3, [r3, #1]
 384 0032 181C     		mov	r0, r3
 385 0034 FFF7FEFF 		bl	WSDriverWriteByte
  65:.\main.c      ****         WSDriverWriteByte(rgb_tag[i].b);
 386              		.loc 2 65 0 discriminator 2
 387 0038 FA68     		ldr	r2, [r7, #12]
 388 003a 131C     		mov	r3, r2
 389 003c 5B00     		lsl	r3, r3, #1
 390 003e 9B18     		add	r3, r3, r2
 391 0040 7A68     		ldr	r2, [r7, #4]
 392 0042 D318     		add	r3, r2, r3
 393 0044 9B78     		ldrb	r3, [r3, #2]
 394 0046 181C     		mov	r0, r3
 395 0048 FFF7FEFF 		bl	WSDriverWriteByte
  62:.\main.c      ****     for(i=0;i<length;i++){
 396              		.loc 2 62 0 discriminator 2
 397 004c FB68     		ldr	r3, [r7, #12]
 398 004e 0133     		add	r3, r3, #1
 399 0050 FB60     		str	r3, [r7, #12]
 400              	.L16:
  62:.\main.c      ****     for(i=0;i<length;i++){
 401              		.loc 2 62 0 is_stmt 0 discriminator 1
 402 0052 FA68     		ldr	r2, [r7, #12]
 403 0054 3B68     		ldr	r3, [r7]
 404 0056 9A42     		cmp	r2, r3
ARM GAS  C:\Users\TSUBAS~1\AppData\Local\Temp\ccZNqQv1.s 			page 21


 405 0058 DAD3     		bcc	.L17
  66:.\main.c      ****     }
  67:.\main.c      **** }
 406              		.loc 2 67 0 is_stmt 1
 407 005a BD46     		mov	sp, r7
 408 005c 04B0     		add	sp, sp, #16
 409              		@ sp needed for prologue
 410 005e 80BD     		pop	{r7, pc}
 411              		.cfi_endproc
 412              	.LFE34:
 413              		.size	sendPixels, .-sendPixels
 414              		.section	.text.refreshLED,"ax",%progbits
 415              		.align	2
 416              		.global	refreshLED
 417              		.code	16
 418              		.thumb_func
 419              		.type	refreshLED, %function
 420              	refreshLED:
 421              	.LFB35:
  68:.\main.c      **** 
  69:.\main.c      **** void refreshLED(){
 422              		.loc 2 69 0
 423              		.cfi_startproc
 424 0000 90B5     		push	{r4, r7, lr}
 425              	.LCFI12:
 426              		.cfi_def_cfa_offset 12
 427              		.cfi_offset 4, -12
 428              		.cfi_offset 7, -8
 429              		.cfi_offset 14, -4
 430 0002 83B0     		sub	sp, sp, #12
 431              	.LCFI13:
 432              		.cfi_def_cfa_offset 24
 433 0004 00AF     		add	r7, sp, #0
 434              	.LCFI14:
 435              		.cfi_def_cfa_register 7
  70:.\main.c      ****     int i;
  71:.\main.c      ****     
  72:.\main.c      ****     if(mode){
 436              		.loc 2 72 0
 437 0006 394B     		ldr	r3, .L26
 438 0008 1B78     		ldrb	r3, [r3]
 439 000a 002B     		cmp	r3, #0
 440 000c 3FD0     		beq	.L19
  73:.\main.c      ****         // LED1
  74:.\main.c      ****         for(i=LED_LENGTH-1;i>0;i--){
 441              		.loc 2 74 0
 442 000e 0923     		mov	r3, #9
 443 0010 7B60     		str	r3, [r7, #4]
 444 0012 15E0     		b	.L20
 445              	.L21:
  75:.\main.c      ****             led[i] = led[i-1];
 446              		.loc 2 75 0 discriminator 2
 447 0014 7B68     		ldr	r3, [r7, #4]
 448 0016 591E     		sub	r1, r3, #1
 449 0018 354C     		ldr	r4, .L26+4
 450 001a 7B68     		ldr	r3, [r7, #4]
 451 001c 1A1C     		mov	r2, r3
ARM GAS  C:\Users\TSUBAS~1\AppData\Local\Temp\ccZNqQv1.s 			page 22


 452 001e 5200     		lsl	r2, r2, #1
 453 0020 D218     		add	r2, r2, r3
 454 0022 3348     		ldr	r0, .L26+4
 455 0024 0B1C     		mov	r3, r1
 456 0026 5B00     		lsl	r3, r3, #1
 457 0028 5B18     		add	r3, r3, r1
 458 002a A118     		add	r1, r4, r2
 459 002c C218     		add	r2, r0, r3
 460 002e 0323     		mov	r3, #3
 461 0030 081C     		mov	r0, r1
 462 0032 111C     		mov	r1, r2
 463 0034 1A1C     		mov	r2, r3
 464 0036 FFF7FEFF 		bl	memcpy
  74:.\main.c      ****         for(i=LED_LENGTH-1;i>0;i--){
 465              		.loc 2 74 0 discriminator 2
 466 003a 7B68     		ldr	r3, [r7, #4]
 467 003c 013B     		sub	r3, r3, #1
 468 003e 7B60     		str	r3, [r7, #4]
 469              	.L20:
  74:.\main.c      ****         for(i=LED_LENGTH-1;i>0;i--){
 470              		.loc 2 74 0 is_stmt 0 discriminator 1
 471 0040 7B68     		ldr	r3, [r7, #4]
 472 0042 002B     		cmp	r3, #0
 473 0044 E6DC     		bgt	.L21
  76:.\main.c      ****         }
  77:.\main.c      ****         
  78:.\main.c      ****         if(curPos<32){
 474              		.loc 2 78 0 is_stmt 1
 475 0046 2B4B     		ldr	r3, .L26+8
 476 0048 1B78     		ldrb	r3, [r3]
 477 004a 1F2B     		cmp	r3, #31
 478 004c 0ED8     		bhi	.L22
  79:.\main.c      ****             led[0].r = 32 - curPos;
 479              		.loc 2 79 0
 480 004e 294B     		ldr	r3, .L26+8
 481 0050 1B78     		ldrb	r3, [r3]
 482 0052 2022     		mov	r2, #32
 483 0054 D31A     		sub	r3, r2, r3
 484 0056 DAB2     		uxtb	r2, r3
 485 0058 254B     		ldr	r3, .L26+4
 486 005a 5A70     		strb	r2, [r3, #1]
  80:.\main.c      ****             led[0].g = curPos;
 487              		.loc 2 80 0
 488 005c 254B     		ldr	r3, .L26+8
 489 005e 1A78     		ldrb	r2, [r3]
 490 0060 234B     		ldr	r3, .L26+4
 491 0062 1A70     		strb	r2, [r3]
  81:.\main.c      ****             led[0].b = 0;
 492              		.loc 2 81 0
 493 0064 224B     		ldr	r3, .L26+4
 494 0066 0022     		mov	r2, #0
 495 0068 9A70     		strb	r2, [r3, #2]
 496 006a 3CE0     		b	.L18
 497              	.L22:
  82:.\main.c      ****         }else{
  83:.\main.c      ****             led[0].r = 0;
 498              		.loc 2 83 0
ARM GAS  C:\Users\TSUBAS~1\AppData\Local\Temp\ccZNqQv1.s 			page 23


 499 006c 204B     		ldr	r3, .L26+4
 500 006e 0022     		mov	r2, #0
 501 0070 5A70     		strb	r2, [r3, #1]
  84:.\main.c      ****             led[0].g = 64 - curPos;
 502              		.loc 2 84 0
 503 0072 204B     		ldr	r3, .L26+8
 504 0074 1B78     		ldrb	r3, [r3]
 505 0076 4022     		mov	r2, #64
 506 0078 D31A     		sub	r3, r2, r3
 507 007a DAB2     		uxtb	r2, r3
 508 007c 1C4B     		ldr	r3, .L26+4
 509 007e 1A70     		strb	r2, [r3]
  85:.\main.c      ****             led[0].b = curPos - 32;
 510              		.loc 2 85 0
 511 0080 1C4B     		ldr	r3, .L26+8
 512 0082 1B78     		ldrb	r3, [r3]
 513 0084 203B     		sub	r3, r3, #32
 514 0086 DAB2     		uxtb	r2, r3
 515 0088 194B     		ldr	r3, .L26+4
 516 008a 9A70     		strb	r2, [r3, #2]
 517 008c 2BE0     		b	.L18
 518              	.L19:
 519              	.LBB2:
  86:.\main.c      ****         }
  87:.\main.c      ****     }else{
  88:.\main.c      ****         rgb_tag temp = led[LED_LENGTH-1];
 520              		.loc 2 88 0
 521 008e 391C     		mov	r1, r7
 522 0090 174A     		ldr	r2, .L26+4
 523 0092 1B23     		mov	r3, #27
 524 0094 D218     		add	r2, r2, r3
 525 0096 0323     		mov	r3, #3
 526 0098 081C     		mov	r0, r1
 527 009a 111C     		mov	r1, r2
 528 009c 1A1C     		mov	r2, r3
 529 009e FFF7FEFF 		bl	memcpy
  89:.\main.c      ****         // LED
  90:.\main.c      ****         for(i=LED_LENGTH-1;i>0;i--){
 530              		.loc 2 90 0
 531 00a2 0923     		mov	r3, #9
 532 00a4 7B60     		str	r3, [r7, #4]
 533 00a6 15E0     		b	.L24
 534              	.L25:
  91:.\main.c      ****             led[i] = led[i-1];
 535              		.loc 2 91 0 discriminator 2
 536 00a8 7B68     		ldr	r3, [r7, #4]
 537 00aa 591E     		sub	r1, r3, #1
 538 00ac 104C     		ldr	r4, .L26+4
 539 00ae 7B68     		ldr	r3, [r7, #4]
 540 00b0 1A1C     		mov	r2, r3
 541 00b2 5200     		lsl	r2, r2, #1
 542 00b4 D218     		add	r2, r2, r3
 543 00b6 0E48     		ldr	r0, .L26+4
 544 00b8 0B1C     		mov	r3, r1
 545 00ba 5B00     		lsl	r3, r3, #1
 546 00bc 5B18     		add	r3, r3, r1
 547 00be A118     		add	r1, r4, r2
ARM GAS  C:\Users\TSUBAS~1\AppData\Local\Temp\ccZNqQv1.s 			page 24


 548 00c0 C218     		add	r2, r0, r3
 549 00c2 0323     		mov	r3, #3
 550 00c4 081C     		mov	r0, r1
 551 00c6 111C     		mov	r1, r2
 552 00c8 1A1C     		mov	r2, r3
 553 00ca FFF7FEFF 		bl	memcpy
  90:.\main.c      ****         for(i=LED_LENGTH-1;i>0;i--){
 554              		.loc 2 90 0 discriminator 2
 555 00ce 7B68     		ldr	r3, [r7, #4]
 556 00d0 013B     		sub	r3, r3, #1
 557 00d2 7B60     		str	r3, [r7, #4]
 558              	.L24:
  90:.\main.c      ****         for(i=LED_LENGTH-1;i>0;i--){
 559              		.loc 2 90 0 is_stmt 0 discriminator 1
 560 00d4 7B68     		ldr	r3, [r7, #4]
 561 00d6 002B     		cmp	r3, #0
 562 00d8 E6DC     		bgt	.L25
  92:.\main.c      ****         }
  93:.\main.c      ****         led[0] = temp;
 563              		.loc 2 93 0 is_stmt 1
 564 00da 054B     		ldr	r3, .L26+4
 565 00dc 3A1C     		mov	r2, r7
 566 00de 1188     		ldrh	r1, [r2]
 567 00e0 1980     		strh	r1, [r3]
 568 00e2 9278     		ldrb	r2, [r2, #2]
 569 00e4 9A70     		strb	r2, [r3, #2]
 570              	.L18:
 571              	.LBE2:
  94:.\main.c      ****     }
  95:.\main.c      **** }
 572              		.loc 2 95 0
 573 00e6 BD46     		mov	sp, r7
 574 00e8 03B0     		add	sp, sp, #12
 575              		@ sp needed for prologue
 576 00ea 90BD     		pop	{r4, r7, pc}
 577              	.L27:
 578              		.align	2
 579              	.L26:
 580 00ec 00000000 		.word	mode
 581 00f0 00000000 		.word	led
 582 00f4 00000000 		.word	curPos
 583              		.cfi_endproc
 584              	.LFE35:
 585              		.size	refreshLED, .-refreshLED
 586              		.section	.text.buttonScan,"ax",%progbits
 587              		.align	2
 588              		.global	buttonScan
 589              		.code	16
 590              		.thumb_func
 591              		.type	buttonScan, %function
 592              	buttonScan:
 593              	.LFB36:
  96:.\main.c      **** 
  97:.\main.c      **** void buttonScan(){
 594              		.loc 2 97 0
 595              		.cfi_startproc
 596 0000 90B5     		push	{r4, r7, lr}
ARM GAS  C:\Users\TSUBAS~1\AppData\Local\Temp\ccZNqQv1.s 			page 25


 597              	.LCFI15:
 598              		.cfi_def_cfa_offset 12
 599              		.cfi_offset 4, -12
 600              		.cfi_offset 7, -8
 601              		.cfi_offset 14, -4
 602 0002 83B0     		sub	sp, sp, #12
 603              	.LCFI16:
 604              		.cfi_def_cfa_offset 24
 605 0004 00AF     		add	r7, sp, #0
 606              	.LCFI17:
 607              		.cfi_def_cfa_register 7
  98:.\main.c      ****     static uint8 prevButtonStatus = 1;
  99:.\main.c      ****     uint8 currentButtonStatus = Pin_SW_Read();
 608              		.loc 2 99 0
 609 0006 FC1D     		add	r4, r7, #7
 610 0008 FFF7FEFF 		bl	Pin_SW_Read
 611 000c 031C     		mov	r3, r0
 612 000e 2370     		strb	r3, [r4]
 100:.\main.c      ****     if(prevButtonStatus==1 && currentButtonStatus==0){
 613              		.loc 2 100 0
 614 0010 114B     		ldr	r3, .L30
 615 0012 1B78     		ldrb	r3, [r3]
 616 0014 012B     		cmp	r3, #1
 617 0016 18D1     		bne	.L29
 618              		.loc 2 100 0 is_stmt 0 discriminator 1
 619 0018 FB1D     		add	r3, r7, #7
 620 001a 1B78     		ldrb	r3, [r3]
 621 001c 002B     		cmp	r3, #0
 622 001e 14D1     		bne	.L29
 101:.\main.c      ****         // buttonPressed;
 102:.\main.c      ****         mode ^= 1;
 623              		.loc 2 102 0 is_stmt 1
 624 0020 0E4B     		ldr	r3, .L30+4
 625 0022 1B78     		ldrb	r3, [r3]
 626 0024 0122     		mov	r2, #1
 627 0026 5340     		eor	r3, r2
 628 0028 DAB2     		uxtb	r2, r3
 629 002a 0C4B     		ldr	r3, .L30+4
 630 002c 1A70     		strb	r2, [r3]
 103:.\main.c      ****         if(mode==0){
 631              		.loc 2 103 0
 632 002e 0B4B     		ldr	r3, .L30+4
 633 0030 1B78     		ldrb	r3, [r3]
 634 0032 002B     		cmp	r3, #0
 635 0034 09D1     		bne	.L29
 104:.\main.c      ****             memcpy(led, initLed, sizeof(led));
 636              		.loc 2 104 0
 637 0036 0A4B     		ldr	r3, .L30+8
 638 0038 0A4A     		ldr	r2, .L30+12
 639 003a 13CA     		ldmia	r2!, {r0, r1, r4}
 640 003c 13C3     		stmia	r3!, {r0, r1, r4}
 641 003e 13CA     		ldmia	r2!, {r0, r1, r4}
 642 0040 13C3     		stmia	r3!, {r0, r1, r4}
 643 0042 1168     		ldr	r1, [r2]
 644 0044 1960     		str	r1, [r3]
 645 0046 9288     		ldrh	r2, [r2, #4]
 646 0048 9A80     		strh	r2, [r3, #4]
ARM GAS  C:\Users\TSUBAS~1\AppData\Local\Temp\ccZNqQv1.s 			page 26


 647              	.L29:
 105:.\main.c      ****         }
 106:.\main.c      ****     }
 107:.\main.c      ****     
 108:.\main.c      ****     prevButtonStatus = currentButtonStatus;
 648              		.loc 2 108 0
 649 004a 034B     		ldr	r3, .L30
 650 004c FA1D     		add	r2, r7, #7
 651 004e 1278     		ldrb	r2, [r2]
 652 0050 1A70     		strb	r2, [r3]
 109:.\main.c      **** }
 653              		.loc 2 109 0
 654 0052 BD46     		mov	sp, r7
 655 0054 03B0     		add	sp, sp, #12
 656              		@ sp needed for prologue
 657 0056 90BD     		pop	{r4, r7, pc}
 658              	.L31:
 659              		.align	2
 660              	.L30:
 661 0058 1E000000 		.word	prevButtonStatus.5348
 662 005c 00000000 		.word	mode
 663 0060 00000000 		.word	led
 664 0064 00000000 		.word	initLed
 665              		.cfi_endproc
 666              	.LFE36:
 667              		.size	buttonScan, .-buttonScan
 668              		.section	.text.SysTick_Handler,"ax",%progbits
 669              		.align	2
 670              		.global	SysTick_Handler
 671              		.code	16
 672              		.thumb_func
 673              		.type	SysTick_Handler, %function
 674              	SysTick_Handler:
 675              	.LFB37:
 110:.\main.c      **** 
 111:.\main.c      **** void SysTick_Handler(){
 676              		.loc 2 111 0
 677              		.cfi_startproc
 678 0000 80B5     		push	{r7, lr}
 679              	.LCFI18:
 680              		.cfi_def_cfa_offset 8
 681              		.cfi_offset 7, -8
 682              		.cfi_offset 14, -4
 683 0002 00AF     		add	r7, sp, #0
 684              	.LCFI19:
 685              		.cfi_def_cfa_register 7
 112:.\main.c      ****     sampleTimeout++;
 686              		.loc 2 112 0
 687 0004 0F4B     		ldr	r3, .L35
 688 0006 1B68     		ldr	r3, [r3]
 689 0008 5A1C     		add	r2, r3, #1
 690 000a 0E4B     		ldr	r3, .L35
 691 000c 1A60     		str	r2, [r3]
 113:.\main.c      ****     if(sampleTimeout==TIMEOUT){
 692              		.loc 2 113 0
 693 000e 0D4B     		ldr	r3, .L35
 694 0010 1B68     		ldr	r3, [r3]
ARM GAS  C:\Users\TSUBAS~1\AppData\Local\Temp\ccZNqQv1.s 			page 27


 695 0012 FA2B     		cmp	r3, #250
 696 0014 04D1     		bne	.L33
 114:.\main.c      ****         sampleTimeout = 0;
 697              		.loc 2 114 0
 698 0016 0B4B     		ldr	r3, .L35
 699 0018 0022     		mov	r2, #0
 700 001a 1A60     		str	r2, [r3]
 115:.\main.c      ****         refreshLED();
 701              		.loc 2 115 0
 702 001c FFF7FEFF 		bl	refreshLED
 703              	.L33:
 116:.\main.c      ****     }
 117:.\main.c      ****     
 118:.\main.c      ****     buttonTimeout++;
 704              		.loc 2 118 0
 705 0020 094B     		ldr	r3, .L35+4
 706 0022 1B78     		ldrb	r3, [r3]
 707 0024 0133     		add	r3, r3, #1
 708 0026 DAB2     		uxtb	r2, r3
 709 0028 074B     		ldr	r3, .L35+4
 710 002a 1A70     		strb	r2, [r3]
 119:.\main.c      ****     if(buttonTimeout==BUTTON_SCAN){
 711              		.loc 2 119 0
 712 002c 064B     		ldr	r3, .L35+4
 713 002e 1B78     		ldrb	r3, [r3]
 714 0030 142B     		cmp	r3, #20
 715 0032 04D1     		bne	.L32
 120:.\main.c      ****         buttonTimeout = 0;
 716              		.loc 2 120 0
 717 0034 044B     		ldr	r3, .L35+4
 718 0036 0022     		mov	r2, #0
 719 0038 1A70     		strb	r2, [r3]
 121:.\main.c      ****         buttonScan();
 720              		.loc 2 121 0
 721 003a FFF7FEFF 		bl	buttonScan
 722              	.L32:
 122:.\main.c      ****     }
 123:.\main.c      **** }
 723              		.loc 2 123 0
 724 003e BD46     		mov	sp, r7
 725              		@ sp needed for prologue
 726 0040 80BD     		pop	{r7, pc}
 727              	.L36:
 728 0042 C046     		.align	2
 729              	.L35:
 730 0044 00000000 		.word	sampleTimeout
 731 0048 00000000 		.word	buttonTimeout
 732              		.cfi_endproc
 733              	.LFE37:
 734              		.size	SysTick_Handler, .-SysTick_Handler
 735              		.section	.text.CapSense_GetPosition,"ax",%progbits
 736              		.align	2
 737              		.global	CapSense_GetPosition
 738              		.code	16
 739              		.thumb_func
 740              		.type	CapSense_GetPosition, %function
 741              	CapSense_GetPosition:
ARM GAS  C:\Users\TSUBAS~1\AppData\Local\Temp\ccZNqQv1.s 			page 28


 742              	.LFB38:
 124:.\main.c      **** 
 125:.\main.c      **** void CapSense_GetPosition(void)
 126:.\main.c      **** {
 743              		.loc 2 126 0
 744              		.cfi_startproc
 745 0000 80B5     		push	{r7, lr}
 746              	.LCFI20:
 747              		.cfi_def_cfa_offset 8
 748              		.cfi_offset 7, -8
 749              		.cfi_offset 14, -4
 750 0002 82B0     		sub	sp, sp, #8
 751              	.LCFI21:
 752              		.cfi_def_cfa_offset 16
 753 0004 00AF     		add	r7, sp, #0
 754              	.LCFI22:
 755              		.cfi_def_cfa_register 7
 127:.\main.c      ****     uint8 position;
 128:.\main.c      ****     /* Find Slider Position */
 129:.\main.c      ****     position = CapSense_1_GetCentroidPos(CapSense_1_LINEARSLIDER0__LS);    
 756              		.loc 2 129 0
 757 0006 0020     		mov	r0, #0
 758 0008 FFF7FEFF 		bl	CapSense_1_GetCentroidPos
 759 000c 031C     		mov	r3, r0
 760 000e 1A1C     		mov	r2, r3
 761 0010 FB1D     		add	r3, r7, #7
 762 0012 1A70     		strb	r2, [r3]
 130:.\main.c      ****     
 131:.\main.c      ****     /* Reset position */
 132:.\main.c      ****     if(position != 0xFFu)
 763              		.loc 2 132 0
 764 0014 FB1D     		add	r3, r7, #7
 765 0016 1B78     		ldrb	r3, [r3]
 766 0018 FF2B     		cmp	r3, #255
 767 001a 03D0     		beq	.L38
 133:.\main.c      ****     {
 134:.\main.c      ****         curPos = position;
 768              		.loc 2 134 0
 769 001c 1C4B     		ldr	r3, .L41
 770 001e FA1D     		add	r2, r7, #7
 771 0020 1278     		ldrb	r2, [r2]
 772 0022 1A70     		strb	r2, [r3]
 773              	.L38:
 135:.\main.c      ****     }
 136:.\main.c      ****                 
 137:.\main.c      ****     /* Apply PWM */
 138:.\main.c      ****     if(curPos<32){
 774              		.loc 2 138 0
 775 0024 1A4B     		ldr	r3, .L41
 776 0026 1B78     		ldrb	r3, [r3]
 777 0028 1F2B     		cmp	r3, #31
 778 002a 0ED8     		bhi	.L39
 139:.\main.c      ****         onboardLED.r = 32 - curPos;
 779              		.loc 2 139 0
 780 002c 184B     		ldr	r3, .L41
 781 002e 1B78     		ldrb	r3, [r3]
 782 0030 2022     		mov	r2, #32
ARM GAS  C:\Users\TSUBAS~1\AppData\Local\Temp\ccZNqQv1.s 			page 29


 783 0032 D31A     		sub	r3, r2, r3
 784 0034 DAB2     		uxtb	r2, r3
 785 0036 174B     		ldr	r3, .L41+4
 786 0038 5A70     		strb	r2, [r3, #1]
 140:.\main.c      ****         onboardLED.g = curPos;
 787              		.loc 2 140 0
 788 003a 154B     		ldr	r3, .L41
 789 003c 1A78     		ldrb	r2, [r3]
 790 003e 154B     		ldr	r3, .L41+4
 791 0040 1A70     		strb	r2, [r3]
 141:.\main.c      ****         onboardLED.b = 0;
 792              		.loc 2 141 0
 793 0042 144B     		ldr	r3, .L41+4
 794 0044 0022     		mov	r2, #0
 795 0046 9A70     		strb	r2, [r3, #2]
 796 0048 0FE0     		b	.L40
 797              	.L39:
 142:.\main.c      ****     }else{
 143:.\main.c      ****         onboardLED.r = 0;
 798              		.loc 2 143 0
 799 004a 124B     		ldr	r3, .L41+4
 800 004c 0022     		mov	r2, #0
 801 004e 5A70     		strb	r2, [r3, #1]
 144:.\main.c      ****         onboardLED.g = 64 - curPos;
 802              		.loc 2 144 0
 803 0050 0F4B     		ldr	r3, .L41
 804 0052 1B78     		ldrb	r3, [r3]
 805 0054 4022     		mov	r2, #64
 806 0056 D31A     		sub	r3, r2, r3
 807 0058 DAB2     		uxtb	r2, r3
 808 005a 0E4B     		ldr	r3, .L41+4
 809 005c 1A70     		strb	r2, [r3]
 145:.\main.c      ****         onboardLED.b = curPos - 32;
 810              		.loc 2 145 0
 811 005e 0C4B     		ldr	r3, .L41
 812 0060 1B78     		ldrb	r3, [r3]
 813 0062 203B     		sub	r3, r3, #32
 814 0064 DAB2     		uxtb	r2, r3
 815 0066 0B4B     		ldr	r3, .L41+4
 816 0068 9A70     		strb	r2, [r3, #2]
 817              	.L40:
 146:.\main.c      ****     }
 147:.\main.c      **** 
 148:.\main.c      ****     PWM_1_WriteCompare1(onboardLED.r);
 818              		.loc 2 148 0
 819 006a 0A4B     		ldr	r3, .L41+4
 820 006c 5B78     		ldrb	r3, [r3, #1]
 821 006e 181C     		mov	r0, r3
 822 0070 FFF7FEFF 		bl	PWM_1_WriteCompare1
 149:.\main.c      ****     PWM_1_WriteCompare2(onboardLED.g);
 823              		.loc 2 149 0
 824 0074 074B     		ldr	r3, .L41+4
 825 0076 1B78     		ldrb	r3, [r3]
 826 0078 181C     		mov	r0, r3
 827 007a FFF7FEFF 		bl	PWM_1_WriteCompare2
 150:.\main.c      ****     PWM_2_WriteCompare(onboardLED.b);
 828              		.loc 2 150 0
ARM GAS  C:\Users\TSUBAS~1\AppData\Local\Temp\ccZNqQv1.s 			page 30


 829 007e 054B     		ldr	r3, .L41+4
 830 0080 9B78     		ldrb	r3, [r3, #2]
 831 0082 181C     		mov	r0, r3
 832 0084 FFF7FEFF 		bl	PWM_2_WriteCompare
 151:.\main.c      **** }
 833              		.loc 2 151 0
 834 0088 BD46     		mov	sp, r7
 835 008a 02B0     		add	sp, sp, #8
 836              		@ sp needed for prologue
 837 008c 80BD     		pop	{r7, pc}
 838              	.L42:
 839 008e C046     		.align	2
 840              	.L41:
 841 0090 00000000 		.word	curPos
 842 0094 00000000 		.word	onboardLED
 843              		.cfi_endproc
 844              	.LFE38:
 845              		.size	CapSense_GetPosition, .-CapSense_GetPosition
 846              		.section	.text.main,"ax",%progbits
 847              		.align	2
 848              		.global	main
 849              		.code	16
 850              		.thumb_func
 851              		.type	main, %function
 852              	main:
 853              	.LFB39:
 152:.\main.c      **** 
 153:.\main.c      **** int main()
 154:.\main.c      **** {
 854              		.loc 2 154 0
 855              		.cfi_startproc
 856 0000 80B5     		push	{r7, lr}
 857              	.LCFI23:
 858              		.cfi_def_cfa_offset 8
 859              		.cfi_offset 7, -8
 860              		.cfi_offset 14, -4
 861 0002 82B0     		sub	sp, sp, #8
 862              	.LCFI24:
 863              		.cfi_def_cfa_offset 16
 864 0004 00AF     		add	r7, sp, #0
 865              	.LCFI25:
 866              		.cfi_def_cfa_register 7
 155:.\main.c      ****     /* Place your initialization/startup code here (e.g. MyInst_Start()) */
 156:.\main.c      ****     int i;
 157:.\main.c      ****     for(i=0;i<2048;i++);     // 
 867              		.loc 2 157 0
 868 0006 0023     		mov	r3, #0
 869 0008 7B60     		str	r3, [r7, #4]
 870 000a 02E0     		b	.L44
 871              	.L45:
 872              		.loc 2 157 0 is_stmt 0 discriminator 2
 873 000c 7B68     		ldr	r3, [r7, #4]
 874 000e 0133     		add	r3, r3, #1
 875 0010 7B60     		str	r3, [r7, #4]
 876              	.L44:
 877              		.loc 2 157 0 discriminator 1
 878 0012 7A68     		ldr	r2, [r7, #4]
ARM GAS  C:\Users\TSUBAS~1\AppData\Local\Temp\ccZNqQv1.s 			page 31


 879 0014 154B     		ldr	r3, .L50
 880 0016 9A42     		cmp	r2, r3
 881 0018 F8DD     		ble	.L45
 158:.\main.c      ****     PWM_1_Start();
 882              		.loc 2 158 0 is_stmt 1
 883 001a FFF7FEFF 		bl	PWM_1_Start
 159:.\main.c      ****     PWM_2_Start();
 884              		.loc 2 159 0
 885 001e FFF7FEFF 		bl	PWM_2_Start
 160:.\main.c      **** 
 161:.\main.c      ****     // 1msec
 162:.\main.c      ****     if (SysTick_Config( (40000000) / 1000)) { 
 886              		.loc 2 162 0
 887 0022 134B     		ldr	r3, .L50+4
 888 0024 181C     		mov	r0, r3
 889 0026 FFF7FEFF 		bl	SysTick_Config
 890 002a 031C     		mov	r3, r0
 891 002c 002B     		cmp	r3, #0
 892 002e 00D0     		beq	.L46
 893              	.L47:
 163:.\main.c      ****             while (1);                                  /* Capture error */
 894              		.loc 2 163 0 discriminator 1
 895 0030 FEE7     		b	.L47
 896              	.L46:
 164:.\main.c      ****     }
 165:.\main.c      ****     /* setup systick interrupt */
 166:.\main.c      ****     CyIntSetSysVector(15,SysTick_Handler);
 897              		.loc 2 166 0
 898 0032 104B     		ldr	r3, .L50+8
 899 0034 0F20     		mov	r0, #15
 900 0036 191C     		mov	r1, r3
 901 0038 FFF7FEFF 		bl	CyIntSetSysVector
 167:.\main.c      ****     
 168:.\main.c      ****     CyGlobalIntEnable; /* Uncomment this line to enable global interrupts. */
 902              		.loc 2 168 0
 903              	@ 168 ".\main.c" 1
 904 003c 62B6     		CPSIE   i
 905              	@ 0 "" 2
 169:.\main.c      ****     CapSense_1_Start();
 906              		.loc 2 169 0
 907              		.code	16
 908 003e FFF7FEFF 		bl	CapSense_1_Start
 170:.\main.c      ****     
 171:.\main.c      ****     
 172:.\main.c      ****     /* Initialize baselines */ 
 173:.\main.c      ****     CapSense_1_InitializeAllBaselines();
 909              		.loc 2 173 0
 910 0042 FFF7FEFF 		bl	CapSense_1_InitializeAllBaselines
 911              	.L49:
 174:.\main.c      ****     
 175:.\main.c      ****     for(;;)
 176:.\main.c      ****     {
 177:.\main.c      ****         /* Place your application code here. */
 178:.\main.c      ****         sendPixels(led, LED_LENGTH);    // LED10
 912              		.loc 2 178 0
 913 0046 0C4B     		ldr	r3, .L50+12
 914 0048 181C     		mov	r0, r3
ARM GAS  C:\Users\TSUBAS~1\AppData\Local\Temp\ccZNqQv1.s 			page 32


 915 004a 0A21     		mov	r1, #10
 916 004c FFF7FEFF 		bl	sendPixels
 179:.\main.c      ****         
 180:.\main.c      ****         /* Update all baselines */
 181:.\main.c      ****         CapSense_1_UpdateEnabledBaselines();
 917              		.loc 2 181 0
 918 0050 FFF7FEFF 		bl	CapSense_1_UpdateEnabledBaselines
 182:.\main.c      ****         
 183:.\main.c      ****    		/* Start scanning all enabled sensors */
 184:.\main.c      ****     	CapSense_1_ScanEnabledWidgets();
 919              		.loc 2 184 0
 920 0054 FFF7FEFF 		bl	CapSense_1_ScanEnabledWidgets
 185:.\main.c      ****     
 186:.\main.c      ****         /* Wait for scanning to complete */
 187:.\main.c      **** 		while(CapSense_1_IsBusy() != 0);
 921              		.loc 2 187 0
 922 0058 C046     		mov	r8, r8
 923              	.L48:
 924              		.loc 2 187 0 is_stmt 0 discriminator 1
 925 005a FFF7FEFF 		bl	CapSense_1_IsBusy
 926 005e 031C     		mov	r3, r0
 927 0060 002B     		cmp	r3, #0
 928 0062 FAD1     		bne	.L48
 188:.\main.c      **** 
 189:.\main.c      **** 		/* Display CapSense state using LEDs */
 190:.\main.c      ****         CapSense_GetPosition();
 929              		.loc 2 190 0 is_stmt 1
 930 0064 FFF7FEFF 		bl	CapSense_GetPosition
 191:.\main.c      ****     }
 931              		.loc 2 191 0
 932 0068 EDE7     		b	.L49
 933              	.L51:
 934 006a C046     		.align	2
 935              	.L50:
 936 006c FF070000 		.word	2047
 937 0070 409C0000 		.word	40000
 938 0074 00000000 		.word	SysTick_Handler
 939 0078 00000000 		.word	led
 940              		.cfi_endproc
 941              	.LFE39:
 942              		.size	main, .-main
 943              		.data
 944              		.type	prevButtonStatus.5348, %object
 945              		.size	prevButtonStatus.5348, 1
 946              	prevButtonStatus.5348:
 947 001e 01       		.byte	1
 948 001f 00       		.text
 949              	.Letext0:
 950              		.file 3 "c:\\program files (x86)\\cypress\\psoc creator\\3.0\\psoc creator\\import\\gnu_cs\\arm\\4
 951              		.file 4 "./Generated_Source/PSoC4/cytypes.h"
 952              		.file 5 "./Generated_Source/PSoC4/core_cm0_psoc4.h"