ARM GAS  C:\Users\TSUBAS~1\AppData\Local\Temp\cceKMuA6.s 			page 1


   1              		.cpu cortex-m0
   2              		.fpu softvfp
   3              		.eabi_attribute 20, 1
   4              		.eabi_attribute 21, 1
   5              		.eabi_attribute 23, 3
   6              		.eabi_attribute 24, 1
   7              		.eabi_attribute 25, 1
   8              		.eabi_attribute 26, 1
   9              		.eabi_attribute 30, 6
  10              		.eabi_attribute 34, 0
  11              		.eabi_attribute 18, 4
  12              		.code	16
  13              		.file	"Status_Reg_1.c"
  14              		.text
  15              	.Ltext0:
  16              		.cfi_sections	.debug_frame
  17              		.section	.text.Status_Reg_1_Read,"ax",%progbits
  18              		.align	2
  19              		.global	Status_Reg_1_Read
  20              		.code	16
  21              		.thumb_func
  22              		.type	Status_Reg_1_Read, %function
  23              	Status_Reg_1_Read:
  24              	.LFB0:
  25              		.file 1 ".\\Generated_Source\\PSoC4\\Status_Reg_1.c"
   1:.\Generated_Source\PSoC4/Status_Reg_1.c **** /*******************************************************************************
   2:.\Generated_Source\PSoC4/Status_Reg_1.c **** * File Name: Status_Reg_1.c  
   3:.\Generated_Source\PSoC4/Status_Reg_1.c **** * Version 1.80
   4:.\Generated_Source\PSoC4/Status_Reg_1.c **** *
   5:.\Generated_Source\PSoC4/Status_Reg_1.c **** * Description:
   6:.\Generated_Source\PSoC4/Status_Reg_1.c **** *  This file contains API to enable firmware to read the value of a Status 
   7:.\Generated_Source\PSoC4/Status_Reg_1.c **** *  Register.
   8:.\Generated_Source\PSoC4/Status_Reg_1.c **** *
   9:.\Generated_Source\PSoC4/Status_Reg_1.c **** * Note:
  10:.\Generated_Source\PSoC4/Status_Reg_1.c **** *
  11:.\Generated_Source\PSoC4/Status_Reg_1.c **** ********************************************************************************
  12:.\Generated_Source\PSoC4/Status_Reg_1.c **** * Copyright 2008-2012, Cypress Semiconductor Corporation.  All rights reserved.
  13:.\Generated_Source\PSoC4/Status_Reg_1.c **** * You may use this file only in accordance with the license, terms, conditions, 
  14:.\Generated_Source\PSoC4/Status_Reg_1.c **** * disclaimers, and limitations in the end user license agreement accompanying 
  15:.\Generated_Source\PSoC4/Status_Reg_1.c **** * the software package with which this file was provided.
  16:.\Generated_Source\PSoC4/Status_Reg_1.c **** *******************************************************************************/
  17:.\Generated_Source\PSoC4/Status_Reg_1.c **** 
  18:.\Generated_Source\PSoC4/Status_Reg_1.c **** #include "Status_Reg_1.h"
  19:.\Generated_Source\PSoC4/Status_Reg_1.c **** 
  20:.\Generated_Source\PSoC4/Status_Reg_1.c **** #if !defined(Status_Reg_1_sts_sts_reg__REMOVED) /* Check for removal by optimization */
  21:.\Generated_Source\PSoC4/Status_Reg_1.c **** 
  22:.\Generated_Source\PSoC4/Status_Reg_1.c **** 
  23:.\Generated_Source\PSoC4/Status_Reg_1.c **** /*******************************************************************************
  24:.\Generated_Source\PSoC4/Status_Reg_1.c **** * Function Name: Status_Reg_1_Read
  25:.\Generated_Source\PSoC4/Status_Reg_1.c **** ********************************************************************************
  26:.\Generated_Source\PSoC4/Status_Reg_1.c **** *
  27:.\Generated_Source\PSoC4/Status_Reg_1.c **** * Summary:
  28:.\Generated_Source\PSoC4/Status_Reg_1.c **** *  Reads the current value assigned to the Status Register.
  29:.\Generated_Source\PSoC4/Status_Reg_1.c **** *
  30:.\Generated_Source\PSoC4/Status_Reg_1.c **** * Parameters:
  31:.\Generated_Source\PSoC4/Status_Reg_1.c **** *  None.
  32:.\Generated_Source\PSoC4/Status_Reg_1.c **** *
ARM GAS  C:\Users\TSUBAS~1\AppData\Local\Temp\cceKMuA6.s 			page 2


  33:.\Generated_Source\PSoC4/Status_Reg_1.c **** * Return:
  34:.\Generated_Source\PSoC4/Status_Reg_1.c **** *  The current value in the Status Register.
  35:.\Generated_Source\PSoC4/Status_Reg_1.c **** *
  36:.\Generated_Source\PSoC4/Status_Reg_1.c **** *******************************************************************************/
  37:.\Generated_Source\PSoC4/Status_Reg_1.c **** uint8 Status_Reg_1_Read(void) 
  38:.\Generated_Source\PSoC4/Status_Reg_1.c **** { 
  26              		.loc 1 38 0
  27              		.cfi_startproc
  28 0000 80B5     		push	{r7, lr}
  29              	.LCFI0:
  30              		.cfi_def_cfa_offset 8
  31              		.cfi_offset 7, -8
  32              		.cfi_offset 14, -4
  33 0002 00AF     		add	r7, sp, #0
  34              	.LCFI1:
  35              		.cfi_def_cfa_register 7
  39:.\Generated_Source\PSoC4/Status_Reg_1.c ****     return Status_Reg_1_Status;
  36              		.loc 1 39 0
  37 0004 024B     		ldr	r3, .L3
  38 0006 1B78     		ldrb	r3, [r3]
  39 0008 DBB2     		uxtb	r3, r3
  40:.\Generated_Source\PSoC4/Status_Reg_1.c **** }
  40              		.loc 1 40 0
  41 000a 181C     		mov	r0, r3
  42 000c BD46     		mov	sp, r7
  43              		@ sp needed for prologue
  44 000e 80BD     		pop	{r7, pc}
  45              	.L4:
  46              		.align	2
  47              	.L3:
  48 0010 62000F40 		.word	1074724962
  49              		.cfi_endproc
  50              	.LFE0:
  51              		.size	Status_Reg_1_Read, .-Status_Reg_1_Read
  52              		.section	.text.Status_Reg_1_InterruptEnable,"ax",%progbits
  53              		.align	2
  54              		.global	Status_Reg_1_InterruptEnable
  55              		.code	16
  56              		.thumb_func
  57              		.type	Status_Reg_1_InterruptEnable, %function
  58              	Status_Reg_1_InterruptEnable:
  59              	.LFB1:
  41:.\Generated_Source\PSoC4/Status_Reg_1.c **** 
  42:.\Generated_Source\PSoC4/Status_Reg_1.c **** 
  43:.\Generated_Source\PSoC4/Status_Reg_1.c **** /*******************************************************************************
  44:.\Generated_Source\PSoC4/Status_Reg_1.c **** * Function Name: Status_Reg_1_InterruptEnable
  45:.\Generated_Source\PSoC4/Status_Reg_1.c **** ********************************************************************************
  46:.\Generated_Source\PSoC4/Status_Reg_1.c **** *
  47:.\Generated_Source\PSoC4/Status_Reg_1.c **** * Summary:
  48:.\Generated_Source\PSoC4/Status_Reg_1.c **** *  Enables the Status Register interrupt.
  49:.\Generated_Source\PSoC4/Status_Reg_1.c **** *
  50:.\Generated_Source\PSoC4/Status_Reg_1.c **** * Parameters:
  51:.\Generated_Source\PSoC4/Status_Reg_1.c **** *  None.
  52:.\Generated_Source\PSoC4/Status_Reg_1.c **** *
  53:.\Generated_Source\PSoC4/Status_Reg_1.c **** * Return:
  54:.\Generated_Source\PSoC4/Status_Reg_1.c **** *  None.
  55:.\Generated_Source\PSoC4/Status_Reg_1.c **** *
ARM GAS  C:\Users\TSUBAS~1\AppData\Local\Temp\cceKMuA6.s 			page 3


  56:.\Generated_Source\PSoC4/Status_Reg_1.c **** *******************************************************************************/
  57:.\Generated_Source\PSoC4/Status_Reg_1.c **** void Status_Reg_1_InterruptEnable(void) 
  58:.\Generated_Source\PSoC4/Status_Reg_1.c **** {
  60              		.loc 1 58 0
  61              		.cfi_startproc
  62 0000 90B5     		push	{r4, r7, lr}
  63              	.LCFI2:
  64              		.cfi_def_cfa_offset 12
  65              		.cfi_offset 4, -12
  66              		.cfi_offset 7, -8
  67              		.cfi_offset 14, -4
  68 0002 83B0     		sub	sp, sp, #12
  69              	.LCFI3:
  70              		.cfi_def_cfa_offset 24
  71 0004 00AF     		add	r7, sp, #0
  72              	.LCFI4:
  73              		.cfi_def_cfa_register 7
  59:.\Generated_Source\PSoC4/Status_Reg_1.c ****     uint8 interruptState;
  60:.\Generated_Source\PSoC4/Status_Reg_1.c ****     interruptState = CyEnterCriticalSection();
  74              		.loc 1 60 0
  75 0006 FC1D     		add	r4, r7, #7
  76 0008 FFF7FEFF 		bl	CyEnterCriticalSection
  77 000c 031C     		mov	r3, r0
  78 000e 2370     		strb	r3, [r4]
  61:.\Generated_Source\PSoC4/Status_Reg_1.c ****     Status_Reg_1_Status_Aux_Ctrl |= Status_Reg_1_STATUS_INTR_ENBL;
  79              		.loc 1 61 0
  80 0010 074B     		ldr	r3, .L6
  81 0012 074A     		ldr	r2, .L6
  82 0014 1278     		ldrb	r2, [r2]
  83 0016 D2B2     		uxtb	r2, r2
  84 0018 1021     		mov	r1, #16
  85 001a 0A43     		orr	r2, r1
  86 001c D2B2     		uxtb	r2, r2
  87 001e 1A70     		strb	r2, [r3]
  62:.\Generated_Source\PSoC4/Status_Reg_1.c ****     CyExitCriticalSection(interruptState);
  88              		.loc 1 62 0
  89 0020 FB1D     		add	r3, r7, #7
  90 0022 1B78     		ldrb	r3, [r3]
  91 0024 181C     		mov	r0, r3
  92 0026 FFF7FEFF 		bl	CyExitCriticalSection
  63:.\Generated_Source\PSoC4/Status_Reg_1.c **** }
  93              		.loc 1 63 0
  94 002a BD46     		mov	sp, r7
  95 002c 03B0     		add	sp, sp, #12
  96              		@ sp needed for prologue
  97 002e 90BD     		pop	{r4, r7, pc}
  98              	.L7:
  99              		.align	2
 100              	.L6:
 101 0030 92000F40 		.word	1074725010
 102              		.cfi_endproc
 103              	.LFE1:
 104              		.size	Status_Reg_1_InterruptEnable, .-Status_Reg_1_InterruptEnable
 105              		.section	.text.Status_Reg_1_InterruptDisable,"ax",%progbits
 106              		.align	2
 107              		.global	Status_Reg_1_InterruptDisable
 108              		.code	16
ARM GAS  C:\Users\TSUBAS~1\AppData\Local\Temp\cceKMuA6.s 			page 4


 109              		.thumb_func
 110              		.type	Status_Reg_1_InterruptDisable, %function
 111              	Status_Reg_1_InterruptDisable:
 112              	.LFB2:
  64:.\Generated_Source\PSoC4/Status_Reg_1.c **** 
  65:.\Generated_Source\PSoC4/Status_Reg_1.c **** 
  66:.\Generated_Source\PSoC4/Status_Reg_1.c **** /*******************************************************************************
  67:.\Generated_Source\PSoC4/Status_Reg_1.c **** * Function Name: Status_Reg_1_InterruptDisable
  68:.\Generated_Source\PSoC4/Status_Reg_1.c **** ********************************************************************************
  69:.\Generated_Source\PSoC4/Status_Reg_1.c **** *
  70:.\Generated_Source\PSoC4/Status_Reg_1.c **** * Summary:
  71:.\Generated_Source\PSoC4/Status_Reg_1.c **** *  Disables the Status Register interrupt.
  72:.\Generated_Source\PSoC4/Status_Reg_1.c **** *
  73:.\Generated_Source\PSoC4/Status_Reg_1.c **** * Parameters:
  74:.\Generated_Source\PSoC4/Status_Reg_1.c **** *  None.
  75:.\Generated_Source\PSoC4/Status_Reg_1.c **** *
  76:.\Generated_Source\PSoC4/Status_Reg_1.c **** * Return:
  77:.\Generated_Source\PSoC4/Status_Reg_1.c **** *  None.
  78:.\Generated_Source\PSoC4/Status_Reg_1.c **** *
  79:.\Generated_Source\PSoC4/Status_Reg_1.c **** *******************************************************************************/
  80:.\Generated_Source\PSoC4/Status_Reg_1.c **** void Status_Reg_1_InterruptDisable(void) 
  81:.\Generated_Source\PSoC4/Status_Reg_1.c **** {
 113              		.loc 1 81 0
 114              		.cfi_startproc
 115 0000 90B5     		push	{r4, r7, lr}
 116              	.LCFI5:
 117              		.cfi_def_cfa_offset 12
 118              		.cfi_offset 4, -12
 119              		.cfi_offset 7, -8
 120              		.cfi_offset 14, -4
 121 0002 83B0     		sub	sp, sp, #12
 122              	.LCFI6:
 123              		.cfi_def_cfa_offset 24
 124 0004 00AF     		add	r7, sp, #0
 125              	.LCFI7:
 126              		.cfi_def_cfa_register 7
  82:.\Generated_Source\PSoC4/Status_Reg_1.c ****     uint8 interruptState;
  83:.\Generated_Source\PSoC4/Status_Reg_1.c ****     interruptState = CyEnterCriticalSection();
 127              		.loc 1 83 0
 128 0006 FC1D     		add	r4, r7, #7
 129 0008 FFF7FEFF 		bl	CyEnterCriticalSection
 130 000c 031C     		mov	r3, r0
 131 000e 2370     		strb	r3, [r4]
  84:.\Generated_Source\PSoC4/Status_Reg_1.c ****     Status_Reg_1_Status_Aux_Ctrl &= (uint8)(~Status_Reg_1_STATUS_INTR_ENBL);
 132              		.loc 1 84 0
 133 0010 074B     		ldr	r3, .L9
 134 0012 074A     		ldr	r2, .L9
 135 0014 1278     		ldrb	r2, [r2]
 136 0016 D2B2     		uxtb	r2, r2
 137 0018 1021     		mov	r1, #16
 138 001a 8A43     		bic	r2, r1
 139 001c D2B2     		uxtb	r2, r2
 140 001e 1A70     		strb	r2, [r3]
  85:.\Generated_Source\PSoC4/Status_Reg_1.c ****     CyExitCriticalSection(interruptState);
 141              		.loc 1 85 0
 142 0020 FB1D     		add	r3, r7, #7
 143 0022 1B78     		ldrb	r3, [r3]
ARM GAS  C:\Users\TSUBAS~1\AppData\Local\Temp\cceKMuA6.s 			page 5


 144 0024 181C     		mov	r0, r3
 145 0026 FFF7FEFF 		bl	CyExitCriticalSection
  86:.\Generated_Source\PSoC4/Status_Reg_1.c **** }
 146              		.loc 1 86 0
 147 002a BD46     		mov	sp, r7
 148 002c 03B0     		add	sp, sp, #12
 149              		@ sp needed for prologue
 150 002e 90BD     		pop	{r4, r7, pc}
 151              	.L10:
 152              		.align	2
 153              	.L9:
 154 0030 92000F40 		.word	1074725010
 155              		.cfi_endproc
 156              	.LFE2:
 157              		.size	Status_Reg_1_InterruptDisable, .-Status_Reg_1_InterruptDisable
 158              		.section	.text.Status_Reg_1_WriteMask,"ax",%progbits
 159              		.align	2
 160              		.global	Status_Reg_1_WriteMask
 161              		.code	16
 162              		.thumb_func
 163              		.type	Status_Reg_1_WriteMask, %function
 164              	Status_Reg_1_WriteMask:
 165              	.LFB3:
  87:.\Generated_Source\PSoC4/Status_Reg_1.c **** 
  88:.\Generated_Source\PSoC4/Status_Reg_1.c **** 
  89:.\Generated_Source\PSoC4/Status_Reg_1.c **** /*******************************************************************************
  90:.\Generated_Source\PSoC4/Status_Reg_1.c **** * Function Name: Status_Reg_1_WriteMask
  91:.\Generated_Source\PSoC4/Status_Reg_1.c **** ********************************************************************************
  92:.\Generated_Source\PSoC4/Status_Reg_1.c **** *
  93:.\Generated_Source\PSoC4/Status_Reg_1.c **** * Summary:
  94:.\Generated_Source\PSoC4/Status_Reg_1.c **** *  Writes the current mask value assigned to the Status Register.
  95:.\Generated_Source\PSoC4/Status_Reg_1.c **** *
  96:.\Generated_Source\PSoC4/Status_Reg_1.c **** * Parameters:
  97:.\Generated_Source\PSoC4/Status_Reg_1.c **** *  mask:  Value to write into the mask register.
  98:.\Generated_Source\PSoC4/Status_Reg_1.c **** *
  99:.\Generated_Source\PSoC4/Status_Reg_1.c **** * Return:
 100:.\Generated_Source\PSoC4/Status_Reg_1.c **** *  None.
 101:.\Generated_Source\PSoC4/Status_Reg_1.c **** *
 102:.\Generated_Source\PSoC4/Status_Reg_1.c **** *******************************************************************************/
 103:.\Generated_Source\PSoC4/Status_Reg_1.c **** void Status_Reg_1_WriteMask(uint8 mask) 
 104:.\Generated_Source\PSoC4/Status_Reg_1.c **** {
 166              		.loc 1 104 0
 167              		.cfi_startproc
 168 0000 80B5     		push	{r7, lr}
 169              	.LCFI8:
 170              		.cfi_def_cfa_offset 8
 171              		.cfi_offset 7, -8
 172              		.cfi_offset 14, -4
 173 0002 82B0     		sub	sp, sp, #8
 174              	.LCFI9:
 175              		.cfi_def_cfa_offset 16
 176 0004 00AF     		add	r7, sp, #0
 177              	.LCFI10:
 178              		.cfi_def_cfa_register 7
 179 0006 021C     		mov	r2, r0
 180 0008 FB1D     		add	r3, r7, #7
 181 000a 1A70     		strb	r2, [r3]
ARM GAS  C:\Users\TSUBAS~1\AppData\Local\Temp\cceKMuA6.s 			page 6


 105:.\Generated_Source\PSoC4/Status_Reg_1.c ****     #if(Status_Reg_1_INPUTS < 8u)
 106:.\Generated_Source\PSoC4/Status_Reg_1.c ****     	mask &= (uint8)((((uint8)1u) << Status_Reg_1_INPUTS) - 1u);
 182              		.loc 1 106 0
 183 000c FB1D     		add	r3, r7, #7
 184 000e FA1D     		add	r2, r7, #7
 185 0010 1178     		ldrb	r1, [r2]
 186 0012 0722     		mov	r2, #7
 187 0014 0A40     		and	r2, r1
 188 0016 1A70     		strb	r2, [r3]
 107:.\Generated_Source\PSoC4/Status_Reg_1.c **** 	#endif /* End Status_Reg_1_INPUTS < 8u */
 108:.\Generated_Source\PSoC4/Status_Reg_1.c ****     Status_Reg_1_Status_Mask = mask;
 189              		.loc 1 108 0
 190 0018 034B     		ldr	r3, .L12
 191 001a FA1D     		add	r2, r7, #7
 192 001c 1278     		ldrb	r2, [r2]
 193 001e 1A70     		strb	r2, [r3]
 109:.\Generated_Source\PSoC4/Status_Reg_1.c **** }
 194              		.loc 1 109 0
 195 0020 BD46     		mov	sp, r7
 196 0022 02B0     		add	sp, sp, #8
 197              		@ sp needed for prologue
 198 0024 80BD     		pop	{r7, pc}
 199              	.L13:
 200 0026 C046     		.align	2
 201              	.L12:
 202 0028 82000F40 		.word	1074724994
 203              		.cfi_endproc
 204              	.LFE3:
 205              		.size	Status_Reg_1_WriteMask, .-Status_Reg_1_WriteMask
 206              		.section	.text.Status_Reg_1_ReadMask,"ax",%progbits
 207              		.align	2
 208              		.global	Status_Reg_1_ReadMask
 209              		.code	16
 210              		.thumb_func
 211              		.type	Status_Reg_1_ReadMask, %function
 212              	Status_Reg_1_ReadMask:
 213              	.LFB4:
 110:.\Generated_Source\PSoC4/Status_Reg_1.c **** 
 111:.\Generated_Source\PSoC4/Status_Reg_1.c **** 
 112:.\Generated_Source\PSoC4/Status_Reg_1.c **** /*******************************************************************************
 113:.\Generated_Source\PSoC4/Status_Reg_1.c **** * Function Name: Status_Reg_1_ReadMask
 114:.\Generated_Source\PSoC4/Status_Reg_1.c **** ********************************************************************************
 115:.\Generated_Source\PSoC4/Status_Reg_1.c **** *
 116:.\Generated_Source\PSoC4/Status_Reg_1.c **** * Summary:
 117:.\Generated_Source\PSoC4/Status_Reg_1.c **** *  Reads the current interrupt mask assigned to the Status Register.
 118:.\Generated_Source\PSoC4/Status_Reg_1.c **** *
 119:.\Generated_Source\PSoC4/Status_Reg_1.c **** * Parameters:
 120:.\Generated_Source\PSoC4/Status_Reg_1.c **** *  None.
 121:.\Generated_Source\PSoC4/Status_Reg_1.c **** *
 122:.\Generated_Source\PSoC4/Status_Reg_1.c **** * Return:
 123:.\Generated_Source\PSoC4/Status_Reg_1.c **** *  The value of the interrupt mask of the Status Register.
 124:.\Generated_Source\PSoC4/Status_Reg_1.c **** *
 125:.\Generated_Source\PSoC4/Status_Reg_1.c **** *******************************************************************************/
 126:.\Generated_Source\PSoC4/Status_Reg_1.c **** uint8 Status_Reg_1_ReadMask(void) 
 127:.\Generated_Source\PSoC4/Status_Reg_1.c **** {
 214              		.loc 1 127 0
 215              		.cfi_startproc
ARM GAS  C:\Users\TSUBAS~1\AppData\Local\Temp\cceKMuA6.s 			page 7


 216 0000 80B5     		push	{r7, lr}
 217              	.LCFI11:
 218              		.cfi_def_cfa_offset 8
 219              		.cfi_offset 7, -8
 220              		.cfi_offset 14, -4
 221 0002 00AF     		add	r7, sp, #0
 222              	.LCFI12:
 223              		.cfi_def_cfa_register 7
 128:.\Generated_Source\PSoC4/Status_Reg_1.c ****     return Status_Reg_1_Status_Mask;
 224              		.loc 1 128 0
 225 0004 024B     		ldr	r3, .L16
 226 0006 1B78     		ldrb	r3, [r3]
 227 0008 DBB2     		uxtb	r3, r3
 129:.\Generated_Source\PSoC4/Status_Reg_1.c **** }
 228              		.loc 1 129 0
 229 000a 181C     		mov	r0, r3
 230 000c BD46     		mov	sp, r7
 231              		@ sp needed for prologue
 232 000e 80BD     		pop	{r7, pc}
 233              	.L17:
 234              		.align	2
 235              	.L16:
 236 0010 82000F40 		.word	1074724994
 237              		.cfi_endproc
 238              	.LFE4:
 239              		.size	Status_Reg_1_ReadMask, .-Status_Reg_1_ReadMask
 240              		.text
 241              	.Letext0:
 242              		.file 2 ".\\Generated_Source\\PSoC4\\cytypes.h"