ARM GAS  C:\Users\TSUBAS~1\AppData\Local\Temp\ccXIwqcP.s 			page 1


   1              		.cpu cortex-m0
   2              		.fpu softvfp
   3              		.eabi_attribute 20, 1
   4              		.eabi_attribute 21, 1
   5              		.eabi_attribute 23, 3
   6              		.eabi_attribute 24, 1
   7              		.eabi_attribute 25, 1
   8              		.eabi_attribute 26, 1
   9              		.eabi_attribute 30, 6
  10              		.eabi_attribute 34, 0
  11              		.eabi_attribute 18, 4
  12              		.code	16
  13              		.file	"WS2812driver_1.c"
  14              		.text
  15              	.Ltext0:
  16              		.cfi_sections	.debug_frame
  17              		.section	.text.WS2812driver_1_write_byte,"ax",%progbits
  18              		.align	2
  19              		.global	WS2812driver_1_write_byte
  20              		.code	16
  21              		.thumb_func
  22              		.type	WS2812driver_1_write_byte, %function
  23              	WS2812driver_1_write_byte:
  24              	.LFB0:
  25              		.file 1 ".\\Generated_Source\\PSoC4\\WS2812driver_1.c"
   1:.\Generated_Source\PSoC4/WS2812driver_1.c **** /* ========================================
   2:.\Generated_Source\PSoC4/WS2812driver_1.c ****  * File Name: WS2812driver_1.c  
   3:.\Generated_Source\PSoC4/WS2812driver_1.c ****  * Version 1.0
   4:.\Generated_Source\PSoC4/WS2812driver_1.c ****  * Copyright betaEncoder, 2014
   5:.\Generated_Source\PSoC4/WS2812driver_1.c ****  * All Rights Reserved
   6:.\Generated_Source\PSoC4/WS2812driver_1.c ****  * This software is released under the MIT License, see LICENSE.txt.
   7:.\Generated_Source\PSoC4/WS2812driver_1.c ****  * ========================================
   8:.\Generated_Source\PSoC4/WS2812driver_1.c **** */
   9:.\Generated_Source\PSoC4/WS2812driver_1.c **** 
  10:.\Generated_Source\PSoC4/WS2812driver_1.c **** #include <cytypes.h>
  11:.\Generated_Source\PSoC4/WS2812driver_1.c **** #include <WS2812driver_1.h>
  12:.\Generated_Source\PSoC4/WS2812driver_1.c **** 
  13:.\Generated_Source\PSoC4/WS2812driver_1.c **** /*******************************************************************************
  14:.\Generated_Source\PSoC4/WS2812driver_1.c **** * Function Name: WS2812driver_1_write_byte
  15:.\Generated_Source\PSoC4/WS2812driver_1.c **** ********************************************************************************
  16:.\Generated_Source\PSoC4/WS2812driver_1.c **** *
  17:.\Generated_Source\PSoC4/WS2812driver_1.c **** * Summary:
  18:.\Generated_Source\PSoC4/WS2812driver_1.c **** *  Write a new value to the FIFO F0 or F1 in datapath.
  19:.\Generated_Source\PSoC4/WS2812driver_1.c **** *  Usually, private function.
  20:.\Generated_Source\PSoC4/WS2812driver_1.c **** *
  21:.\Generated_Source\PSoC4/WS2812driver_1.c **** * Parameters:  
  22:.\Generated_Source\PSoC4/WS2812driver_1.c **** *  buff:  The value to be written to the FIFO.
  23:.\Generated_Source\PSoC4/WS2812driver_1.c **** *  fifo:  The number of FIFO.
  24:.\Generated_Source\PSoC4/WS2812driver_1.c **** *
  25:.\Generated_Source\PSoC4/WS2812driver_1.c **** * Return: 
  26:.\Generated_Source\PSoC4/WS2812driver_1.c **** *  None 
  27:.\Generated_Source\PSoC4/WS2812driver_1.c **** *  
  28:.\Generated_Source\PSoC4/WS2812driver_1.c **** *******************************************************************************/
  29:.\Generated_Source\PSoC4/WS2812driver_1.c **** inline void WS2812driver_1_write_byte(unsigned char buff, unsigned char fifo){
  26              		.loc 1 29 0
  27              		.cfi_startproc
  28 0000 80B5     		push	{r7, lr}
ARM GAS  C:\Users\TSUBAS~1\AppData\Local\Temp\ccXIwqcP.s 			page 2


  29              	.LCFI0:
  30              		.cfi_def_cfa_offset 8
  31              		.cfi_offset 7, -8
  32              		.cfi_offset 14, -4
  33 0002 82B0     		sub	sp, sp, #8
  34              	.LCFI1:
  35              		.cfi_def_cfa_offset 16
  36 0004 00AF     		add	r7, sp, #0
  37              	.LCFI2:
  38              		.cfi_def_cfa_register 7
  39 0006 0A1C     		mov	r2, r1
  40 0008 FB1D     		add	r3, r7, #7
  41 000a 011C     		add	r1, r0, #0
  42 000c 1970     		strb	r1, [r3]
  43 000e BB1D     		add	r3, r7, #6
  44 0010 1A70     		strb	r2, [r3]
  30:.\Generated_Source\PSoC4/WS2812driver_1.c ****     if(fifo==0){
  45              		.loc 1 30 0
  46 0012 BB1D     		add	r3, r7, #6
  47 0014 1B78     		ldrb	r3, [r3]
  48 0016 002B     		cmp	r3, #0
  49 0018 04D1     		bne	.L2
  31:.\Generated_Source\PSoC4/WS2812driver_1.c ****         CY_SET_REG8(WS2812driver_1_shifter_u0__F0_REG, buff);
  50              		.loc 1 31 0
  51 001a 064B     		ldr	r3, .L4
  52 001c FA1D     		add	r2, r7, #7
  53 001e 1278     		ldrb	r2, [r2]
  54 0020 1A70     		strb	r2, [r3]
  55 0022 03E0     		b	.L1
  56              	.L2:
  32:.\Generated_Source\PSoC4/WS2812driver_1.c ****     }else{
  33:.\Generated_Source\PSoC4/WS2812driver_1.c ****         CY_SET_REG8(WS2812driver_1_shifter_u0__F1_REG, buff);
  57              		.loc 1 33 0
  58 0024 044B     		ldr	r3, .L4+4
  59 0026 FA1D     		add	r2, r7, #7
  60 0028 1278     		ldrb	r2, [r2]
  61 002a 1A70     		strb	r2, [r3]
  62              	.L1:
  34:.\Generated_Source\PSoC4/WS2812driver_1.c ****     }
  35:.\Generated_Source\PSoC4/WS2812driver_1.c **** }
  63              		.loc 1 35 0
  64 002c BD46     		mov	sp, r7
  65 002e 02B0     		add	sp, sp, #8
  66              		@ sp needed for prologue
  67 0030 80BD     		pop	{r7, pc}
  68              	.L5:
  69 0032 C046     		.align	2
  70              	.L4:
  71 0034 43000F40 		.word	1074724931
  72 0038 53000F40 		.word	1074724947
  73              		.cfi_endproc
  74              	.LFE0:
  75              		.size	WS2812driver_1_write_byte, .-WS2812driver_1_write_byte
  76              		.section	.text.WS2812driver_1_write2fifo,"ax",%progbits
  77              		.align	2
  78              		.global	WS2812driver_1_write2fifo
  79              		.code	16
ARM GAS  C:\Users\TSUBAS~1\AppData\Local\Temp\ccXIwqcP.s 			page 3


  80              		.thumb_func
  81              		.type	WS2812driver_1_write2fifo, %function
  82              	WS2812driver_1_write2fifo:
  83              	.LFB1:
  36:.\Generated_Source\PSoC4/WS2812driver_1.c **** 
  37:.\Generated_Source\PSoC4/WS2812driver_1.c **** /*******************************************************************************
  38:.\Generated_Source\PSoC4/WS2812driver_1.c **** * Function Name: Pin_1_Write
  39:.\Generated_Source\PSoC4/WS2812driver_1.c **** ********************************************************************************
  40:.\Generated_Source\PSoC4/WS2812driver_1.c **** *
  41:.\Generated_Source\PSoC4/WS2812driver_1.c **** * Summary:
  42:.\Generated_Source\PSoC4/WS2812driver_1.c **** *  Write a data array to the fifo.  
  43:.\Generated_Source\PSoC4/WS2812driver_1.c **** *
  44:.\Generated_Source\PSoC4/WS2812driver_1.c **** * Parameters:  
  45:.\Generated_Source\PSoC4/WS2812driver_1.c **** *  *buff:  The pointer to data array.
  46:.\Generated_Source\PSoC4/WS2812driver_1.c **** *  len :   The length of the array to be written.
  47:.\Generated_Source\PSoC4/WS2812driver_1.c **** *          Length MUST be less than 10.
  48:.\Generated_Source\PSoC4/WS2812driver_1.c **** *
  49:.\Generated_Source\PSoC4/WS2812driver_1.c **** * Return: 
  50:.\Generated_Source\PSoC4/WS2812driver_1.c **** *  None 
  51:.\Generated_Source\PSoC4/WS2812driver_1.c **** *  
  52:.\Generated_Source\PSoC4/WS2812driver_1.c **** *******************************************************************************/
  53:.\Generated_Source\PSoC4/WS2812driver_1.c **** void WS2812driver_1_write2fifo(unsigned char* buff, unsigned char len){
  84              		.loc 1 53 0
  85              		.cfi_startproc
  86 0000 80B5     		push	{r7, lr}
  87              	.LCFI3:
  88              		.cfi_def_cfa_offset 8
  89              		.cfi_offset 7, -8
  90              		.cfi_offset 14, -4
  91 0002 84B0     		sub	sp, sp, #16
  92              	.LCFI4:
  93              		.cfi_def_cfa_offset 24
  94 0004 00AF     		add	r7, sp, #0
  95              	.LCFI5:
  96              		.cfi_def_cfa_register 7
  97 0006 7860     		str	r0, [r7, #4]
  98 0008 0A1C     		mov	r2, r1
  99 000a FB1C     		add	r3, r7, #3
 100 000c 1A70     		strb	r2, [r3]
  54:.\Generated_Source\PSoC4/WS2812driver_1.c ****     unsigned char i;
  55:.\Generated_Source\PSoC4/WS2812driver_1.c ****     for(i=0;i<len;i++){
 101              		.loc 1 55 0
 102 000e 3B1C     		mov	r3, r7
 103 0010 0F33     		add	r3, r3, #15
 104 0012 0022     		mov	r2, #0
 105 0014 1A70     		strb	r2, [r3]
 106 0016 20E0     		b	.L7
 107              	.L10:
  56:.\Generated_Source\PSoC4/WS2812driver_1.c ****         if(i<5){
 108              		.loc 1 56 0
 109 0018 3B1C     		mov	r3, r7
 110 001a 0F33     		add	r3, r3, #15
 111 001c 1B78     		ldrb	r3, [r3]
 112 001e 042B     		cmp	r3, #4
 113 0020 0AD8     		bhi	.L8
  57:.\Generated_Source\PSoC4/WS2812driver_1.c ****             WS2812driver_1_write_byte(buff[i], FIFO_F0);
 114              		.loc 1 57 0
ARM GAS  C:\Users\TSUBAS~1\AppData\Local\Temp\ccXIwqcP.s 			page 4


 115 0022 3B1C     		mov	r3, r7
 116 0024 0F33     		add	r3, r3, #15
 117 0026 1B78     		ldrb	r3, [r3]
 118 0028 7A68     		ldr	r2, [r7, #4]
 119 002a D318     		add	r3, r2, r3
 120 002c 1B78     		ldrb	r3, [r3]
 121 002e 181C     		mov	r0, r3
 122 0030 0021     		mov	r1, #0
 123 0032 FFF7FEFF 		bl	WS2812driver_1_write_byte
 124 0036 09E0     		b	.L9
 125              	.L8:
  58:.\Generated_Source\PSoC4/WS2812driver_1.c ****         }else{
  59:.\Generated_Source\PSoC4/WS2812driver_1.c ****             WS2812driver_1_write_byte(buff[i], FIFO_F1);
 126              		.loc 1 59 0
 127 0038 3B1C     		mov	r3, r7
 128 003a 0F33     		add	r3, r3, #15
 129 003c 1B78     		ldrb	r3, [r3]
 130 003e 7A68     		ldr	r2, [r7, #4]
 131 0040 D318     		add	r3, r2, r3
 132 0042 1B78     		ldrb	r3, [r3]
 133 0044 181C     		mov	r0, r3
 134 0046 0121     		mov	r1, #1
 135 0048 FFF7FEFF 		bl	WS2812driver_1_write_byte
 136              	.L9:
  55:.\Generated_Source\PSoC4/WS2812driver_1.c ****     for(i=0;i<len;i++){
 137              		.loc 1 55 0
 138 004c 3B1C     		mov	r3, r7
 139 004e 0F33     		add	r3, r3, #15
 140 0050 3A1C     		mov	r2, r7
 141 0052 0F32     		add	r2, r2, #15
 142 0054 1278     		ldrb	r2, [r2]
 143 0056 0132     		add	r2, r2, #1
 144 0058 1A70     		strb	r2, [r3]
 145              	.L7:
  55:.\Generated_Source\PSoC4/WS2812driver_1.c ****     for(i=0;i<len;i++){
 146              		.loc 1 55 0 is_stmt 0 discriminator 1
 147 005a 3A1C     		mov	r2, r7
 148 005c 0F32     		add	r2, r2, #15
 149 005e FB1C     		add	r3, r7, #3
 150 0060 1278     		ldrb	r2, [r2]
 151 0062 1B78     		ldrb	r3, [r3]
 152 0064 9A42     		cmp	r2, r3
 153 0066 D7D3     		bcc	.L10
  60:.\Generated_Source\PSoC4/WS2812driver_1.c ****         }
  61:.\Generated_Source\PSoC4/WS2812driver_1.c ****     }
  62:.\Generated_Source\PSoC4/WS2812driver_1.c **** }
 154              		.loc 1 62 0 is_stmt 1
 155 0068 BD46     		mov	sp, r7
 156 006a 04B0     		add	sp, sp, #16
 157              		@ sp needed for prologue
 158 006c 80BD     		pop	{r7, pc}
 159              		.cfi_endproc
 160              	.LFE1:
 161              		.size	WS2812driver_1_write2fifo, .-WS2812driver_1_write2fifo
 162 006e C046     		.text
 163              	.Letext0:
 164              		.file 2 "./Generated_Source/PSoC4/cytypes.h"
ARM GAS  C:\Users\TSUBAS~1\AppData\Local\Temp\ccXIwqcP.s 			page 5

