ARM GAS  C:\Users\TSUBAS~1\AppData\Local\Temp\ccJpUpa5.s 			page 1


   1              		.cpu cortex-m0
   2              		.fpu softvfp
   3              		.eabi_attribute 20, 1
   4              		.eabi_attribute 21, 1
   5              		.eabi_attribute 23, 3
   6              		.eabi_attribute 24, 1
   7              		.eabi_attribute 25, 1
   8              		.eabi_attribute 26, 1
   9              		.eabi_attribute 30, 6
  10              		.eabi_attribute 34, 0
  11              		.eabi_attribute 18, 4
  12              		.code	16
  13              		.file	"CapSense_CSD_PM.c"
  14              		.text
  15              	.Ltext0:
  16              		.cfi_sections	.debug_frame
  17              		.bss
  18              		.align	2
  19              	CapSense_CSD_backup:
  20 0000 00       		.space	1
  21 0001 000000   		.section	.text.CapSense_CSD_SaveConfig,"ax",%progbits
  22              		.align	2
  23              		.global	CapSense_CSD_SaveConfig
  24              		.code	16
  25              		.thumb_func
  26              		.type	CapSense_CSD_SaveConfig, %function
  27              	CapSense_CSD_SaveConfig:
  28              	.LFB33:
  29              		.file 1 ".\\Generated_Source\\PSoC4\\CapSense_CSD_PM.c"
   1:.\Generated_Source\PSoC4/CapSense_CSD_PM.c **** /*******************************************************************************
   2:.\Generated_Source\PSoC4/CapSense_CSD_PM.c **** * File Name: CapSense_CSD_PM.c
   3:.\Generated_Source\PSoC4/CapSense_CSD_PM.c **** * Version 2.0
   4:.\Generated_Source\PSoC4/CapSense_CSD_PM.c **** *
   5:.\Generated_Source\PSoC4/CapSense_CSD_PM.c **** * Description:
   6:.\Generated_Source\PSoC4/CapSense_CSD_PM.c **** *  This file provides Sleep APIs for CapSense CSD Component.
   7:.\Generated_Source\PSoC4/CapSense_CSD_PM.c **** *
   8:.\Generated_Source\PSoC4/CapSense_CSD_PM.c **** * Note:
   9:.\Generated_Source\PSoC4/CapSense_CSD_PM.c **** *
  10:.\Generated_Source\PSoC4/CapSense_CSD_PM.c **** ********************************************************************************
  11:.\Generated_Source\PSoC4/CapSense_CSD_PM.c **** * Copyright 2014, Cypress Semiconductor Corporation.  All rights reserved.
  12:.\Generated_Source\PSoC4/CapSense_CSD_PM.c **** * You may use this file only in accordance with the license, terms, conditions, 
  13:.\Generated_Source\PSoC4/CapSense_CSD_PM.c **** * disclaimers, and limitations in the end user license agreement accompanying 
  14:.\Generated_Source\PSoC4/CapSense_CSD_PM.c **** * the software package with which this file was provided.
  15:.\Generated_Source\PSoC4/CapSense_CSD_PM.c **** *******************************************************************************/
  16:.\Generated_Source\PSoC4/CapSense_CSD_PM.c **** 
  17:.\Generated_Source\PSoC4/CapSense_CSD_PM.c **** #include "CapSense_CSD.h"
  18:.\Generated_Source\PSoC4/CapSense_CSD_PM.c **** 
  19:.\Generated_Source\PSoC4/CapSense_CSD_PM.c **** static CapSense_CSD_BACKUP_STRUCT CapSense_CSD_backup =
  20:.\Generated_Source\PSoC4/CapSense_CSD_PM.c **** {   
  21:.\Generated_Source\PSoC4/CapSense_CSD_PM.c ****     0x00u, /* enableState; */
  22:.\Generated_Source\PSoC4/CapSense_CSD_PM.c **** };
  23:.\Generated_Source\PSoC4/CapSense_CSD_PM.c **** 
  24:.\Generated_Source\PSoC4/CapSense_CSD_PM.c **** 
  25:.\Generated_Source\PSoC4/CapSense_CSD_PM.c **** /*******************************************************************************
  26:.\Generated_Source\PSoC4/CapSense_CSD_PM.c **** * Function Name: CapSense_CSD_SaveConfig
  27:.\Generated_Source\PSoC4/CapSense_CSD_PM.c **** ********************************************************************************
  28:.\Generated_Source\PSoC4/CapSense_CSD_PM.c **** *
ARM GAS  C:\Users\TSUBAS~1\AppData\Local\Temp\ccJpUpa5.s 			page 2


  29:.\Generated_Source\PSoC4/CapSense_CSD_PM.c **** * Summary:
  30:.\Generated_Source\PSoC4/CapSense_CSD_PM.c **** *  Saves the customer configuration of CapSense.
  31:.\Generated_Source\PSoC4/CapSense_CSD_PM.c **** *
  32:.\Generated_Source\PSoC4/CapSense_CSD_PM.c **** * Parameters:
  33:.\Generated_Source\PSoC4/CapSense_CSD_PM.c **** *  None
  34:.\Generated_Source\PSoC4/CapSense_CSD_PM.c **** *
  35:.\Generated_Source\PSoC4/CapSense_CSD_PM.c **** * Return:
  36:.\Generated_Source\PSoC4/CapSense_CSD_PM.c **** *  None
  37:.\Generated_Source\PSoC4/CapSense_CSD_PM.c **** *
  38:.\Generated_Source\PSoC4/CapSense_CSD_PM.c **** * Global Variables:
  39:.\Generated_Source\PSoC4/CapSense_CSD_PM.c **** *  CapSense_CSD_backup - used to save the component state before entering the  sleep 
  40:.\Generated_Source\PSoC4/CapSense_CSD_PM.c **** *  mode and none-retention registers.
  41:.\Generated_Source\PSoC4/CapSense_CSD_PM.c **** *
  42:.\Generated_Source\PSoC4/CapSense_CSD_PM.c **** * Side Effects:
  43:.\Generated_Source\PSoC4/CapSense_CSD_PM.c **** *  None
  44:.\Generated_Source\PSoC4/CapSense_CSD_PM.c **** *
  45:.\Generated_Source\PSoC4/CapSense_CSD_PM.c **** *******************************************************************************/
  46:.\Generated_Source\PSoC4/CapSense_CSD_PM.c **** void CapSense_CSD_SaveConfig(void)
  47:.\Generated_Source\PSoC4/CapSense_CSD_PM.c **** {
  30              		.loc 1 47 0
  31              		.cfi_startproc
  32 0000 80B5     		push	{r7, lr}
  33              	.LCFI0:
  34              		.cfi_def_cfa_offset 8
  35              		.cfi_offset 7, -8
  36              		.cfi_offset 14, -4
  37 0002 00AF     		add	r7, sp, #0
  38              	.LCFI1:
  39              		.cfi_def_cfa_register 7
  48:.\Generated_Source\PSoC4/CapSense_CSD_PM.c **** 	if ((CapSense_CSD_CSD_CFG_REG & CapSense_CSD_CSD_CFG_ENABLE) != 0u)
  40              		.loc 1 48 0
  41 0004 044B     		ldr	r3, .L3
  42 0006 1B68     		ldr	r3, [r3]
  43 0008 002B     		cmp	r3, #0
  44 000a 02DA     		bge	.L1
  49:.\Generated_Source\PSoC4/CapSense_CSD_PM.c **** 	{
  50:.\Generated_Source\PSoC4/CapSense_CSD_PM.c **** 		CapSense_CSD_backup.enableState = 1u;
  45              		.loc 1 50 0
  46 000c 034B     		ldr	r3, .L3+4
  47 000e 0122     		mov	r2, #1
  48 0010 1A70     		strb	r2, [r3]
  49              	.L1:
  51:.\Generated_Source\PSoC4/CapSense_CSD_PM.c **** 	}
  52:.\Generated_Source\PSoC4/CapSense_CSD_PM.c **** }
  50              		.loc 1 52 0
  51 0012 BD46     		mov	sp, r7
  52              		@ sp needed for prologue
  53 0014 80BD     		pop	{r7, pc}
  54              	.L4:
  55 0016 C046     		.align	2
  56              	.L3:
  57 0018 04000840 		.word	1074266116
  58 001c 00000000 		.word	CapSense_CSD_backup
  59              		.cfi_endproc
  60              	.LFE33:
  61              		.size	CapSense_CSD_SaveConfig, .-CapSense_CSD_SaveConfig
  62              		.section	.text.CapSense_CSD_Sleep,"ax",%progbits
ARM GAS  C:\Users\TSUBAS~1\AppData\Local\Temp\ccJpUpa5.s 			page 3


  63              		.align	2
  64              		.global	CapSense_CSD_Sleep
  65              		.code	16
  66              		.thumb_func
  67              		.type	CapSense_CSD_Sleep, %function
  68              	CapSense_CSD_Sleep:
  69              	.LFB34:
  53:.\Generated_Source\PSoC4/CapSense_CSD_PM.c **** 
  54:.\Generated_Source\PSoC4/CapSense_CSD_PM.c **** 
  55:.\Generated_Source\PSoC4/CapSense_CSD_PM.c **** /*******************************************************************************
  56:.\Generated_Source\PSoC4/CapSense_CSD_PM.c **** * Function Name: CapSense_CSD_Sleep
  57:.\Generated_Source\PSoC4/CapSense_CSD_PM.c **** ********************************************************************************
  58:.\Generated_Source\PSoC4/CapSense_CSD_PM.c **** *
  59:.\Generated_Source\PSoC4/CapSense_CSD_PM.c **** * Summary:
  60:.\Generated_Source\PSoC4/CapSense_CSD_PM.c **** *  Disables the Active mode power.
  61:.\Generated_Source\PSoC4/CapSense_CSD_PM.c **** *
  62:.\Generated_Source\PSoC4/CapSense_CSD_PM.c **** * Parameters:
  63:.\Generated_Source\PSoC4/CapSense_CSD_PM.c **** *  None
  64:.\Generated_Source\PSoC4/CapSense_CSD_PM.c **** *
  65:.\Generated_Source\PSoC4/CapSense_CSD_PM.c **** * Return:
  66:.\Generated_Source\PSoC4/CapSense_CSD_PM.c **** *  None
  67:.\Generated_Source\PSoC4/CapSense_CSD_PM.c **** *
  68:.\Generated_Source\PSoC4/CapSense_CSD_PM.c **** * Global Variables:
  69:.\Generated_Source\PSoC4/CapSense_CSD_PM.c **** *  CapSense_CSD_backup - used to save the component state before entering the sleep 
  70:.\Generated_Source\PSoC4/CapSense_CSD_PM.c **** *  mode.
  71:.\Generated_Source\PSoC4/CapSense_CSD_PM.c **** *
  72:.\Generated_Source\PSoC4/CapSense_CSD_PM.c **** *******************************************************************************/
  73:.\Generated_Source\PSoC4/CapSense_CSD_PM.c **** void CapSense_CSD_Sleep(void)
  74:.\Generated_Source\PSoC4/CapSense_CSD_PM.c **** {
  70              		.loc 1 74 0
  71              		.cfi_startproc
  72 0000 80B5     		push	{r7, lr}
  73              	.LCFI2:
  74              		.cfi_def_cfa_offset 8
  75              		.cfi_offset 7, -8
  76              		.cfi_offset 14, -4
  77 0002 00AF     		add	r7, sp, #0
  78              	.LCFI3:
  79              		.cfi_def_cfa_register 7
  75:.\Generated_Source\PSoC4/CapSense_CSD_PM.c **** 	CapSense_CSD_SaveConfig();
  80              		.loc 1 75 0
  81 0004 FFF7FEFF 		bl	CapSense_CSD_SaveConfig
  76:.\Generated_Source\PSoC4/CapSense_CSD_PM.c **** 		
  77:.\Generated_Source\PSoC4/CapSense_CSD_PM.c **** 	/* Disable interrupt */
  78:.\Generated_Source\PSoC4/CapSense_CSD_PM.c **** 	CyIntDisable(CapSense_CSD_ISR_NUMBER);
  82              		.loc 1 78 0
  83 0008 0F20     		mov	r0, #15
  84 000a FFF7FEFF 		bl	CyIntDisable
  79:.\Generated_Source\PSoC4/CapSense_CSD_PM.c **** 	
  80:.\Generated_Source\PSoC4/CapSense_CSD_PM.c **** 	CapSense_CSD_CSD_CFG_REG &= ~(CapSense_CSD_CSD_CFG_SENSE_COMP_EN | CapSense_CSD_CSD_CFG_SENSE_EN);
  85              		.loc 1 80 0
  86 000e 094B     		ldr	r3, .L6
  87 0010 084A     		ldr	r2, .L6
  88 0012 1168     		ldr	r1, [r2]
  89 0014 084A     		ldr	r2, .L6+4
  90 0016 0A40     		and	r2, r1
  91 0018 1A60     		str	r2, [r3]
ARM GAS  C:\Users\TSUBAS~1\AppData\Local\Temp\ccJpUpa5.s 			page 4


  81:.\Generated_Source\PSoC4/CapSense_CSD_PM.c **** 	
  82:.\Generated_Source\PSoC4/CapSense_CSD_PM.c **** 	#if(CapSense_CSD_IDAC_CNT == 2u)
  83:.\Generated_Source\PSoC4/CapSense_CSD_PM.c **** 		CapSense_CSD_CSD_CFG_REG &= ~(CapSense_CSD_CSD_CFG_ENABLE);
  92              		.loc 1 83 0
  93 001a 064B     		ldr	r3, .L6
  94 001c 054A     		ldr	r2, .L6
  95 001e 1268     		ldr	r2, [r2]
  96 0020 5200     		lsl	r2, r2, #1
  97 0022 5208     		lsr	r2, r2, #1
  98 0024 1A60     		str	r2, [r3]
  84:.\Generated_Source\PSoC4/CapSense_CSD_PM.c **** 	#endif /* (CapSense_CSD_IDAC_CNT == 2u) */
  85:.\Generated_Source\PSoC4/CapSense_CSD_PM.c **** 	
  86:.\Generated_Source\PSoC4/CapSense_CSD_PM.c **** 	/* Disable Clocks */
  87:.\Generated_Source\PSoC4/CapSense_CSD_PM.c ****     CapSense_CSD_SenseClk_Stop();
  99              		.loc 1 87 0
 100 0026 FFF7FEFF 		bl	CapSense_CSD_SenseClk_Stop
  88:.\Generated_Source\PSoC4/CapSense_CSD_PM.c ****     CapSense_CSD_SampleClk_Stop();
 101              		.loc 1 88 0
 102 002a FFF7FEFF 		bl	CapSense_CSD_SampleClk_Stop
  89:.\Generated_Source\PSoC4/CapSense_CSD_PM.c **** }
 103              		.loc 1 89 0
 104 002e BD46     		mov	sp, r7
 105              		@ sp needed for prologue
 106 0030 80BD     		pop	{r7, pc}
 107              	.L7:
 108 0032 C046     		.align	2
 109              	.L6:
 110 0034 04000840 		.word	1074266116
 111 0038 FFEFF7FF 		.word	-528385
 112              		.cfi_endproc
 113              	.LFE34:
 114              		.size	CapSense_CSD_Sleep, .-CapSense_CSD_Sleep
 115              		.section	.text.CapSense_CSD_RestoreConfig,"ax",%progbits
 116              		.align	2
 117              		.global	CapSense_CSD_RestoreConfig
 118              		.code	16
 119              		.thumb_func
 120              		.type	CapSense_CSD_RestoreConfig, %function
 121              	CapSense_CSD_RestoreConfig:
 122              	.LFB35:
  90:.\Generated_Source\PSoC4/CapSense_CSD_PM.c **** 
  91:.\Generated_Source\PSoC4/CapSense_CSD_PM.c **** 
  92:.\Generated_Source\PSoC4/CapSense_CSD_PM.c **** /*******************************************************************************
  93:.\Generated_Source\PSoC4/CapSense_CSD_PM.c **** * Function Name: CapSense_CSD_RestoreConfig
  94:.\Generated_Source\PSoC4/CapSense_CSD_PM.c **** ********************************************************************************
  95:.\Generated_Source\PSoC4/CapSense_CSD_PM.c **** *
  96:.\Generated_Source\PSoC4/CapSense_CSD_PM.c **** * Summary:
  97:.\Generated_Source\PSoC4/CapSense_CSD_PM.c **** *  Restores the CapSense configuration.
  98:.\Generated_Source\PSoC4/CapSense_CSD_PM.c **** *
  99:.\Generated_Source\PSoC4/CapSense_CSD_PM.c **** * Parameters:
 100:.\Generated_Source\PSoC4/CapSense_CSD_PM.c **** *  None
 101:.\Generated_Source\PSoC4/CapSense_CSD_PM.c **** *
 102:.\Generated_Source\PSoC4/CapSense_CSD_PM.c **** * Return:
 103:.\Generated_Source\PSoC4/CapSense_CSD_PM.c **** *  None
 104:.\Generated_Source\PSoC4/CapSense_CSD_PM.c **** *
 105:.\Generated_Source\PSoC4/CapSense_CSD_PM.c **** * Side Effects:
 106:.\Generated_Source\PSoC4/CapSense_CSD_PM.c **** *  Must be called only after CapSense_CSD_SaveConfig() routine. Otherwise 
ARM GAS  C:\Users\TSUBAS~1\AppData\Local\Temp\ccJpUpa5.s 			page 5


 107:.\Generated_Source\PSoC4/CapSense_CSD_PM.c **** *  the component configuration will be overwritten with its initial setting.  
 108:.\Generated_Source\PSoC4/CapSense_CSD_PM.c **** *
 109:.\Generated_Source\PSoC4/CapSense_CSD_PM.c **** * Global Variables:
 110:.\Generated_Source\PSoC4/CapSense_CSD_PM.c **** *  CapSense_CSD_backup - used to save the component state before entering the sleep 
 111:.\Generated_Source\PSoC4/CapSense_CSD_PM.c **** *  mode and none-retention registers.
 112:.\Generated_Source\PSoC4/CapSense_CSD_PM.c **** *
 113:.\Generated_Source\PSoC4/CapSense_CSD_PM.c **** *******************************************************************************/
 114:.\Generated_Source\PSoC4/CapSense_CSD_PM.c **** void CapSense_CSD_RestoreConfig(void)
 115:.\Generated_Source\PSoC4/CapSense_CSD_PM.c **** {
 123              		.loc 1 115 0
 124              		.cfi_startproc
 125 0000 80B5     		push	{r7, lr}
 126              	.LCFI4:
 127              		.cfi_def_cfa_offset 8
 128              		.cfi_offset 7, -8
 129              		.cfi_offset 14, -4
 130 0002 00AF     		add	r7, sp, #0
 131              	.LCFI5:
 132              		.cfi_def_cfa_register 7
 116:.\Generated_Source\PSoC4/CapSense_CSD_PM.c **** 
 117:.\Generated_Source\PSoC4/CapSense_CSD_PM.c **** }
 133              		.loc 1 117 0
 134 0004 BD46     		mov	sp, r7
 135              		@ sp needed for prologue
 136 0006 80BD     		pop	{r7, pc}
 137              		.cfi_endproc
 138              	.LFE35:
 139              		.size	CapSense_CSD_RestoreConfig, .-CapSense_CSD_RestoreConfig
 140              		.section	.text.CapSense_CSD_Wakeup,"ax",%progbits
 141              		.align	2
 142              		.global	CapSense_CSD_Wakeup
 143              		.code	16
 144              		.thumb_func
 145              		.type	CapSense_CSD_Wakeup, %function
 146              	CapSense_CSD_Wakeup:
 147              	.LFB36:
 118:.\Generated_Source\PSoC4/CapSense_CSD_PM.c ****  
 119:.\Generated_Source\PSoC4/CapSense_CSD_PM.c ****  
 120:.\Generated_Source\PSoC4/CapSense_CSD_PM.c **** /*******************************************************************************
 121:.\Generated_Source\PSoC4/CapSense_CSD_PM.c **** * Function Name: CapSense_CSD_Wakeup
 122:.\Generated_Source\PSoC4/CapSense_CSD_PM.c **** ********************************************************************************
 123:.\Generated_Source\PSoC4/CapSense_CSD_PM.c **** *
 124:.\Generated_Source\PSoC4/CapSense_CSD_PM.c **** * Summary:
 125:.\Generated_Source\PSoC4/CapSense_CSD_PM.c **** *  Restores the CapSense configuration and non-retention register values. 
 126:.\Generated_Source\PSoC4/CapSense_CSD_PM.c **** *  Restores the enabled state of the component by setting the Active mode power template 
 127:.\Generated_Source\PSoC4/CapSense_CSD_PM.c **** *  bits for a number of components used within CapSense.
 128:.\Generated_Source\PSoC4/CapSense_CSD_PM.c **** *
 129:.\Generated_Source\PSoC4/CapSense_CSD_PM.c **** * Parameters:
 130:.\Generated_Source\PSoC4/CapSense_CSD_PM.c **** *  None
 131:.\Generated_Source\PSoC4/CapSense_CSD_PM.c **** *
 132:.\Generated_Source\PSoC4/CapSense_CSD_PM.c **** * Return:
 133:.\Generated_Source\PSoC4/CapSense_CSD_PM.c **** *  None
 134:.\Generated_Source\PSoC4/CapSense_CSD_PM.c **** *
 135:.\Generated_Source\PSoC4/CapSense_CSD_PM.c **** * Global Variables:
 136:.\Generated_Source\PSoC4/CapSense_CSD_PM.c **** *  CapSense_CSD_backup - used to save the component state before entering the sleep 
 137:.\Generated_Source\PSoC4/CapSense_CSD_PM.c **** *  mode and none-retention registers.
 138:.\Generated_Source\PSoC4/CapSense_CSD_PM.c **** *
ARM GAS  C:\Users\TSUBAS~1\AppData\Local\Temp\ccJpUpa5.s 			page 6


 139:.\Generated_Source\PSoC4/CapSense_CSD_PM.c **** *******************************************************************************/
 140:.\Generated_Source\PSoC4/CapSense_CSD_PM.c **** void CapSense_CSD_Wakeup(void)
 141:.\Generated_Source\PSoC4/CapSense_CSD_PM.c **** {
 148              		.loc 1 141 0
 149              		.cfi_startproc
 150 0000 80B5     		push	{r7, lr}
 151              	.LCFI6:
 152              		.cfi_def_cfa_offset 8
 153              		.cfi_offset 7, -8
 154              		.cfi_offset 14, -4
 155 0002 00AF     		add	r7, sp, #0
 156              	.LCFI7:
 157              		.cfi_def_cfa_register 7
 142:.\Generated_Source\PSoC4/CapSense_CSD_PM.c **** 	/* Enable the Clocks */
 143:.\Generated_Source\PSoC4/CapSense_CSD_PM.c ****     CapSense_CSD_SenseClk_Start();
 158              		.loc 1 143 0
 159 0004 FFF7FEFF 		bl	CapSense_CSD_SenseClk_Start
 144:.\Generated_Source\PSoC4/CapSense_CSD_PM.c ****     CapSense_CSD_SampleClk_Start();
 160              		.loc 1 144 0
 161 0008 FFF7FEFF 		bl	CapSense_CSD_SampleClk_Start
 145:.\Generated_Source\PSoC4/CapSense_CSD_PM.c ****     
 146:.\Generated_Source\PSoC4/CapSense_CSD_PM.c **** 	/* Restore CapSense Enable state */
 147:.\Generated_Source\PSoC4/CapSense_CSD_PM.c ****     if (CapSense_CSD_backup.enableState != 0u)
 162              		.loc 1 147 0
 163 000c 034B     		ldr	r3, .L11
 164 000e 1B78     		ldrb	r3, [r3]
 165 0010 002B     		cmp	r3, #0
 166 0012 01D0     		beq	.L9
 148:.\Generated_Source\PSoC4/CapSense_CSD_PM.c ****     {
 149:.\Generated_Source\PSoC4/CapSense_CSD_PM.c ****         CapSense_CSD_Enable();
 167              		.loc 1 149 0
 168 0014 FFF7FEFF 		bl	CapSense_CSD_Enable
 169              	.L9:
 150:.\Generated_Source\PSoC4/CapSense_CSD_PM.c ****     }
 151:.\Generated_Source\PSoC4/CapSense_CSD_PM.c **** }
 170              		.loc 1 151 0
 171 0018 BD46     		mov	sp, r7
 172              		@ sp needed for prologue
 173 001a 80BD     		pop	{r7, pc}
 174              	.L12:
 175              		.align	2
 176              	.L11:
 177 001c 00000000 		.word	CapSense_CSD_backup
 178              		.cfi_endproc
 179              	.LFE36:
 180              		.size	CapSense_CSD_Wakeup, .-CapSense_CSD_Wakeup
 181              		.text
 182              	.Letext0:
 183              		.file 2 ".\\Generated_Source\\PSoC4\\cytypes.h"
 184              		.file 3 ".\\Generated_Source\\PSoC4\\CapSense_CSD.h"