ARM GAS  C:\Users\TSUBAS~1\AppData\Local\Temp\cczdhWZx.s 			page 1


   1              		.cpu cortex-m0
   2              		.fpu softvfp
   3              		.eabi_attribute 20, 1
   4              		.eabi_attribute 21, 1
   5              		.eabi_attribute 23, 3
   6              		.eabi_attribute 24, 1
   7              		.eabi_attribute 25, 1
   8              		.eabi_attribute 26, 1
   9              		.eabi_attribute 30, 6
  10              		.eabi_attribute 34, 0
  11              		.eabi_attribute 18, 4
  12              		.code	16
  13              		.file	"LED_CONTROL.c"
  14              		.text
  15              	.Ltext0:
  16              		.cfi_sections	.debug_frame
  17              		.global	LED_CONTROL_initVar
  18              		.bss
  19              		.type	LED_CONTROL_initVar, %object
  20              		.size	LED_CONTROL_initVar, 1
  21              	LED_CONTROL_initVar:
  22 0000 00       		.space	1
  23              		.section	.text.LED_CONTROL_Init,"ax",%progbits
  24              		.align	2
  25              		.global	LED_CONTROL_Init
  26              		.code	16
  27              		.thumb_func
  28              		.type	LED_CONTROL_Init, %function
  29              	LED_CONTROL_Init:
  30              	.LFB0:
  31              		.file 1 ".\\Generated_Source\\PSoC4\\LED_CONTROL.c"
   1:.\Generated_Source\PSoC4/LED_CONTROL.c **** /*******************************************************************************
   2:.\Generated_Source\PSoC4/LED_CONTROL.c **** * File Name: LED_CONTROL.c
   3:.\Generated_Source\PSoC4/LED_CONTROL.c **** * Version 1.10
   4:.\Generated_Source\PSoC4/LED_CONTROL.c **** *
   5:.\Generated_Source\PSoC4/LED_CONTROL.c **** * Description:
   6:.\Generated_Source\PSoC4/LED_CONTROL.c **** *  This file provides the source code to the API for the LED_CONTROL
   7:.\Generated_Source\PSoC4/LED_CONTROL.c **** *  component
   8:.\Generated_Source\PSoC4/LED_CONTROL.c **** *
   9:.\Generated_Source\PSoC4/LED_CONTROL.c **** * Note:
  10:.\Generated_Source\PSoC4/LED_CONTROL.c **** *  None
  11:.\Generated_Source\PSoC4/LED_CONTROL.c **** *
  12:.\Generated_Source\PSoC4/LED_CONTROL.c **** ********************************************************************************
  13:.\Generated_Source\PSoC4/LED_CONTROL.c **** * Copyright 2013-2014, Cypress Semiconductor Corporation.  All rights reserved.
  14:.\Generated_Source\PSoC4/LED_CONTROL.c **** * You may use this file only in accordance with the license, terms, conditions,
  15:.\Generated_Source\PSoC4/LED_CONTROL.c **** * disclaimers, and limitations in the end user license agreement accompanying
  16:.\Generated_Source\PSoC4/LED_CONTROL.c **** * the software package with which this file was provided.
  17:.\Generated_Source\PSoC4/LED_CONTROL.c **** *******************************************************************************/
  18:.\Generated_Source\PSoC4/LED_CONTROL.c **** 
  19:.\Generated_Source\PSoC4/LED_CONTROL.c **** #include "LED_CONTROL.h"
  20:.\Generated_Source\PSoC4/LED_CONTROL.c **** #include "CyLib.h"
  21:.\Generated_Source\PSoC4/LED_CONTROL.c **** 
  22:.\Generated_Source\PSoC4/LED_CONTROL.c **** uint8 LED_CONTROL_initVar = 0u;
  23:.\Generated_Source\PSoC4/LED_CONTROL.c **** 
  24:.\Generated_Source\PSoC4/LED_CONTROL.c **** 
  25:.\Generated_Source\PSoC4/LED_CONTROL.c **** /*******************************************************************************
  26:.\Generated_Source\PSoC4/LED_CONTROL.c **** * Function Name: LED_CONTROL_Init
ARM GAS  C:\Users\TSUBAS~1\AppData\Local\Temp\cczdhWZx.s 			page 2


  27:.\Generated_Source\PSoC4/LED_CONTROL.c **** ********************************************************************************
  28:.\Generated_Source\PSoC4/LED_CONTROL.c **** *
  29:.\Generated_Source\PSoC4/LED_CONTROL.c **** * Summary:
  30:.\Generated_Source\PSoC4/LED_CONTROL.c **** *  Initialize/Restore default LED_CONTROL configuration.
  31:.\Generated_Source\PSoC4/LED_CONTROL.c **** *
  32:.\Generated_Source\PSoC4/LED_CONTROL.c **** * Parameters:
  33:.\Generated_Source\PSoC4/LED_CONTROL.c **** *  None
  34:.\Generated_Source\PSoC4/LED_CONTROL.c **** *
  35:.\Generated_Source\PSoC4/LED_CONTROL.c **** * Return:
  36:.\Generated_Source\PSoC4/LED_CONTROL.c **** *  None
  37:.\Generated_Source\PSoC4/LED_CONTROL.c **** *
  38:.\Generated_Source\PSoC4/LED_CONTROL.c **** *******************************************************************************/
  39:.\Generated_Source\PSoC4/LED_CONTROL.c **** void LED_CONTROL_Init(void)
  40:.\Generated_Source\PSoC4/LED_CONTROL.c **** {
  32              		.loc 1 40 0
  33              		.cfi_startproc
  34 0000 80B5     		push	{r7, lr}
  35              	.LCFI0:
  36              		.cfi_def_cfa_offset 8
  37              		.cfi_offset 7, -8
  38              		.cfi_offset 14, -4
  39 0002 00AF     		add	r7, sp, #0
  40              	.LCFI1:
  41              		.cfi_def_cfa_register 7
  41:.\Generated_Source\PSoC4/LED_CONTROL.c **** 
  42:.\Generated_Source\PSoC4/LED_CONTROL.c ****     /* Set values from customizer to CTRL */
  43:.\Generated_Source\PSoC4/LED_CONTROL.c ****     #if (LED_CONTROL__QUAD == LED_CONTROL_CONFIG)
  44:.\Generated_Source\PSoC4/LED_CONTROL.c ****         LED_CONTROL_CONTROL_REG =
  45:.\Generated_Source\PSoC4/LED_CONTROL.c ****         (((uint32)(LED_CONTROL_QUAD_ENCODING_MODES     << LED_CONTROL_QUAD_MODE_SHIFT))       |
  46:.\Generated_Source\PSoC4/LED_CONTROL.c ****          ((uint32)(LED_CONTROL_CONFIG                  << LED_CONTROL_MODE_SHIFT)));
  47:.\Generated_Source\PSoC4/LED_CONTROL.c ****     #endif  /* (LED_CONTROL__QUAD == LED_CONTROL_CONFIG) */
  48:.\Generated_Source\PSoC4/LED_CONTROL.c **** 
  49:.\Generated_Source\PSoC4/LED_CONTROL.c ****     #if (LED_CONTROL__PWM_SEL == LED_CONTROL_CONFIG)
  50:.\Generated_Source\PSoC4/LED_CONTROL.c ****         LED_CONTROL_CONTROL_REG =
  42              		.loc 1 50 0
  43 0004 0E4B     		ldr	r3, .L2
  44 0006 8022     		mov	r2, #128
  45 0008 D204     		lsl	r2, r2, #19
  46 000a 1A60     		str	r2, [r3]
  51:.\Generated_Source\PSoC4/LED_CONTROL.c ****         (((uint32)(LED_CONTROL_PWM_STOP_EVENT          << LED_CONTROL_PWM_STOP_KILL_SHIFT))    |
  52:.\Generated_Source\PSoC4/LED_CONTROL.c ****          ((uint32)(LED_CONTROL_PWM_OUT_INVERT          << LED_CONTROL_INV_OUT_SHIFT))         |
  53:.\Generated_Source\PSoC4/LED_CONTROL.c ****          ((uint32)(LED_CONTROL_PWM_OUT_N_INVERT        << LED_CONTROL_INV_COMPL_OUT_SHIFT))     |
  54:.\Generated_Source\PSoC4/LED_CONTROL.c ****          ((uint32)(LED_CONTROL_PWM_MODE                << LED_CONTROL_MODE_SHIFT)));
  55:.\Generated_Source\PSoC4/LED_CONTROL.c **** 
  56:.\Generated_Source\PSoC4/LED_CONTROL.c ****         #if (LED_CONTROL__PWM_PR == LED_CONTROL_PWM_MODE)
  57:.\Generated_Source\PSoC4/LED_CONTROL.c ****             LED_CONTROL_CONTROL_REG |=
  58:.\Generated_Source\PSoC4/LED_CONTROL.c ****             ((uint32)(LED_CONTROL_PWM_RUN_MODE         << LED_CONTROL_ONESHOT_SHIFT));
  59:.\Generated_Source\PSoC4/LED_CONTROL.c **** 
  60:.\Generated_Source\PSoC4/LED_CONTROL.c ****             LED_CONTROL_WriteCounter(LED_CONTROL_PWM_PR_INIT_VALUE);
  61:.\Generated_Source\PSoC4/LED_CONTROL.c ****         #else
  62:.\Generated_Source\PSoC4/LED_CONTROL.c ****             LED_CONTROL_CONTROL_REG |=
  47              		.loc 1 62 0
  48 000c 0C4B     		ldr	r3, .L2
  49 000e 0C4A     		ldr	r2, .L2
  50 0010 1268     		ldr	r2, [r2]
  51 0012 1A60     		str	r2, [r3]
  63:.\Generated_Source\PSoC4/LED_CONTROL.c ****             (((uint32)(LED_CONTROL_PWM_ALIGN           << LED_CONTROL_UPDOWN_SHIFT))          |
ARM GAS  C:\Users\TSUBAS~1\AppData\Local\Temp\cczdhWZx.s 			page 3


  64:.\Generated_Source\PSoC4/LED_CONTROL.c ****              ((uint32)(LED_CONTROL_PWM_KILL_EVENT      << LED_CONTROL_PWM_SYNC_KILL_SHIFT)));
  65:.\Generated_Source\PSoC4/LED_CONTROL.c ****         #endif  /* (LED_CONTROL__PWM_PR == LED_CONTROL_PWM_MODE) */
  66:.\Generated_Source\PSoC4/LED_CONTROL.c **** 
  67:.\Generated_Source\PSoC4/LED_CONTROL.c ****         #if (LED_CONTROL__PWM_DT == LED_CONTROL_PWM_MODE)
  68:.\Generated_Source\PSoC4/LED_CONTROL.c ****             LED_CONTROL_CONTROL_REG |=
  69:.\Generated_Source\PSoC4/LED_CONTROL.c ****             ((uint32)(LED_CONTROL_PWM_DEAD_TIME_CYCLE  << LED_CONTROL_PRESCALER_SHIFT));
  70:.\Generated_Source\PSoC4/LED_CONTROL.c ****         #endif  /* (LED_CONTROL__PWM_DT == LED_CONTROL_PWM_MODE) */
  71:.\Generated_Source\PSoC4/LED_CONTROL.c **** 
  72:.\Generated_Source\PSoC4/LED_CONTROL.c ****         #if (LED_CONTROL__PWM == LED_CONTROL_PWM_MODE)
  73:.\Generated_Source\PSoC4/LED_CONTROL.c ****             LED_CONTROL_CONTROL_REG |=
  52              		.loc 1 73 0
  53 0014 0A4B     		ldr	r3, .L2
  54 0016 0A4A     		ldr	r2, .L2
  55 0018 1268     		ldr	r2, [r2]
  56 001a 1A60     		str	r2, [r3]
  74:.\Generated_Source\PSoC4/LED_CONTROL.c ****             ((uint32)LED_CONTROL_PWM_PRESCALER         << LED_CONTROL_PRESCALER_SHIFT);
  75:.\Generated_Source\PSoC4/LED_CONTROL.c ****         #endif  /* (LED_CONTROL__PWM == LED_CONTROL_PWM_MODE) */
  76:.\Generated_Source\PSoC4/LED_CONTROL.c ****     #endif  /* (LED_CONTROL__PWM_SEL == LED_CONTROL_CONFIG) */
  77:.\Generated_Source\PSoC4/LED_CONTROL.c **** 
  78:.\Generated_Source\PSoC4/LED_CONTROL.c ****     #if (LED_CONTROL__TIMER == LED_CONTROL_CONFIG)
  79:.\Generated_Source\PSoC4/LED_CONTROL.c ****         LED_CONTROL_CONTROL_REG =
  80:.\Generated_Source\PSoC4/LED_CONTROL.c ****         (((uint32)(LED_CONTROL_TC_PRESCALER            << LED_CONTROL_PRESCALER_SHIFT))   |
  81:.\Generated_Source\PSoC4/LED_CONTROL.c ****          ((uint32)(LED_CONTROL_TC_COUNTER_MODE         << LED_CONTROL_UPDOWN_SHIFT))      |
  82:.\Generated_Source\PSoC4/LED_CONTROL.c ****          ((uint32)(LED_CONTROL_TC_RUN_MODE             << LED_CONTROL_ONESHOT_SHIFT))     |
  83:.\Generated_Source\PSoC4/LED_CONTROL.c ****          ((uint32)(LED_CONTROL_TC_COMP_CAP_MODE        << LED_CONTROL_MODE_SHIFT)));
  84:.\Generated_Source\PSoC4/LED_CONTROL.c ****     #endif  /* (LED_CONTROL__TIMER == LED_CONTROL_CONFIG) */
  85:.\Generated_Source\PSoC4/LED_CONTROL.c **** 
  86:.\Generated_Source\PSoC4/LED_CONTROL.c ****     /* Set values from customizer to CTRL1 */
  87:.\Generated_Source\PSoC4/LED_CONTROL.c ****     #if (LED_CONTROL__QUAD == LED_CONTROL_CONFIG)
  88:.\Generated_Source\PSoC4/LED_CONTROL.c ****         LED_CONTROL_TRIG_CONTROL1_REG  =
  89:.\Generated_Source\PSoC4/LED_CONTROL.c ****         (((uint32)(LED_CONTROL_QUAD_PHIA_SIGNAL_MODE   << LED_CONTROL_COUNT_SHIFT))       |
  90:.\Generated_Source\PSoC4/LED_CONTROL.c ****          ((uint32)(LED_CONTROL_QUAD_INDEX_SIGNAL_MODE  << LED_CONTROL_RELOAD_SHIFT))      |
  91:.\Generated_Source\PSoC4/LED_CONTROL.c ****          ((uint32)(LED_CONTROL_QUAD_STOP_SIGNAL_MODE   << LED_CONTROL_STOP_SHIFT))        |
  92:.\Generated_Source\PSoC4/LED_CONTROL.c ****          ((uint32)(LED_CONTROL_QUAD_PHIB_SIGNAL_MODE   << LED_CONTROL_START_SHIFT)));
  93:.\Generated_Source\PSoC4/LED_CONTROL.c ****     #endif  /* (LED_CONTROL__QUAD == LED_CONTROL_CONFIG) */
  94:.\Generated_Source\PSoC4/LED_CONTROL.c **** 
  95:.\Generated_Source\PSoC4/LED_CONTROL.c ****     #if (LED_CONTROL__PWM_SEL == LED_CONTROL_CONFIG)
  96:.\Generated_Source\PSoC4/LED_CONTROL.c ****         LED_CONTROL_TRIG_CONTROL1_REG  =
  57              		.loc 1 96 0
  58 001c 094B     		ldr	r3, .L2+4
  59 001e 0C22     		mov	r2, #12
  60 0020 1A60     		str	r2, [r3]
  97:.\Generated_Source\PSoC4/LED_CONTROL.c ****         (((uint32)(LED_CONTROL_PWM_SWITCH_SIGNAL_MODE  << LED_CONTROL_CAPTURE_SHIFT))     |
  98:.\Generated_Source\PSoC4/LED_CONTROL.c ****          ((uint32)(LED_CONTROL_PWM_COUNT_SIGNAL_MODE   << LED_CONTROL_COUNT_SHIFT))       |
  99:.\Generated_Source\PSoC4/LED_CONTROL.c ****          ((uint32)(LED_CONTROL_PWM_RELOAD_SIGNAL_MODE  << LED_CONTROL_RELOAD_SHIFT))      |
 100:.\Generated_Source\PSoC4/LED_CONTROL.c ****          ((uint32)(LED_CONTROL_PWM_STOP_SIGNAL_MODE    << LED_CONTROL_STOP_SHIFT))        |
 101:.\Generated_Source\PSoC4/LED_CONTROL.c ****          ((uint32)(LED_CONTROL_PWM_START_SIGNAL_MODE   << LED_CONTROL_START_SHIFT)));
 102:.\Generated_Source\PSoC4/LED_CONTROL.c ****     #endif  /* (LED_CONTROL__PWM_SEL == LED_CONTROL_CONFIG) */
 103:.\Generated_Source\PSoC4/LED_CONTROL.c **** 
 104:.\Generated_Source\PSoC4/LED_CONTROL.c ****     #if (LED_CONTROL__TIMER == LED_CONTROL_CONFIG)
 105:.\Generated_Source\PSoC4/LED_CONTROL.c ****         LED_CONTROL_TRIG_CONTROL1_REG  =
 106:.\Generated_Source\PSoC4/LED_CONTROL.c ****         (((uint32)(LED_CONTROL_TC_CAPTURE_SIGNAL_MODE  << LED_CONTROL_CAPTURE_SHIFT))     |
 107:.\Generated_Source\PSoC4/LED_CONTROL.c ****          ((uint32)(LED_CONTROL_TC_COUNT_SIGNAL_MODE    << LED_CONTROL_COUNT_SHIFT))       |
 108:.\Generated_Source\PSoC4/LED_CONTROL.c ****          ((uint32)(LED_CONTROL_TC_RELOAD_SIGNAL_MODE   << LED_CONTROL_RELOAD_SHIFT))      |
 109:.\Generated_Source\PSoC4/LED_CONTROL.c ****          ((uint32)(LED_CONTROL_TC_STOP_SIGNAL_MODE     << LED_CONTROL_STOP_SHIFT))        |
 110:.\Generated_Source\PSoC4/LED_CONTROL.c ****          ((uint32)(LED_CONTROL_TC_START_SIGNAL_MODE    << LED_CONTROL_START_SHIFT)));
 111:.\Generated_Source\PSoC4/LED_CONTROL.c ****     #endif  /* (LED_CONTROL__TIMER == LED_CONTROL_CONFIG) */
ARM GAS  C:\Users\TSUBAS~1\AppData\Local\Temp\cczdhWZx.s 			page 4


 112:.\Generated_Source\PSoC4/LED_CONTROL.c **** 
 113:.\Generated_Source\PSoC4/LED_CONTROL.c ****     /* Set values from customizer to INTR */
 114:.\Generated_Source\PSoC4/LED_CONTROL.c ****     #if (LED_CONTROL__QUAD == LED_CONTROL_CONFIG)
 115:.\Generated_Source\PSoC4/LED_CONTROL.c ****         LED_CONTROL_SetInterruptMode(LED_CONTROL_QUAD_INTERRUPT_MASK);
 116:.\Generated_Source\PSoC4/LED_CONTROL.c ****     #endif  /* (LED_CONTROL__QUAD == LED_CONTROL_CONFIG) */
 117:.\Generated_Source\PSoC4/LED_CONTROL.c **** 
 118:.\Generated_Source\PSoC4/LED_CONTROL.c ****     #if (LED_CONTROL__PWM_SEL == LED_CONTROL_CONFIG)
 119:.\Generated_Source\PSoC4/LED_CONTROL.c ****         LED_CONTROL_SetInterruptMode(LED_CONTROL_PWM_INTERRUPT_MASK);
  61              		.loc 1 119 0
  62 0022 0020     		mov	r0, #0
  63 0024 FFF7FEFF 		bl	LED_CONTROL_SetInterruptMode
 120:.\Generated_Source\PSoC4/LED_CONTROL.c ****     #endif  /* (LED_CONTROL__PWM_SEL == LED_CONTROL_CONFIG) */
 121:.\Generated_Source\PSoC4/LED_CONTROL.c **** 
 122:.\Generated_Source\PSoC4/LED_CONTROL.c ****     #if (LED_CONTROL__TIMER == LED_CONTROL_CONFIG)
 123:.\Generated_Source\PSoC4/LED_CONTROL.c ****         LED_CONTROL_SetInterruptMode(LED_CONTROL_TC_INTERRUPT_MASK);
 124:.\Generated_Source\PSoC4/LED_CONTROL.c ****     #endif  /* (LED_CONTROL__TIMER == LED_CONTROL_CONFIG) */
 125:.\Generated_Source\PSoC4/LED_CONTROL.c **** 
 126:.\Generated_Source\PSoC4/LED_CONTROL.c ****     /* Set other values from customizer */
 127:.\Generated_Source\PSoC4/LED_CONTROL.c ****     #if (LED_CONTROL__TIMER == LED_CONTROL_CONFIG)
 128:.\Generated_Source\PSoC4/LED_CONTROL.c ****         LED_CONTROL_WritePeriod(LED_CONTROL_TC_PERIOD_VALUE );
 129:.\Generated_Source\PSoC4/LED_CONTROL.c **** 
 130:.\Generated_Source\PSoC4/LED_CONTROL.c ****         #if (LED_CONTROL__COUNT_DOWN == LED_CONTROL_TC_COUNTER_MODE)
 131:.\Generated_Source\PSoC4/LED_CONTROL.c ****             LED_CONTROL_WriteCounter(LED_CONTROL_TC_PERIOD_VALUE );
 132:.\Generated_Source\PSoC4/LED_CONTROL.c ****         #endif  /* (LED_CONTROL__COUNT_DOWN == LED_CONTROL_TC_COUNTER_MODE) */
 133:.\Generated_Source\PSoC4/LED_CONTROL.c **** 
 134:.\Generated_Source\PSoC4/LED_CONTROL.c ****         #if (LED_CONTROL__COMPARE == LED_CONTROL_TC_COMP_CAP_MODE)
 135:.\Generated_Source\PSoC4/LED_CONTROL.c ****             LED_CONTROL_WriteCompare(LED_CONTROL_TC_COMPARE_VALUE);
 136:.\Generated_Source\PSoC4/LED_CONTROL.c **** 
 137:.\Generated_Source\PSoC4/LED_CONTROL.c ****             #if (1u == LED_CONTROL_TC_COMPARE_SWAP)
 138:.\Generated_Source\PSoC4/LED_CONTROL.c ****                 LED_CONTROL_SetCompareSwap(1u);
 139:.\Generated_Source\PSoC4/LED_CONTROL.c ****                 LED_CONTROL_WriteCompareBuf(LED_CONTROL_TC_COMPARE_BUF_VALUE);
 140:.\Generated_Source\PSoC4/LED_CONTROL.c ****             #endif  /* (1u == LED_CONTROL_TC_COMPARE_SWAP) */
 141:.\Generated_Source\PSoC4/LED_CONTROL.c ****         #endif  /* (LED_CONTROL__COMPARE == LED_CONTROL_TC_COMP_CAP_MODE) */
 142:.\Generated_Source\PSoC4/LED_CONTROL.c ****     #endif  /* (LED_CONTROL__TIMER == LED_CONTROL_CONFIG) */
 143:.\Generated_Source\PSoC4/LED_CONTROL.c **** 
 144:.\Generated_Source\PSoC4/LED_CONTROL.c ****     #if (LED_CONTROL__PWM_SEL == LED_CONTROL_CONFIG)
 145:.\Generated_Source\PSoC4/LED_CONTROL.c ****         LED_CONTROL_WritePeriod(LED_CONTROL_PWM_PERIOD_VALUE );
  64              		.loc 1 145 0
  65 0028 074B     		ldr	r3, .L2+8
  66 002a 181C     		mov	r0, r3
  67 002c FFF7FEFF 		bl	LED_CONTROL_WritePeriod
 146:.\Generated_Source\PSoC4/LED_CONTROL.c ****         LED_CONTROL_WriteCompare(LED_CONTROL_PWM_COMPARE_VALUE);
  68              		.loc 1 146 0
  69 0030 0120     		mov	r0, #1
  70 0032 FFF7FEFF 		bl	LED_CONTROL_WriteCompare
 147:.\Generated_Source\PSoC4/LED_CONTROL.c **** 
 148:.\Generated_Source\PSoC4/LED_CONTROL.c ****         #if (1u == LED_CONTROL_PWM_COMPARE_SWAP)
 149:.\Generated_Source\PSoC4/LED_CONTROL.c ****             LED_CONTROL_SetCompareSwap(1u);
 150:.\Generated_Source\PSoC4/LED_CONTROL.c ****             LED_CONTROL_WriteCompareBuf(LED_CONTROL_PWM_COMPARE_BUF_VALUE);
 151:.\Generated_Source\PSoC4/LED_CONTROL.c ****         #endif  /* (1u == LED_CONTROL_PWM_COMPARE_SWAP) */
 152:.\Generated_Source\PSoC4/LED_CONTROL.c **** 
 153:.\Generated_Source\PSoC4/LED_CONTROL.c ****         #if (1u == LED_CONTROL_PWM_PERIOD_SWAP)
 154:.\Generated_Source\PSoC4/LED_CONTROL.c ****             LED_CONTROL_SetPeriodSwap(1u);
 155:.\Generated_Source\PSoC4/LED_CONTROL.c ****             LED_CONTROL_WritePeriodBuf(LED_CONTROL_PWM_PERIOD_BUF_VALUE);
 156:.\Generated_Source\PSoC4/LED_CONTROL.c ****         #endif  /* (1u == LED_CONTROL_PWM_PERIOD_SWAP) */
 157:.\Generated_Source\PSoC4/LED_CONTROL.c **** 
 158:.\Generated_Source\PSoC4/LED_CONTROL.c ****         /* Set values from customizer to CTRL2 */
ARM GAS  C:\Users\TSUBAS~1\AppData\Local\Temp\cczdhWZx.s 			page 5


 159:.\Generated_Source\PSoC4/LED_CONTROL.c ****         #if (LED_CONTROL__PWM_PR == LED_CONTROL_PWM_MODE)
 160:.\Generated_Source\PSoC4/LED_CONTROL.c ****             LED_CONTROL_TRIG_CONTROL2_REG =
 161:.\Generated_Source\PSoC4/LED_CONTROL.c ****                     (LED_CONTROL_CC_MATCH_NO_CHANGE    |
 162:.\Generated_Source\PSoC4/LED_CONTROL.c ****                     LED_CONTROL_OVERLOW_NO_CHANGE      |
 163:.\Generated_Source\PSoC4/LED_CONTROL.c ****                     LED_CONTROL_UNDERFLOW_NO_CHANGE);
 164:.\Generated_Source\PSoC4/LED_CONTROL.c ****         #else
 165:.\Generated_Source\PSoC4/LED_CONTROL.c ****             #if (LED_CONTROL__LEFT == LED_CONTROL_PWM_ALIGN)
 166:.\Generated_Source\PSoC4/LED_CONTROL.c ****                 LED_CONTROL_TRIG_CONTROL2_REG = LED_CONTROL_PWM_MODE_LEFT;
  71              		.loc 1 166 0
  72 0036 054B     		ldr	r3, .L2+12
  73 0038 3122     		mov	r2, #49
  74 003a 1A60     		str	r2, [r3]
 167:.\Generated_Source\PSoC4/LED_CONTROL.c ****             #endif  /* ( LED_CONTROL_PWM_LEFT == LED_CONTROL_PWM_ALIGN) */
 168:.\Generated_Source\PSoC4/LED_CONTROL.c **** 
 169:.\Generated_Source\PSoC4/LED_CONTROL.c ****             #if (LED_CONTROL__RIGHT == LED_CONTROL_PWM_ALIGN)
 170:.\Generated_Source\PSoC4/LED_CONTROL.c ****                 LED_CONTROL_WriteCounter(LED_CONTROL_PWM_PERIOD_VALUE);
 171:.\Generated_Source\PSoC4/LED_CONTROL.c ****                 LED_CONTROL_TRIG_CONTROL2_REG = LED_CONTROL_PWM_MODE_RIGHT;
 172:.\Generated_Source\PSoC4/LED_CONTROL.c ****             #endif  /* ( LED_CONTROL_PWM_RIGHT == LED_CONTROL_PWM_ALIGN) */
 173:.\Generated_Source\PSoC4/LED_CONTROL.c **** 
 174:.\Generated_Source\PSoC4/LED_CONTROL.c ****             #if (LED_CONTROL__CENTER == LED_CONTROL_PWM_ALIGN)
 175:.\Generated_Source\PSoC4/LED_CONTROL.c ****                 LED_CONTROL_TRIG_CONTROL2_REG = LED_CONTROL_PWM_MODE_CENTER;
 176:.\Generated_Source\PSoC4/LED_CONTROL.c ****             #endif  /* ( LED_CONTROL_PWM_CENTER == LED_CONTROL_PWM_ALIGN) */
 177:.\Generated_Source\PSoC4/LED_CONTROL.c **** 
 178:.\Generated_Source\PSoC4/LED_CONTROL.c ****             #if (LED_CONTROL__ASYMMETRIC == LED_CONTROL_PWM_ALIGN)
 179:.\Generated_Source\PSoC4/LED_CONTROL.c ****                 LED_CONTROL_TRIG_CONTROL2_REG = LED_CONTROL_PWM_MODE_ASYM;
 180:.\Generated_Source\PSoC4/LED_CONTROL.c ****             #endif  /* (LED_CONTROL__ASYMMETRIC == LED_CONTROL_PWM_ALIGN) */
 181:.\Generated_Source\PSoC4/LED_CONTROL.c ****         #endif  /* (LED_CONTROL__PWM_PR == LED_CONTROL_PWM_MODE) */
 182:.\Generated_Source\PSoC4/LED_CONTROL.c ****     #endif  /* (LED_CONTROL__PWM_SEL == LED_CONTROL_CONFIG) */
 183:.\Generated_Source\PSoC4/LED_CONTROL.c **** }
  75              		.loc 1 183 0
  76 003c BD46     		mov	sp, r7
  77              		@ sp needed for prologue
  78 003e 80BD     		pop	{r7, pc}
  79              	.L3:
  80              		.align	2
  81              	.L2:
  82 0040 00010540 		.word	1074069760
  83 0044 24010540 		.word	1074069796
  84 0048 FFFF0000 		.word	65535
  85 004c 28010540 		.word	1074069800
  86              		.cfi_endproc
  87              	.LFE0:
  88              		.size	LED_CONTROL_Init, .-LED_CONTROL_Init
  89              		.section	.text.LED_CONTROL_Enable,"ax",%progbits
  90              		.align	2
  91              		.global	LED_CONTROL_Enable
  92              		.code	16
  93              		.thumb_func
  94              		.type	LED_CONTROL_Enable, %function
  95              	LED_CONTROL_Enable:
  96              	.LFB1:
 184:.\Generated_Source\PSoC4/LED_CONTROL.c **** 
 185:.\Generated_Source\PSoC4/LED_CONTROL.c **** 
 186:.\Generated_Source\PSoC4/LED_CONTROL.c **** /*******************************************************************************
 187:.\Generated_Source\PSoC4/LED_CONTROL.c **** * Function Name: LED_CONTROL_Enable
 188:.\Generated_Source\PSoC4/LED_CONTROL.c **** ********************************************************************************
 189:.\Generated_Source\PSoC4/LED_CONTROL.c **** *
ARM GAS  C:\Users\TSUBAS~1\AppData\Local\Temp\cczdhWZx.s 			page 6


 190:.\Generated_Source\PSoC4/LED_CONTROL.c **** * Summary:
 191:.\Generated_Source\PSoC4/LED_CONTROL.c **** *  Enables the LED_CONTROL.
 192:.\Generated_Source\PSoC4/LED_CONTROL.c **** *
 193:.\Generated_Source\PSoC4/LED_CONTROL.c **** * Parameters:
 194:.\Generated_Source\PSoC4/LED_CONTROL.c **** *  None
 195:.\Generated_Source\PSoC4/LED_CONTROL.c **** *
 196:.\Generated_Source\PSoC4/LED_CONTROL.c **** * Return:
 197:.\Generated_Source\PSoC4/LED_CONTROL.c **** *  None
 198:.\Generated_Source\PSoC4/LED_CONTROL.c **** *
 199:.\Generated_Source\PSoC4/LED_CONTROL.c **** *******************************************************************************/
 200:.\Generated_Source\PSoC4/LED_CONTROL.c **** void LED_CONTROL_Enable(void)
 201:.\Generated_Source\PSoC4/LED_CONTROL.c **** {
  97              		.loc 1 201 0
  98              		.cfi_startproc
  99 0000 90B5     		push	{r4, r7, lr}
 100              	.LCFI2:
 101              		.cfi_def_cfa_offset 12
 102              		.cfi_offset 4, -12
 103              		.cfi_offset 7, -8
 104              		.cfi_offset 14, -4
 105 0002 83B0     		sub	sp, sp, #12
 106              	.LCFI3:
 107              		.cfi_def_cfa_offset 24
 108 0004 00AF     		add	r7, sp, #0
 109              	.LCFI4:
 110              		.cfi_def_cfa_register 7
 202:.\Generated_Source\PSoC4/LED_CONTROL.c ****     uint8 enableInterrupts;
 203:.\Generated_Source\PSoC4/LED_CONTROL.c **** 
 204:.\Generated_Source\PSoC4/LED_CONTROL.c ****     enableInterrupts = CyEnterCriticalSection();
 111              		.loc 1 204 0
 112 0006 FC1D     		add	r4, r7, #7
 113 0008 FFF7FEFF 		bl	CyEnterCriticalSection
 114 000c 031C     		mov	r3, r0
 115 000e 2370     		strb	r3, [r4]
 205:.\Generated_Source\PSoC4/LED_CONTROL.c ****     LED_CONTROL_BLOCK_CONTROL_REG |= LED_CONTROL_MASK;
 116              		.loc 1 205 0
 117 0010 084B     		ldr	r3, .L5
 118 0012 084A     		ldr	r2, .L5
 119 0014 1268     		ldr	r2, [r2]
 120 0016 0121     		mov	r1, #1
 121 0018 0A43     		orr	r2, r1
 122 001a 1A60     		str	r2, [r3]
 206:.\Generated_Source\PSoC4/LED_CONTROL.c ****     CyExitCriticalSection(enableInterrupts);
 123              		.loc 1 206 0
 124 001c FB1D     		add	r3, r7, #7
 125 001e 1B78     		ldrb	r3, [r3]
 126 0020 181C     		mov	r0, r3
 127 0022 FFF7FEFF 		bl	CyExitCriticalSection
 207:.\Generated_Source\PSoC4/LED_CONTROL.c **** 
 208:.\Generated_Source\PSoC4/LED_CONTROL.c ****     /* Start Timer or PWM if start input is absent */
 209:.\Generated_Source\PSoC4/LED_CONTROL.c ****     #if (LED_CONTROL__PWM_SEL == LED_CONTROL_CONFIG)
 210:.\Generated_Source\PSoC4/LED_CONTROL.c ****         #if (0u == LED_CONTROL_PWM_START_SIGNAL_PRESENT)
 211:.\Generated_Source\PSoC4/LED_CONTROL.c ****             LED_CONTROL_TriggerCommand(LED_CONTROL_MASK, LED_CONTROL_CMD_START);
 128              		.loc 1 211 0
 129 0026 0120     		mov	r0, #1
 130 0028 1821     		mov	r1, #24
 131 002a FFF7FEFF 		bl	LED_CONTROL_TriggerCommand
ARM GAS  C:\Users\TSUBAS~1\AppData\Local\Temp\cczdhWZx.s 			page 7


 212:.\Generated_Source\PSoC4/LED_CONTROL.c ****         #endif /* (0u == LED_CONTROL_PWM_START_SIGNAL_PRESENT) */
 213:.\Generated_Source\PSoC4/LED_CONTROL.c ****     #endif /* (LED_CONTROL__PWM_SEL == LED_CONTROL_CONFIG) */
 214:.\Generated_Source\PSoC4/LED_CONTROL.c **** 
 215:.\Generated_Source\PSoC4/LED_CONTROL.c ****     #if (LED_CONTROL__TIMER == LED_CONTROL_CONFIG)
 216:.\Generated_Source\PSoC4/LED_CONTROL.c ****         #if (0u == LED_CONTROL_TC_START_SIGNAL_PRESENT)
 217:.\Generated_Source\PSoC4/LED_CONTROL.c ****             LED_CONTROL_TriggerCommand(LED_CONTROL_MASK, LED_CONTROL_CMD_START);
 218:.\Generated_Source\PSoC4/LED_CONTROL.c ****         #endif /* (0u == LED_CONTROL_TC_START_SIGNAL_PRESENT) */
 219:.\Generated_Source\PSoC4/LED_CONTROL.c ****     #endif /* (LED_CONTROL__TIMER == LED_CONTROL_CONFIG) */
 220:.\Generated_Source\PSoC4/LED_CONTROL.c **** }
 132              		.loc 1 220 0
 133 002e BD46     		mov	sp, r7
 134 0030 03B0     		add	sp, sp, #12
 135              		@ sp needed for prologue
 136 0032 90BD     		pop	{r4, r7, pc}
 137              	.L6:
 138              		.align	2
 139              	.L5:
 140 0034 00000540 		.word	1074069504
 141              		.cfi_endproc
 142              	.LFE1:
 143              		.size	LED_CONTROL_Enable, .-LED_CONTROL_Enable
 144              		.section	.text.LED_CONTROL_Start,"ax",%progbits
 145              		.align	2
 146              		.global	LED_CONTROL_Start
 147              		.code	16
 148              		.thumb_func
 149              		.type	LED_CONTROL_Start, %function
 150              	LED_CONTROL_Start:
 151              	.LFB2:
 221:.\Generated_Source\PSoC4/LED_CONTROL.c **** 
 222:.\Generated_Source\PSoC4/LED_CONTROL.c **** 
 223:.\Generated_Source\PSoC4/LED_CONTROL.c **** /*******************************************************************************
 224:.\Generated_Source\PSoC4/LED_CONTROL.c **** * Function Name: LED_CONTROL_Start
 225:.\Generated_Source\PSoC4/LED_CONTROL.c **** ********************************************************************************
 226:.\Generated_Source\PSoC4/LED_CONTROL.c **** *
 227:.\Generated_Source\PSoC4/LED_CONTROL.c **** * Summary:
 228:.\Generated_Source\PSoC4/LED_CONTROL.c **** *  Initializes the LED_CONTROL with default customizer
 229:.\Generated_Source\PSoC4/LED_CONTROL.c **** *  values when called the first time and enables the LED_CONTROL.
 230:.\Generated_Source\PSoC4/LED_CONTROL.c **** *  For subsequent calls the configuration is left unchanged and the component is
 231:.\Generated_Source\PSoC4/LED_CONTROL.c **** *  just enabled.
 232:.\Generated_Source\PSoC4/LED_CONTROL.c **** *
 233:.\Generated_Source\PSoC4/LED_CONTROL.c **** * Parameters:
 234:.\Generated_Source\PSoC4/LED_CONTROL.c **** *  None
 235:.\Generated_Source\PSoC4/LED_CONTROL.c **** *
 236:.\Generated_Source\PSoC4/LED_CONTROL.c **** * Return:
 237:.\Generated_Source\PSoC4/LED_CONTROL.c **** *  None
 238:.\Generated_Source\PSoC4/LED_CONTROL.c **** *
 239:.\Generated_Source\PSoC4/LED_CONTROL.c **** * Global variables:
 240:.\Generated_Source\PSoC4/LED_CONTROL.c **** *  LED_CONTROL_initVar: global variable is used to indicate initial
 241:.\Generated_Source\PSoC4/LED_CONTROL.c **** *  configuration of this component.  The variable is initialized to zero and set
 242:.\Generated_Source\PSoC4/LED_CONTROL.c **** *  to 1 the first time LED_CONTROL_Start() is called. This allows
 243:.\Generated_Source\PSoC4/LED_CONTROL.c **** *  enabling/disabling a component without re-initialization in all subsequent
 244:.\Generated_Source\PSoC4/LED_CONTROL.c **** *  calls to the LED_CONTROL_Start() routine.
 245:.\Generated_Source\PSoC4/LED_CONTROL.c **** *
 246:.\Generated_Source\PSoC4/LED_CONTROL.c **** *******************************************************************************/
 247:.\Generated_Source\PSoC4/LED_CONTROL.c **** void LED_CONTROL_Start(void)
 248:.\Generated_Source\PSoC4/LED_CONTROL.c **** {
ARM GAS  C:\Users\TSUBAS~1\AppData\Local\Temp\cczdhWZx.s 			page 8


 152              		.loc 1 248 0
 153              		.cfi_startproc
 154 0000 80B5     		push	{r7, lr}
 155              	.LCFI5:
 156              		.cfi_def_cfa_offset 8
 157              		.cfi_offset 7, -8
 158              		.cfi_offset 14, -4
 159 0002 00AF     		add	r7, sp, #0
 160              	.LCFI6:
 161              		.cfi_def_cfa_register 7
 249:.\Generated_Source\PSoC4/LED_CONTROL.c ****     if (0u == LED_CONTROL_initVar)
 162              		.loc 1 249 0
 163 0004 064B     		ldr	r3, .L9
 164 0006 1B78     		ldrb	r3, [r3]
 165 0008 002B     		cmp	r3, #0
 166 000a 04D1     		bne	.L8
 250:.\Generated_Source\PSoC4/LED_CONTROL.c ****     {
 251:.\Generated_Source\PSoC4/LED_CONTROL.c ****         LED_CONTROL_Init();
 167              		.loc 1 251 0
 168 000c FFF7FEFF 		bl	LED_CONTROL_Init
 252:.\Generated_Source\PSoC4/LED_CONTROL.c ****         LED_CONTROL_initVar = 1u;
 169              		.loc 1 252 0
 170 0010 034B     		ldr	r3, .L9
 171 0012 0122     		mov	r2, #1
 172 0014 1A70     		strb	r2, [r3]
 173              	.L8:
 253:.\Generated_Source\PSoC4/LED_CONTROL.c ****     }
 254:.\Generated_Source\PSoC4/LED_CONTROL.c **** 
 255:.\Generated_Source\PSoC4/LED_CONTROL.c ****     LED_CONTROL_Enable();
 174              		.loc 1 255 0
 175 0016 FFF7FEFF 		bl	LED_CONTROL_Enable
 256:.\Generated_Source\PSoC4/LED_CONTROL.c **** }
 176              		.loc 1 256 0
 177 001a BD46     		mov	sp, r7
 178              		@ sp needed for prologue
 179 001c 80BD     		pop	{r7, pc}
 180              	.L10:
 181 001e C046     		.align	2
 182              	.L9:
 183 0020 00000000 		.word	LED_CONTROL_initVar
 184              		.cfi_endproc
 185              	.LFE2:
 186              		.size	LED_CONTROL_Start, .-LED_CONTROL_Start
 187              		.section	.text.LED_CONTROL_Stop,"ax",%progbits
 188              		.align	2
 189              		.global	LED_CONTROL_Stop
 190              		.code	16
 191              		.thumb_func
 192              		.type	LED_CONTROL_Stop, %function
 193              	LED_CONTROL_Stop:
 194              	.LFB3:
 257:.\Generated_Source\PSoC4/LED_CONTROL.c **** 
 258:.\Generated_Source\PSoC4/LED_CONTROL.c **** 
 259:.\Generated_Source\PSoC4/LED_CONTROL.c **** /*******************************************************************************
 260:.\Generated_Source\PSoC4/LED_CONTROL.c **** * Function Name: LED_CONTROL_Stop
 261:.\Generated_Source\PSoC4/LED_CONTROL.c **** ********************************************************************************
 262:.\Generated_Source\PSoC4/LED_CONTROL.c **** *
ARM GAS  C:\Users\TSUBAS~1\AppData\Local\Temp\cczdhWZx.s 			page 9


 263:.\Generated_Source\PSoC4/LED_CONTROL.c **** * Summary:
 264:.\Generated_Source\PSoC4/LED_CONTROL.c **** *  Disables the LED_CONTROL.
 265:.\Generated_Source\PSoC4/LED_CONTROL.c **** *
 266:.\Generated_Source\PSoC4/LED_CONTROL.c **** * Parameters:
 267:.\Generated_Source\PSoC4/LED_CONTROL.c **** *  None
 268:.\Generated_Source\PSoC4/LED_CONTROL.c **** *
 269:.\Generated_Source\PSoC4/LED_CONTROL.c **** * Return:
 270:.\Generated_Source\PSoC4/LED_CONTROL.c **** *  None
 271:.\Generated_Source\PSoC4/LED_CONTROL.c **** *
 272:.\Generated_Source\PSoC4/LED_CONTROL.c **** *******************************************************************************/
 273:.\Generated_Source\PSoC4/LED_CONTROL.c **** void LED_CONTROL_Stop(void)
 274:.\Generated_Source\PSoC4/LED_CONTROL.c **** {
 195              		.loc 1 274 0
 196              		.cfi_startproc
 197 0000 90B5     		push	{r4, r7, lr}
 198              	.LCFI7:
 199              		.cfi_def_cfa_offset 12
 200              		.cfi_offset 4, -12
 201              		.cfi_offset 7, -8
 202              		.cfi_offset 14, -4
 203 0002 83B0     		sub	sp, sp, #12
 204              	.LCFI8:
 205              		.cfi_def_cfa_offset 24
 206 0004 00AF     		add	r7, sp, #0
 207              	.LCFI9:
 208              		.cfi_def_cfa_register 7
 275:.\Generated_Source\PSoC4/LED_CONTROL.c ****     uint8 enableInterrupts;
 276:.\Generated_Source\PSoC4/LED_CONTROL.c **** 
 277:.\Generated_Source\PSoC4/LED_CONTROL.c ****     enableInterrupts = CyEnterCriticalSection();
 209              		.loc 1 277 0
 210 0006 FC1D     		add	r4, r7, #7
 211 0008 FFF7FEFF 		bl	CyEnterCriticalSection
 212 000c 031C     		mov	r3, r0
 213 000e 2370     		strb	r3, [r4]
 278:.\Generated_Source\PSoC4/LED_CONTROL.c **** 
 279:.\Generated_Source\PSoC4/LED_CONTROL.c ****     LED_CONTROL_BLOCK_CONTROL_REG &= (uint32)~LED_CONTROL_MASK;
 214              		.loc 1 279 0
 215 0010 064B     		ldr	r3, .L12
 216 0012 064A     		ldr	r2, .L12
 217 0014 1268     		ldr	r2, [r2]
 218 0016 0121     		mov	r1, #1
 219 0018 8A43     		bic	r2, r1
 220 001a 1A60     		str	r2, [r3]
 280:.\Generated_Source\PSoC4/LED_CONTROL.c **** 
 281:.\Generated_Source\PSoC4/LED_CONTROL.c ****     CyExitCriticalSection(enableInterrupts);
 221              		.loc 1 281 0
 222 001c FB1D     		add	r3, r7, #7
 223 001e 1B78     		ldrb	r3, [r3]
 224 0020 181C     		mov	r0, r3
 225 0022 FFF7FEFF 		bl	CyExitCriticalSection
 282:.\Generated_Source\PSoC4/LED_CONTROL.c **** }
 226              		.loc 1 282 0
 227 0026 BD46     		mov	sp, r7
 228 0028 03B0     		add	sp, sp, #12
 229              		@ sp needed for prologue
 230 002a 90BD     		pop	{r4, r7, pc}
 231              	.L13:
ARM GAS  C:\Users\TSUBAS~1\AppData\Local\Temp\cczdhWZx.s 			page 10


 232              		.align	2
 233              	.L12:
 234 002c 00000540 		.word	1074069504
 235              		.cfi_endproc
 236              	.LFE3:
 237              		.size	LED_CONTROL_Stop, .-LED_CONTROL_Stop
 238              		.section	.text.LED_CONTROL_SetMode,"ax",%progbits
 239              		.align	2
 240              		.global	LED_CONTROL_SetMode
 241              		.code	16
 242              		.thumb_func
 243              		.type	LED_CONTROL_SetMode, %function
 244              	LED_CONTROL_SetMode:
 245              	.LFB4:
 283:.\Generated_Source\PSoC4/LED_CONTROL.c **** 
 284:.\Generated_Source\PSoC4/LED_CONTROL.c **** 
 285:.\Generated_Source\PSoC4/LED_CONTROL.c **** /*******************************************************************************
 286:.\Generated_Source\PSoC4/LED_CONTROL.c **** * Function Name: LED_CONTROL_SetMode
 287:.\Generated_Source\PSoC4/LED_CONTROL.c **** ********************************************************************************
 288:.\Generated_Source\PSoC4/LED_CONTROL.c **** *
 289:.\Generated_Source\PSoC4/LED_CONTROL.c **** * Summary:
 290:.\Generated_Source\PSoC4/LED_CONTROL.c **** *  Sets the operation mode of the LED_CONTROL. This function is used when
 291:.\Generated_Source\PSoC4/LED_CONTROL.c **** *  configured as a generic LED_CONTROL and the actual mode of operation is
 292:.\Generated_Source\PSoC4/LED_CONTROL.c **** *  set at runtime. The mode must be set while the component is disabled.
 293:.\Generated_Source\PSoC4/LED_CONTROL.c **** *
 294:.\Generated_Source\PSoC4/LED_CONTROL.c **** * Parameters:
 295:.\Generated_Source\PSoC4/LED_CONTROL.c **** *  mode: Mode for the LED_CONTROL to operate in
 296:.\Generated_Source\PSoC4/LED_CONTROL.c **** *   Values:
 297:.\Generated_Source\PSoC4/LED_CONTROL.c **** *   - LED_CONTROL_MODE_TIMER_COMPARE - Timer / Counter with
 298:.\Generated_Source\PSoC4/LED_CONTROL.c **** *                                                 compare capability
 299:.\Generated_Source\PSoC4/LED_CONTROL.c **** *         - LED_CONTROL_MODE_TIMER_CAPTURE - Timer / Counter with
 300:.\Generated_Source\PSoC4/LED_CONTROL.c **** *                                                 capture capability
 301:.\Generated_Source\PSoC4/LED_CONTROL.c **** *         - LED_CONTROL_MODE_QUAD - Quadrature decoder
 302:.\Generated_Source\PSoC4/LED_CONTROL.c **** *         - LED_CONTROL_MODE_PWM - PWM
 303:.\Generated_Source\PSoC4/LED_CONTROL.c **** *         - LED_CONTROL_MODE_PWM_DT - PWM with dead time
 304:.\Generated_Source\PSoC4/LED_CONTROL.c **** *         - LED_CONTROL_MODE_PWM_PR - PWM with pseudo random capability
 305:.\Generated_Source\PSoC4/LED_CONTROL.c **** *
 306:.\Generated_Source\PSoC4/LED_CONTROL.c **** * Return:
 307:.\Generated_Source\PSoC4/LED_CONTROL.c **** *  None
 308:.\Generated_Source\PSoC4/LED_CONTROL.c **** *
 309:.\Generated_Source\PSoC4/LED_CONTROL.c **** *******************************************************************************/
 310:.\Generated_Source\PSoC4/LED_CONTROL.c **** void LED_CONTROL_SetMode(uint32 mode)
 311:.\Generated_Source\PSoC4/LED_CONTROL.c **** {
 246              		.loc 1 311 0
 247              		.cfi_startproc
 248 0000 90B5     		push	{r4, r7, lr}
 249              	.LCFI10:
 250              		.cfi_def_cfa_offset 12
 251              		.cfi_offset 4, -12
 252              		.cfi_offset 7, -8
 253              		.cfi_offset 14, -4
 254 0002 85B0     		sub	sp, sp, #20
 255              	.LCFI11:
 256              		.cfi_def_cfa_offset 32
 257 0004 00AF     		add	r7, sp, #0
 258              	.LCFI12:
 259              		.cfi_def_cfa_register 7
ARM GAS  C:\Users\TSUBAS~1\AppData\Local\Temp\cczdhWZx.s 			page 11


 260 0006 7860     		str	r0, [r7, #4]
 312:.\Generated_Source\PSoC4/LED_CONTROL.c ****     uint8 enableInterrupts;
 313:.\Generated_Source\PSoC4/LED_CONTROL.c **** 
 314:.\Generated_Source\PSoC4/LED_CONTROL.c ****     enableInterrupts = CyEnterCriticalSection();
 261              		.loc 1 314 0
 262 0008 3C1C     		mov	r4, r7
 263 000a 0F34     		add	r4, r4, #15
 264 000c FFF7FEFF 		bl	CyEnterCriticalSection
 265 0010 031C     		mov	r3, r0
 266 0012 2370     		strb	r3, [r4]
 315:.\Generated_Source\PSoC4/LED_CONTROL.c **** 
 316:.\Generated_Source\PSoC4/LED_CONTROL.c ****     LED_CONTROL_CONTROL_REG &= (uint32)~LED_CONTROL_MODE_MASK;
 267              		.loc 1 316 0
 268 0014 0A4B     		ldr	r3, .L15
 269 0016 0A4A     		ldr	r2, .L15
 270 0018 1168     		ldr	r1, [r2]
 271 001a 0A4A     		ldr	r2, .L15+4
 272 001c 0A40     		and	r2, r1
 273 001e 1A60     		str	r2, [r3]
 317:.\Generated_Source\PSoC4/LED_CONTROL.c ****     LED_CONTROL_CONTROL_REG |= mode;
 274              		.loc 1 317 0
 275 0020 074B     		ldr	r3, .L15
 276 0022 074A     		ldr	r2, .L15
 277 0024 1168     		ldr	r1, [r2]
 278 0026 7A68     		ldr	r2, [r7, #4]
 279 0028 0A43     		orr	r2, r1
 280 002a 1A60     		str	r2, [r3]
 318:.\Generated_Source\PSoC4/LED_CONTROL.c **** 
 319:.\Generated_Source\PSoC4/LED_CONTROL.c ****     CyExitCriticalSection(enableInterrupts);
 281              		.loc 1 319 0
 282 002c 3B1C     		mov	r3, r7
 283 002e 0F33     		add	r3, r3, #15
 284 0030 1B78     		ldrb	r3, [r3]
 285 0032 181C     		mov	r0, r3
 286 0034 FFF7FEFF 		bl	CyExitCriticalSection
 320:.\Generated_Source\PSoC4/LED_CONTROL.c **** }
 287              		.loc 1 320 0
 288 0038 BD46     		mov	sp, r7
 289 003a 05B0     		add	sp, sp, #20
 290              		@ sp needed for prologue
 291 003c 90BD     		pop	{r4, r7, pc}
 292              	.L16:
 293 003e C046     		.align	2
 294              	.L15:
 295 0040 00010540 		.word	1074069760
 296 0044 FFFFFFF8 		.word	-117440513
 297              		.cfi_endproc
 298              	.LFE4:
 299              		.size	LED_CONTROL_SetMode, .-LED_CONTROL_SetMode
 300              		.section	.text.LED_CONTROL_SetQDMode,"ax",%progbits
 301              		.align	2
 302              		.global	LED_CONTROL_SetQDMode
 303              		.code	16
 304              		.thumb_func
 305              		.type	LED_CONTROL_SetQDMode, %function
 306              	LED_CONTROL_SetQDMode:
 307              	.LFB5:
ARM GAS  C:\Users\TSUBAS~1\AppData\Local\Temp\cczdhWZx.s 			page 12


 321:.\Generated_Source\PSoC4/LED_CONTROL.c **** 
 322:.\Generated_Source\PSoC4/LED_CONTROL.c **** 
 323:.\Generated_Source\PSoC4/LED_CONTROL.c **** /*******************************************************************************
 324:.\Generated_Source\PSoC4/LED_CONTROL.c **** * Function Name: LED_CONTROL_SetQDMode
 325:.\Generated_Source\PSoC4/LED_CONTROL.c **** ********************************************************************************
 326:.\Generated_Source\PSoC4/LED_CONTROL.c **** *
 327:.\Generated_Source\PSoC4/LED_CONTROL.c **** * Summary:
 328:.\Generated_Source\PSoC4/LED_CONTROL.c **** *  Sets the the Quadrature Decoder to one of the 3 supported modes.
 329:.\Generated_Source\PSoC4/LED_CONTROL.c **** *  Its functionality is only applicable to Quadrature Decoder operation.
 330:.\Generated_Source\PSoC4/LED_CONTROL.c **** *
 331:.\Generated_Source\PSoC4/LED_CONTROL.c **** * Parameters:
 332:.\Generated_Source\PSoC4/LED_CONTROL.c **** *  qdMode: Quadrature Decoder mode
 333:.\Generated_Source\PSoC4/LED_CONTROL.c **** *   Values:
 334:.\Generated_Source\PSoC4/LED_CONTROL.c **** *         - LED_CONTROL_MODE_X1 - Counts on phi 1 rising
 335:.\Generated_Source\PSoC4/LED_CONTROL.c **** *         - LED_CONTROL_MODE_X2 - Counts on both edges of phi1 (2x faster)
 336:.\Generated_Source\PSoC4/LED_CONTROL.c **** *         - LED_CONTROL_MODE_X4 - Counts on both edges of phi1 and phi2
 337:.\Generated_Source\PSoC4/LED_CONTROL.c **** *                                        (4x faster)
 338:.\Generated_Source\PSoC4/LED_CONTROL.c **** *
 339:.\Generated_Source\PSoC4/LED_CONTROL.c **** * Return:
 340:.\Generated_Source\PSoC4/LED_CONTROL.c **** *  None
 341:.\Generated_Source\PSoC4/LED_CONTROL.c **** *
 342:.\Generated_Source\PSoC4/LED_CONTROL.c **** *******************************************************************************/
 343:.\Generated_Source\PSoC4/LED_CONTROL.c **** void LED_CONTROL_SetQDMode(uint32 qdMode)
 344:.\Generated_Source\PSoC4/LED_CONTROL.c **** {
 308              		.loc 1 344 0
 309              		.cfi_startproc
 310 0000 90B5     		push	{r4, r7, lr}
 311              	.LCFI13:
 312              		.cfi_def_cfa_offset 12
 313              		.cfi_offset 4, -12
 314              		.cfi_offset 7, -8
 315              		.cfi_offset 14, -4
 316 0002 85B0     		sub	sp, sp, #20
 317              	.LCFI14:
 318              		.cfi_def_cfa_offset 32
 319 0004 00AF     		add	r7, sp, #0
 320              	.LCFI15:
 321              		.cfi_def_cfa_register 7
 322 0006 7860     		str	r0, [r7, #4]
 345:.\Generated_Source\PSoC4/LED_CONTROL.c ****     uint8 enableInterrupts;
 346:.\Generated_Source\PSoC4/LED_CONTROL.c **** 
 347:.\Generated_Source\PSoC4/LED_CONTROL.c ****     enableInterrupts = CyEnterCriticalSection();
 323              		.loc 1 347 0
 324 0008 3C1C     		mov	r4, r7
 325 000a 0F34     		add	r4, r4, #15
 326 000c FFF7FEFF 		bl	CyEnterCriticalSection
 327 0010 031C     		mov	r3, r0
 328 0012 2370     		strb	r3, [r4]
 348:.\Generated_Source\PSoC4/LED_CONTROL.c **** 
 349:.\Generated_Source\PSoC4/LED_CONTROL.c ****     LED_CONTROL_CONTROL_REG &= (uint32)~LED_CONTROL_QUAD_MODE_MASK;
 329              		.loc 1 349 0
 330 0014 0A4B     		ldr	r3, .L18
 331 0016 0A4A     		ldr	r2, .L18
 332 0018 1168     		ldr	r1, [r2]
 333 001a 0A4A     		ldr	r2, .L18+4
 334 001c 0A40     		and	r2, r1
 335 001e 1A60     		str	r2, [r3]
ARM GAS  C:\Users\TSUBAS~1\AppData\Local\Temp\cczdhWZx.s 			page 13


 350:.\Generated_Source\PSoC4/LED_CONTROL.c ****     LED_CONTROL_CONTROL_REG |= qdMode;
 336              		.loc 1 350 0
 337 0020 074B     		ldr	r3, .L18
 338 0022 074A     		ldr	r2, .L18
 339 0024 1168     		ldr	r1, [r2]
 340 0026 7A68     		ldr	r2, [r7, #4]
 341 0028 0A43     		orr	r2, r1
 342 002a 1A60     		str	r2, [r3]
 351:.\Generated_Source\PSoC4/LED_CONTROL.c **** 
 352:.\Generated_Source\PSoC4/LED_CONTROL.c ****     CyExitCriticalSection(enableInterrupts);
 343              		.loc 1 352 0
 344 002c 3B1C     		mov	r3, r7
 345 002e 0F33     		add	r3, r3, #15
 346 0030 1B78     		ldrb	r3, [r3]
 347 0032 181C     		mov	r0, r3
 348 0034 FFF7FEFF 		bl	CyExitCriticalSection
 353:.\Generated_Source\PSoC4/LED_CONTROL.c **** }
 349              		.loc 1 353 0
 350 0038 BD46     		mov	sp, r7
 351 003a 05B0     		add	sp, sp, #20
 352              		@ sp needed for prologue
 353 003c 90BD     		pop	{r4, r7, pc}
 354              	.L19:
 355 003e C046     		.align	2
 356              	.L18:
 357 0040 00010540 		.word	1074069760
 358 0044 FFFF8FFF 		.word	-7340033
 359              		.cfi_endproc
 360              	.LFE5:
 361              		.size	LED_CONTROL_SetQDMode, .-LED_CONTROL_SetQDMode
 362              		.section	.text.LED_CONTROL_SetPrescaler,"ax",%progbits
 363              		.align	2
 364              		.global	LED_CONTROL_SetPrescaler
 365              		.code	16
 366              		.thumb_func
 367              		.type	LED_CONTROL_SetPrescaler, %function
 368              	LED_CONTROL_SetPrescaler:
 369              	.LFB6:
 354:.\Generated_Source\PSoC4/LED_CONTROL.c **** 
 355:.\Generated_Source\PSoC4/LED_CONTROL.c **** 
 356:.\Generated_Source\PSoC4/LED_CONTROL.c **** /*******************************************************************************
 357:.\Generated_Source\PSoC4/LED_CONTROL.c **** * Function Name: LED_CONTROL_SetPrescaler
 358:.\Generated_Source\PSoC4/LED_CONTROL.c **** ********************************************************************************
 359:.\Generated_Source\PSoC4/LED_CONTROL.c **** *
 360:.\Generated_Source\PSoC4/LED_CONTROL.c **** * Summary:
 361:.\Generated_Source\PSoC4/LED_CONTROL.c **** *  Sets the prescaler value that is applied to the clock input.  Not applicable
 362:.\Generated_Source\PSoC4/LED_CONTROL.c **** *  to a PWM with the dead time mode or Quadrature Decoder mode.
 363:.\Generated_Source\PSoC4/LED_CONTROL.c **** *
 364:.\Generated_Source\PSoC4/LED_CONTROL.c **** * Parameters:
 365:.\Generated_Source\PSoC4/LED_CONTROL.c **** *  prescaler: Prescaler divider value
 366:.\Generated_Source\PSoC4/LED_CONTROL.c **** *   Values:
 367:.\Generated_Source\PSoC4/LED_CONTROL.c **** *         - LED_CONTROL_PRESCALE_DIVBY1    - Divide by 1 (no prescaling)
 368:.\Generated_Source\PSoC4/LED_CONTROL.c **** *         - LED_CONTROL_PRESCALE_DIVBY2    - Divide by 2
 369:.\Generated_Source\PSoC4/LED_CONTROL.c **** *         - LED_CONTROL_PRESCALE_DIVBY4    - Divide by 4
 370:.\Generated_Source\PSoC4/LED_CONTROL.c **** *         - LED_CONTROL_PRESCALE_DIVBY8    - Divide by 8
 371:.\Generated_Source\PSoC4/LED_CONTROL.c **** *         - LED_CONTROL_PRESCALE_DIVBY16   - Divide by 16
 372:.\Generated_Source\PSoC4/LED_CONTROL.c **** *         - LED_CONTROL_PRESCALE_DIVBY32   - Divide by 32
ARM GAS  C:\Users\TSUBAS~1\AppData\Local\Temp\cczdhWZx.s 			page 14


 373:.\Generated_Source\PSoC4/LED_CONTROL.c **** *         - LED_CONTROL_PRESCALE_DIVBY64   - Divide by 64
 374:.\Generated_Source\PSoC4/LED_CONTROL.c **** *         - LED_CONTROL_PRESCALE_DIVBY128  - Divide by 128
 375:.\Generated_Source\PSoC4/LED_CONTROL.c **** *
 376:.\Generated_Source\PSoC4/LED_CONTROL.c **** * Return:
 377:.\Generated_Source\PSoC4/LED_CONTROL.c **** *  None
 378:.\Generated_Source\PSoC4/LED_CONTROL.c **** *
 379:.\Generated_Source\PSoC4/LED_CONTROL.c **** *******************************************************************************/
 380:.\Generated_Source\PSoC4/LED_CONTROL.c **** void LED_CONTROL_SetPrescaler(uint32 prescaler)
 381:.\Generated_Source\PSoC4/LED_CONTROL.c **** {
 370              		.loc 1 381 0
 371              		.cfi_startproc
 372 0000 90B5     		push	{r4, r7, lr}
 373              	.LCFI16:
 374              		.cfi_def_cfa_offset 12
 375              		.cfi_offset 4, -12
 376              		.cfi_offset 7, -8
 377              		.cfi_offset 14, -4
 378 0002 85B0     		sub	sp, sp, #20
 379              	.LCFI17:
 380              		.cfi_def_cfa_offset 32
 381 0004 00AF     		add	r7, sp, #0
 382              	.LCFI18:
 383              		.cfi_def_cfa_register 7
 384 0006 7860     		str	r0, [r7, #4]
 382:.\Generated_Source\PSoC4/LED_CONTROL.c ****     uint8 enableInterrupts;
 383:.\Generated_Source\PSoC4/LED_CONTROL.c **** 
 384:.\Generated_Source\PSoC4/LED_CONTROL.c ****     enableInterrupts = CyEnterCriticalSection();
 385              		.loc 1 384 0
 386 0008 3C1C     		mov	r4, r7
 387 000a 0F34     		add	r4, r4, #15
 388 000c FFF7FEFF 		bl	CyEnterCriticalSection
 389 0010 031C     		mov	r3, r0
 390 0012 2370     		strb	r3, [r4]
 385:.\Generated_Source\PSoC4/LED_CONTROL.c **** 
 386:.\Generated_Source\PSoC4/LED_CONTROL.c ****     LED_CONTROL_CONTROL_REG &= (uint32)~LED_CONTROL_PRESCALER_MASK;
 391              		.loc 1 386 0
 392 0014 0A4B     		ldr	r3, .L21
 393 0016 0A4A     		ldr	r2, .L21
 394 0018 1168     		ldr	r1, [r2]
 395 001a 0A4A     		ldr	r2, .L21+4
 396 001c 0A40     		and	r2, r1
 397 001e 1A60     		str	r2, [r3]
 387:.\Generated_Source\PSoC4/LED_CONTROL.c ****     LED_CONTROL_CONTROL_REG |= prescaler;
 398              		.loc 1 387 0
 399 0020 074B     		ldr	r3, .L21
 400 0022 074A     		ldr	r2, .L21
 401 0024 1168     		ldr	r1, [r2]
 402 0026 7A68     		ldr	r2, [r7, #4]
 403 0028 0A43     		orr	r2, r1
 404 002a 1A60     		str	r2, [r3]
 388:.\Generated_Source\PSoC4/LED_CONTROL.c **** 
 389:.\Generated_Source\PSoC4/LED_CONTROL.c ****     CyExitCriticalSection(enableInterrupts);
 405              		.loc 1 389 0
 406 002c 3B1C     		mov	r3, r7
 407 002e 0F33     		add	r3, r3, #15
 408 0030 1B78     		ldrb	r3, [r3]
 409 0032 181C     		mov	r0, r3
ARM GAS  C:\Users\TSUBAS~1\AppData\Local\Temp\cczdhWZx.s 			page 15


 410 0034 FFF7FEFF 		bl	CyExitCriticalSection
 390:.\Generated_Source\PSoC4/LED_CONTROL.c **** }
 411              		.loc 1 390 0
 412 0038 BD46     		mov	sp, r7
 413 003a 05B0     		add	sp, sp, #20
 414              		@ sp needed for prologue
 415 003c 90BD     		pop	{r4, r7, pc}
 416              	.L22:
 417 003e C046     		.align	2
 418              	.L21:
 419 0040 00010540 		.word	1074069760
 420 0044 FF00FFFF 		.word	-65281
 421              		.cfi_endproc
 422              	.LFE6:
 423              		.size	LED_CONTROL_SetPrescaler, .-LED_CONTROL_SetPrescaler
 424              		.section	.text.LED_CONTROL_SetOneShot,"ax",%progbits
 425              		.align	2
 426              		.global	LED_CONTROL_SetOneShot
 427              		.code	16
 428              		.thumb_func
 429              		.type	LED_CONTROL_SetOneShot, %function
 430              	LED_CONTROL_SetOneShot:
 431              	.LFB7:
 391:.\Generated_Source\PSoC4/LED_CONTROL.c **** 
 392:.\Generated_Source\PSoC4/LED_CONTROL.c **** 
 393:.\Generated_Source\PSoC4/LED_CONTROL.c **** /*******************************************************************************
 394:.\Generated_Source\PSoC4/LED_CONTROL.c **** * Function Name: LED_CONTROL_SetOneShot
 395:.\Generated_Source\PSoC4/LED_CONTROL.c **** ********************************************************************************
 396:.\Generated_Source\PSoC4/LED_CONTROL.c **** *
 397:.\Generated_Source\PSoC4/LED_CONTROL.c **** * Summary:
 398:.\Generated_Source\PSoC4/LED_CONTROL.c **** *  Writes the register that controls whether the LED_CONTROL runs
 399:.\Generated_Source\PSoC4/LED_CONTROL.c **** *  continuously or stops when terminal count is reached.  By default the
 400:.\Generated_Source\PSoC4/LED_CONTROL.c **** *  LED_CONTROL operates in the continuous mode.
 401:.\Generated_Source\PSoC4/LED_CONTROL.c **** *
 402:.\Generated_Source\PSoC4/LED_CONTROL.c **** * Parameters:
 403:.\Generated_Source\PSoC4/LED_CONTROL.c **** *  oneShotEnable
 404:.\Generated_Source\PSoC4/LED_CONTROL.c **** *   Values:
 405:.\Generated_Source\PSoC4/LED_CONTROL.c **** *     - 0 - Continuous
 406:.\Generated_Source\PSoC4/LED_CONTROL.c **** *     - 1 - Enable One Shot
 407:.\Generated_Source\PSoC4/LED_CONTROL.c **** *
 408:.\Generated_Source\PSoC4/LED_CONTROL.c **** * Return:
 409:.\Generated_Source\PSoC4/LED_CONTROL.c **** *  None
 410:.\Generated_Source\PSoC4/LED_CONTROL.c **** *
 411:.\Generated_Source\PSoC4/LED_CONTROL.c **** *******************************************************************************/
 412:.\Generated_Source\PSoC4/LED_CONTROL.c **** void LED_CONTROL_SetOneShot(uint32 oneShotEnable)
 413:.\Generated_Source\PSoC4/LED_CONTROL.c **** {
 432              		.loc 1 413 0
 433              		.cfi_startproc
 434 0000 90B5     		push	{r4, r7, lr}
 435              	.LCFI19:
 436              		.cfi_def_cfa_offset 12
 437              		.cfi_offset 4, -12
 438              		.cfi_offset 7, -8
 439              		.cfi_offset 14, -4
 440 0002 85B0     		sub	sp, sp, #20
 441              	.LCFI20:
 442              		.cfi_def_cfa_offset 32
ARM GAS  C:\Users\TSUBAS~1\AppData\Local\Temp\cczdhWZx.s 			page 16


 443 0004 00AF     		add	r7, sp, #0
 444              	.LCFI21:
 445              		.cfi_def_cfa_register 7
 446 0006 7860     		str	r0, [r7, #4]
 414:.\Generated_Source\PSoC4/LED_CONTROL.c ****     uint8 enableInterrupts;
 415:.\Generated_Source\PSoC4/LED_CONTROL.c **** 
 416:.\Generated_Source\PSoC4/LED_CONTROL.c ****     enableInterrupts = CyEnterCriticalSection();
 447              		.loc 1 416 0
 448 0008 3C1C     		mov	r4, r7
 449 000a 0F34     		add	r4, r4, #15
 450 000c FFF7FEFF 		bl	CyEnterCriticalSection
 451 0010 031C     		mov	r3, r0
 452 0012 2370     		strb	r3, [r4]
 417:.\Generated_Source\PSoC4/LED_CONTROL.c **** 
 418:.\Generated_Source\PSoC4/LED_CONTROL.c ****     LED_CONTROL_CONTROL_REG &= (uint32)~LED_CONTROL_ONESHOT_MASK;
 453              		.loc 1 418 0
 454 0014 0B4B     		ldr	r3, .L24
 455 0016 0B4A     		ldr	r2, .L24
 456 0018 1168     		ldr	r1, [r2]
 457 001a 0B4A     		ldr	r2, .L24+4
 458 001c 0A40     		and	r2, r1
 459 001e 1A60     		str	r2, [r3]
 419:.\Generated_Source\PSoC4/LED_CONTROL.c ****     LED_CONTROL_CONTROL_REG |= ((uint32)((oneShotEnable & LED_CONTROL_1BIT_MASK) <<
 460              		.loc 1 419 0
 461 0020 084B     		ldr	r3, .L24
 462 0022 084A     		ldr	r2, .L24
 463 0024 1168     		ldr	r1, [r2]
 464 0026 7868     		ldr	r0, [r7, #4]
 465 0028 0122     		mov	r2, #1
 466 002a 0240     		and	r2, r0
 467 002c 9204     		lsl	r2, r2, #18
 468 002e 0A43     		orr	r2, r1
 469 0030 1A60     		str	r2, [r3]
 420:.\Generated_Source\PSoC4/LED_CONTROL.c ****                                                                LED_CONTROL_ONESHOT_SHIFT));
 421:.\Generated_Source\PSoC4/LED_CONTROL.c **** 
 422:.\Generated_Source\PSoC4/LED_CONTROL.c ****     CyExitCriticalSection(enableInterrupts);
 470              		.loc 1 422 0
 471 0032 3B1C     		mov	r3, r7
 472 0034 0F33     		add	r3, r3, #15
 473 0036 1B78     		ldrb	r3, [r3]
 474 0038 181C     		mov	r0, r3
 475 003a FFF7FEFF 		bl	CyExitCriticalSection
 423:.\Generated_Source\PSoC4/LED_CONTROL.c **** }
 476              		.loc 1 423 0
 477 003e BD46     		mov	sp, r7
 478 0040 05B0     		add	sp, sp, #20
 479              		@ sp needed for prologue
 480 0042 90BD     		pop	{r4, r7, pc}
 481              	.L25:
 482              		.align	2
 483              	.L24:
 484 0044 00010540 		.word	1074069760
 485 0048 FFFFFBFF 		.word	-262145
 486              		.cfi_endproc
 487              	.LFE7:
 488              		.size	LED_CONTROL_SetOneShot, .-LED_CONTROL_SetOneShot
 489              		.section	.text.LED_CONTROL_SetPWMMode,"ax",%progbits
ARM GAS  C:\Users\TSUBAS~1\AppData\Local\Temp\cczdhWZx.s 			page 17


 490              		.align	2
 491              		.global	LED_CONTROL_SetPWMMode
 492              		.code	16
 493              		.thumb_func
 494              		.type	LED_CONTROL_SetPWMMode, %function
 495              	LED_CONTROL_SetPWMMode:
 496              	.LFB8:
 424:.\Generated_Source\PSoC4/LED_CONTROL.c **** 
 425:.\Generated_Source\PSoC4/LED_CONTROL.c **** 
 426:.\Generated_Source\PSoC4/LED_CONTROL.c **** /*******************************************************************************
 427:.\Generated_Source\PSoC4/LED_CONTROL.c **** * Function Name: LED_CONTROL_SetPWMMode
 428:.\Generated_Source\PSoC4/LED_CONTROL.c **** ********************************************************************************
 429:.\Generated_Source\PSoC4/LED_CONTROL.c **** *
 430:.\Generated_Source\PSoC4/LED_CONTROL.c **** * Summary:
 431:.\Generated_Source\PSoC4/LED_CONTROL.c **** *  Writes the control register that determines what mode of operation the PWM
 432:.\Generated_Source\PSoC4/LED_CONTROL.c **** *  output lines are driven in.  There is a setting for what to do on a
 433:.\Generated_Source\PSoC4/LED_CONTROL.c **** *  comparison match (CC_MATCH), on an overflow (OVERFLOW) and on an underflow
 434:.\Generated_Source\PSoC4/LED_CONTROL.c **** *  (UNDERFLOW).  The value for each of the three must be ORed together to form
 435:.\Generated_Source\PSoC4/LED_CONTROL.c **** *  the mode.
 436:.\Generated_Source\PSoC4/LED_CONTROL.c **** *
 437:.\Generated_Source\PSoC4/LED_CONTROL.c **** * Parameters:
 438:.\Generated_Source\PSoC4/LED_CONTROL.c **** *  modeMask: A combination of three mode settings.  Mask must include a value
 439:.\Generated_Source\PSoC4/LED_CONTROL.c **** *  for each of the three or use one of the preconfigured PWM settings.
 440:.\Generated_Source\PSoC4/LED_CONTROL.c **** *   Values:
 441:.\Generated_Source\PSoC4/LED_CONTROL.c **** *     - CC_MATCH_SET        - Set on comparison match
 442:.\Generated_Source\PSoC4/LED_CONTROL.c **** *     - CC_MATCH_CLEAR      - Clear on comparison match
 443:.\Generated_Source\PSoC4/LED_CONTROL.c **** *     - CC_MATCH_INVERT     - Invert on comparison match
 444:.\Generated_Source\PSoC4/LED_CONTROL.c **** *     - CC_MATCH_NO_CHANGE  - No change on comparison match
 445:.\Generated_Source\PSoC4/LED_CONTROL.c **** *     - OVERLOW_SET         - Set on overflow
 446:.\Generated_Source\PSoC4/LED_CONTROL.c **** *     - OVERLOW_CLEAR       - Clear on  overflow
 447:.\Generated_Source\PSoC4/LED_CONTROL.c **** *     - OVERLOW_INVERT      - Invert on overflow
 448:.\Generated_Source\PSoC4/LED_CONTROL.c **** *     - OVERLOW_NO_CHANGE   - No change on overflow
 449:.\Generated_Source\PSoC4/LED_CONTROL.c **** *     - UNDERFLOW_SET       - Set on underflow
 450:.\Generated_Source\PSoC4/LED_CONTROL.c **** *     - UNDERFLOW_CLEAR     - Clear on underflow
 451:.\Generated_Source\PSoC4/LED_CONTROL.c **** *     - UNDERFLOW_INVERT    - Invert on underflow
 452:.\Generated_Source\PSoC4/LED_CONTROL.c **** *     - UNDERFLOW_NO_CHANGE - No change on underflow
 453:.\Generated_Source\PSoC4/LED_CONTROL.c **** *     - PWM_MODE_LEFT       - Setting for left aligned PWM.  Should be combined
 454:.\Generated_Source\PSoC4/LED_CONTROL.c **** *                             with up counting mode
 455:.\Generated_Source\PSoC4/LED_CONTROL.c **** *     - PWM_MODE_RIGHT      - Setting for right aligned PWM.  Should be combined
 456:.\Generated_Source\PSoC4/LED_CONTROL.c **** *                             with down counting mode
 457:.\Generated_Source\PSoC4/LED_CONTROL.c **** *     - PWM_MODE_CENTER     - Setting for center aligned PWM.  Should be
 458:.\Generated_Source\PSoC4/LED_CONTROL.c **** *                             combined with up/down 0 mode
 459:.\Generated_Source\PSoC4/LED_CONTROL.c **** *     - PWM_MODE_ASYM       - Setting for asymmetric PWM.  Should be combined
 460:.\Generated_Source\PSoC4/LED_CONTROL.c **** *                             with up/down 1 mode
 461:.\Generated_Source\PSoC4/LED_CONTROL.c **** *
 462:.\Generated_Source\PSoC4/LED_CONTROL.c **** * Return:
 463:.\Generated_Source\PSoC4/LED_CONTROL.c **** *  None
 464:.\Generated_Source\PSoC4/LED_CONTROL.c **** *
 465:.\Generated_Source\PSoC4/LED_CONTROL.c **** *******************************************************************************/
 466:.\Generated_Source\PSoC4/LED_CONTROL.c **** void LED_CONTROL_SetPWMMode(uint32 modeMask)
 467:.\Generated_Source\PSoC4/LED_CONTROL.c **** {
 497              		.loc 1 467 0
 498              		.cfi_startproc
 499 0000 80B5     		push	{r7, lr}
 500              	.LCFI22:
 501              		.cfi_def_cfa_offset 8
 502              		.cfi_offset 7, -8
ARM GAS  C:\Users\TSUBAS~1\AppData\Local\Temp\cczdhWZx.s 			page 18


 503              		.cfi_offset 14, -4
 504 0002 82B0     		sub	sp, sp, #8
 505              	.LCFI23:
 506              		.cfi_def_cfa_offset 16
 507 0004 00AF     		add	r7, sp, #0
 508              	.LCFI24:
 509              		.cfi_def_cfa_register 7
 510 0006 7860     		str	r0, [r7, #4]
 468:.\Generated_Source\PSoC4/LED_CONTROL.c ****     LED_CONTROL_TRIG_CONTROL2_REG = (modeMask & LED_CONTROL_6BIT_MASK);
 511              		.loc 1 468 0
 512 0008 034B     		ldr	r3, .L27
 513 000a 7968     		ldr	r1, [r7, #4]
 514 000c 3F22     		mov	r2, #63
 515 000e 0A40     		and	r2, r1
 516 0010 1A60     		str	r2, [r3]
 469:.\Generated_Source\PSoC4/LED_CONTROL.c **** }
 517              		.loc 1 469 0
 518 0012 BD46     		mov	sp, r7
 519 0014 02B0     		add	sp, sp, #8
 520              		@ sp needed for prologue
 521 0016 80BD     		pop	{r7, pc}
 522              	.L28:
 523              		.align	2
 524              	.L27:
 525 0018 28010540 		.word	1074069800
 526              		.cfi_endproc
 527              	.LFE8:
 528              		.size	LED_CONTROL_SetPWMMode, .-LED_CONTROL_SetPWMMode
 529              		.section	.text.LED_CONTROL_SetPWMSyncKill,"ax",%progbits
 530              		.align	2
 531              		.global	LED_CONTROL_SetPWMSyncKill
 532              		.code	16
 533              		.thumb_func
 534              		.type	LED_CONTROL_SetPWMSyncKill, %function
 535              	LED_CONTROL_SetPWMSyncKill:
 536              	.LFB9:
 470:.\Generated_Source\PSoC4/LED_CONTROL.c **** 
 471:.\Generated_Source\PSoC4/LED_CONTROL.c **** 
 472:.\Generated_Source\PSoC4/LED_CONTROL.c **** 
 473:.\Generated_Source\PSoC4/LED_CONTROL.c **** /*******************************************************************************
 474:.\Generated_Source\PSoC4/LED_CONTROL.c **** * Function Name: LED_CONTROL_SetPWMSyncKill
 475:.\Generated_Source\PSoC4/LED_CONTROL.c **** ********************************************************************************
 476:.\Generated_Source\PSoC4/LED_CONTROL.c **** *
 477:.\Generated_Source\PSoC4/LED_CONTROL.c **** * Summary:
 478:.\Generated_Source\PSoC4/LED_CONTROL.c **** *  Writes the register that controls whether the PWM kill signal (stop input)
 479:.\Generated_Source\PSoC4/LED_CONTROL.c **** *  causes asynchronous or synchronous kill operation.  By default the kill
 480:.\Generated_Source\PSoC4/LED_CONTROL.c **** *  operation is asynchronous.  This functionality is only applicable to the PWM
 481:.\Generated_Source\PSoC4/LED_CONTROL.c **** *  and PWM with dead time modes.
 482:.\Generated_Source\PSoC4/LED_CONTROL.c **** *
 483:.\Generated_Source\PSoC4/LED_CONTROL.c **** *  For Synchronous mode the kill signal disables both the line and line_n
 484:.\Generated_Source\PSoC4/LED_CONTROL.c **** *  signals until the next terminal count.
 485:.\Generated_Source\PSoC4/LED_CONTROL.c **** *
 486:.\Generated_Source\PSoC4/LED_CONTROL.c **** *  For Asynchronous mode the kill signal disables both the line and line_n
 487:.\Generated_Source\PSoC4/LED_CONTROL.c **** *  signals when the kill signal is present.  This mode should only be used
 488:.\Generated_Source\PSoC4/LED_CONTROL.c **** *  when the kill signal (stop input) is configured in the pass through mode
 489:.\Generated_Source\PSoC4/LED_CONTROL.c **** *  (Level sensitive signal).
 490:.\Generated_Source\PSoC4/LED_CONTROL.c **** 
ARM GAS  C:\Users\TSUBAS~1\AppData\Local\Temp\cczdhWZx.s 			page 19


 491:.\Generated_Source\PSoC4/LED_CONTROL.c **** *
 492:.\Generated_Source\PSoC4/LED_CONTROL.c **** * Parameters:
 493:.\Generated_Source\PSoC4/LED_CONTROL.c **** *  syncKillEnable
 494:.\Generated_Source\PSoC4/LED_CONTROL.c **** *   Values:
 495:.\Generated_Source\PSoC4/LED_CONTROL.c **** *     - 0 - Asynchronous
 496:.\Generated_Source\PSoC4/LED_CONTROL.c **** *     - 1 - Synchronous
 497:.\Generated_Source\PSoC4/LED_CONTROL.c **** *
 498:.\Generated_Source\PSoC4/LED_CONTROL.c **** * Return:
 499:.\Generated_Source\PSoC4/LED_CONTROL.c **** *  None
 500:.\Generated_Source\PSoC4/LED_CONTROL.c **** *
 501:.\Generated_Source\PSoC4/LED_CONTROL.c **** *******************************************************************************/
 502:.\Generated_Source\PSoC4/LED_CONTROL.c **** void LED_CONTROL_SetPWMSyncKill(uint32 syncKillEnable)
 503:.\Generated_Source\PSoC4/LED_CONTROL.c **** {
 537              		.loc 1 503 0
 538              		.cfi_startproc
 539 0000 90B5     		push	{r4, r7, lr}
 540              	.LCFI25:
 541              		.cfi_def_cfa_offset 12
 542              		.cfi_offset 4, -12
 543              		.cfi_offset 7, -8
 544              		.cfi_offset 14, -4
 545 0002 85B0     		sub	sp, sp, #20
 546              	.LCFI26:
 547              		.cfi_def_cfa_offset 32
 548 0004 00AF     		add	r7, sp, #0
 549              	.LCFI27:
 550              		.cfi_def_cfa_register 7
 551 0006 7860     		str	r0, [r7, #4]
 504:.\Generated_Source\PSoC4/LED_CONTROL.c ****     uint8 enableInterrupts;
 505:.\Generated_Source\PSoC4/LED_CONTROL.c **** 
 506:.\Generated_Source\PSoC4/LED_CONTROL.c ****     enableInterrupts = CyEnterCriticalSection();
 552              		.loc 1 506 0
 553 0008 3C1C     		mov	r4, r7
 554 000a 0F34     		add	r4, r4, #15
 555 000c FFF7FEFF 		bl	CyEnterCriticalSection
 556 0010 031C     		mov	r3, r0
 557 0012 2370     		strb	r3, [r4]
 507:.\Generated_Source\PSoC4/LED_CONTROL.c **** 
 508:.\Generated_Source\PSoC4/LED_CONTROL.c ****     LED_CONTROL_CONTROL_REG &= (uint32)~LED_CONTROL_PWM_SYNC_KILL_MASK;
 558              		.loc 1 508 0
 559 0014 0B4B     		ldr	r3, .L30
 560 0016 0B4A     		ldr	r2, .L30
 561 0018 1268     		ldr	r2, [r2]
 562 001a 0421     		mov	r1, #4
 563 001c 8A43     		bic	r2, r1
 564 001e 1A60     		str	r2, [r3]
 509:.\Generated_Source\PSoC4/LED_CONTROL.c ****     LED_CONTROL_CONTROL_REG |= ((uint32)((syncKillEnable & LED_CONTROL_1BIT_MASK)  <<
 565              		.loc 1 509 0
 566 0020 084B     		ldr	r3, .L30
 567 0022 084A     		ldr	r2, .L30
 568 0024 1168     		ldr	r1, [r2]
 569 0026 7868     		ldr	r0, [r7, #4]
 570 0028 0122     		mov	r2, #1
 571 002a 0240     		and	r2, r0
 572 002c 9200     		lsl	r2, r2, #2
 573 002e 0A43     		orr	r2, r1
 574 0030 1A60     		str	r2, [r3]
ARM GAS  C:\Users\TSUBAS~1\AppData\Local\Temp\cczdhWZx.s 			page 20


 510:.\Generated_Source\PSoC4/LED_CONTROL.c ****                                                LED_CONTROL_PWM_SYNC_KILL_SHIFT));
 511:.\Generated_Source\PSoC4/LED_CONTROL.c **** 
 512:.\Generated_Source\PSoC4/LED_CONTROL.c ****     CyExitCriticalSection(enableInterrupts);
 575              		.loc 1 512 0
 576 0032 3B1C     		mov	r3, r7
 577 0034 0F33     		add	r3, r3, #15
 578 0036 1B78     		ldrb	r3, [r3]
 579 0038 181C     		mov	r0, r3
 580 003a FFF7FEFF 		bl	CyExitCriticalSection
 513:.\Generated_Source\PSoC4/LED_CONTROL.c **** }
 581              		.loc 1 513 0
 582 003e BD46     		mov	sp, r7
 583 0040 05B0     		add	sp, sp, #20
 584              		@ sp needed for prologue
 585 0042 90BD     		pop	{r4, r7, pc}
 586              	.L31:
 587              		.align	2
 588              	.L30:
 589 0044 00010540 		.word	1074069760
 590              		.cfi_endproc
 591              	.LFE9:
 592              		.size	LED_CONTROL_SetPWMSyncKill, .-LED_CONTROL_SetPWMSyncKill
 593              		.section	.text.LED_CONTROL_SetPWMStopOnKill,"ax",%progbits
 594              		.align	2
 595              		.global	LED_CONTROL_SetPWMStopOnKill
 596              		.code	16
 597              		.thumb_func
 598              		.type	LED_CONTROL_SetPWMStopOnKill, %function
 599              	LED_CONTROL_SetPWMStopOnKill:
 600              	.LFB10:
 514:.\Generated_Source\PSoC4/LED_CONTROL.c **** 
 515:.\Generated_Source\PSoC4/LED_CONTROL.c **** 
 516:.\Generated_Source\PSoC4/LED_CONTROL.c **** /*******************************************************************************
 517:.\Generated_Source\PSoC4/LED_CONTROL.c **** * Function Name: LED_CONTROL_SetPWMStopOnKill
 518:.\Generated_Source\PSoC4/LED_CONTROL.c **** ********************************************************************************
 519:.\Generated_Source\PSoC4/LED_CONTROL.c **** *
 520:.\Generated_Source\PSoC4/LED_CONTROL.c **** * Summary:
 521:.\Generated_Source\PSoC4/LED_CONTROL.c **** *  Writes the register that controls whether the PWM kill signal (stop input)
 522:.\Generated_Source\PSoC4/LED_CONTROL.c **** *  causes the PWM counter to stop.  By default the kill operation does not stop
 523:.\Generated_Source\PSoC4/LED_CONTROL.c **** *  the counter.  This functionality is only applicable to the three PWM modes.
 524:.\Generated_Source\PSoC4/LED_CONTROL.c **** *
 525:.\Generated_Source\PSoC4/LED_CONTROL.c **** *
 526:.\Generated_Source\PSoC4/LED_CONTROL.c **** * Parameters:
 527:.\Generated_Source\PSoC4/LED_CONTROL.c **** *  stopOnKillEnable
 528:.\Generated_Source\PSoC4/LED_CONTROL.c **** *   Values:
 529:.\Generated_Source\PSoC4/LED_CONTROL.c **** *     - 0 - Don't stop
 530:.\Generated_Source\PSoC4/LED_CONTROL.c **** *     - 1 - Stop
 531:.\Generated_Source\PSoC4/LED_CONTROL.c **** *
 532:.\Generated_Source\PSoC4/LED_CONTROL.c **** * Return:
 533:.\Generated_Source\PSoC4/LED_CONTROL.c **** *  None
 534:.\Generated_Source\PSoC4/LED_CONTROL.c **** *
 535:.\Generated_Source\PSoC4/LED_CONTROL.c **** *******************************************************************************/
 536:.\Generated_Source\PSoC4/LED_CONTROL.c **** void LED_CONTROL_SetPWMStopOnKill(uint32 stopOnKillEnable)
 537:.\Generated_Source\PSoC4/LED_CONTROL.c **** {
 601              		.loc 1 537 0
 602              		.cfi_startproc
 603 0000 90B5     		push	{r4, r7, lr}
ARM GAS  C:\Users\TSUBAS~1\AppData\Local\Temp\cczdhWZx.s 			page 21


 604              	.LCFI28:
 605              		.cfi_def_cfa_offset 12
 606              		.cfi_offset 4, -12
 607              		.cfi_offset 7, -8
 608              		.cfi_offset 14, -4
 609 0002 85B0     		sub	sp, sp, #20
 610              	.LCFI29:
 611              		.cfi_def_cfa_offset 32
 612 0004 00AF     		add	r7, sp, #0
 613              	.LCFI30:
 614              		.cfi_def_cfa_register 7
 615 0006 7860     		str	r0, [r7, #4]
 538:.\Generated_Source\PSoC4/LED_CONTROL.c ****     uint8 enableInterrupts;
 539:.\Generated_Source\PSoC4/LED_CONTROL.c **** 
 540:.\Generated_Source\PSoC4/LED_CONTROL.c ****     enableInterrupts = CyEnterCriticalSection();
 616              		.loc 1 540 0
 617 0008 3C1C     		mov	r4, r7
 618 000a 0F34     		add	r4, r4, #15
 619 000c FFF7FEFF 		bl	CyEnterCriticalSection
 620 0010 031C     		mov	r3, r0
 621 0012 2370     		strb	r3, [r4]
 541:.\Generated_Source\PSoC4/LED_CONTROL.c **** 
 542:.\Generated_Source\PSoC4/LED_CONTROL.c ****     LED_CONTROL_CONTROL_REG &= (uint32)~LED_CONTROL_PWM_STOP_KILL_MASK;
 622              		.loc 1 542 0
 623 0014 0B4B     		ldr	r3, .L33
 624 0016 0B4A     		ldr	r2, .L33
 625 0018 1268     		ldr	r2, [r2]
 626 001a 0821     		mov	r1, #8
 627 001c 8A43     		bic	r2, r1
 628 001e 1A60     		str	r2, [r3]
 543:.\Generated_Source\PSoC4/LED_CONTROL.c ****     LED_CONTROL_CONTROL_REG |= ((uint32)((stopOnKillEnable & LED_CONTROL_1BIT_MASK)  <<
 629              		.loc 1 543 0
 630 0020 084B     		ldr	r3, .L33
 631 0022 084A     		ldr	r2, .L33
 632 0024 1168     		ldr	r1, [r2]
 633 0026 7868     		ldr	r0, [r7, #4]
 634 0028 0122     		mov	r2, #1
 635 002a 0240     		and	r2, r0
 636 002c D200     		lsl	r2, r2, #3
 637 002e 0A43     		orr	r2, r1
 638 0030 1A60     		str	r2, [r3]
 544:.\Generated_Source\PSoC4/LED_CONTROL.c ****                                                          LED_CONTROL_PWM_STOP_KILL_SHIFT));
 545:.\Generated_Source\PSoC4/LED_CONTROL.c **** 
 546:.\Generated_Source\PSoC4/LED_CONTROL.c ****     CyExitCriticalSection(enableInterrupts);
 639              		.loc 1 546 0
 640 0032 3B1C     		mov	r3, r7
 641 0034 0F33     		add	r3, r3, #15
 642 0036 1B78     		ldrb	r3, [r3]
 643 0038 181C     		mov	r0, r3
 644 003a FFF7FEFF 		bl	CyExitCriticalSection
 547:.\Generated_Source\PSoC4/LED_CONTROL.c **** }
 645              		.loc 1 547 0
 646 003e BD46     		mov	sp, r7
 647 0040 05B0     		add	sp, sp, #20
 648              		@ sp needed for prologue
 649 0042 90BD     		pop	{r4, r7, pc}
 650              	.L34:
ARM GAS  C:\Users\TSUBAS~1\AppData\Local\Temp\cczdhWZx.s 			page 22


 651              		.align	2
 652              	.L33:
 653 0044 00010540 		.word	1074069760
 654              		.cfi_endproc
 655              	.LFE10:
 656              		.size	LED_CONTROL_SetPWMStopOnKill, .-LED_CONTROL_SetPWMStopOnKill
 657              		.section	.text.LED_CONTROL_SetPWMDeadTime,"ax",%progbits
 658              		.align	2
 659              		.global	LED_CONTROL_SetPWMDeadTime
 660              		.code	16
 661              		.thumb_func
 662              		.type	LED_CONTROL_SetPWMDeadTime, %function
 663              	LED_CONTROL_SetPWMDeadTime:
 664              	.LFB11:
 548:.\Generated_Source\PSoC4/LED_CONTROL.c **** 
 549:.\Generated_Source\PSoC4/LED_CONTROL.c **** 
 550:.\Generated_Source\PSoC4/LED_CONTROL.c **** /*******************************************************************************
 551:.\Generated_Source\PSoC4/LED_CONTROL.c **** * Function Name: LED_CONTROL_SetPWMDeadTime
 552:.\Generated_Source\PSoC4/LED_CONTROL.c **** ********************************************************************************
 553:.\Generated_Source\PSoC4/LED_CONTROL.c **** *
 554:.\Generated_Source\PSoC4/LED_CONTROL.c **** * Summary:
 555:.\Generated_Source\PSoC4/LED_CONTROL.c **** *  Writes the dead time control value.  This value delays the rising edge of
 556:.\Generated_Source\PSoC4/LED_CONTROL.c **** *  both the line and line_n signals the designated number of cycles resulting
 557:.\Generated_Source\PSoC4/LED_CONTROL.c **** *  in both signals being inactive for that many cycles.  This functionality is
 558:.\Generated_Source\PSoC4/LED_CONTROL.c **** *  only applicable to the PWM in the dead time mode.
 559:.\Generated_Source\PSoC4/LED_CONTROL.c **** 
 560:.\Generated_Source\PSoC4/LED_CONTROL.c **** *
 561:.\Generated_Source\PSoC4/LED_CONTROL.c **** * Parameters:
 562:.\Generated_Source\PSoC4/LED_CONTROL.c **** *  Dead time to insert
 563:.\Generated_Source\PSoC4/LED_CONTROL.c **** *   Values: 0 to 255
 564:.\Generated_Source\PSoC4/LED_CONTROL.c **** *
 565:.\Generated_Source\PSoC4/LED_CONTROL.c **** * Return:
 566:.\Generated_Source\PSoC4/LED_CONTROL.c **** *  None
 567:.\Generated_Source\PSoC4/LED_CONTROL.c **** *
 568:.\Generated_Source\PSoC4/LED_CONTROL.c **** *******************************************************************************/
 569:.\Generated_Source\PSoC4/LED_CONTROL.c **** void LED_CONTROL_SetPWMDeadTime(uint32 deadTime)
 570:.\Generated_Source\PSoC4/LED_CONTROL.c **** {
 665              		.loc 1 570 0
 666              		.cfi_startproc
 667 0000 90B5     		push	{r4, r7, lr}
 668              	.LCFI31:
 669              		.cfi_def_cfa_offset 12
 670              		.cfi_offset 4, -12
 671              		.cfi_offset 7, -8
 672              		.cfi_offset 14, -4
 673 0002 85B0     		sub	sp, sp, #20
 674              	.LCFI32:
 675              		.cfi_def_cfa_offset 32
 676 0004 00AF     		add	r7, sp, #0
 677              	.LCFI33:
 678              		.cfi_def_cfa_register 7
 679 0006 7860     		str	r0, [r7, #4]
 571:.\Generated_Source\PSoC4/LED_CONTROL.c ****     uint8 enableInterrupts;
 572:.\Generated_Source\PSoC4/LED_CONTROL.c **** 
 573:.\Generated_Source\PSoC4/LED_CONTROL.c ****     enableInterrupts = CyEnterCriticalSection();
 680              		.loc 1 573 0
 681 0008 3C1C     		mov	r4, r7
ARM GAS  C:\Users\TSUBAS~1\AppData\Local\Temp\cczdhWZx.s 			page 23


 682 000a 0F34     		add	r4, r4, #15
 683 000c FFF7FEFF 		bl	CyEnterCriticalSection
 684 0010 031C     		mov	r3, r0
 685 0012 2370     		strb	r3, [r4]
 574:.\Generated_Source\PSoC4/LED_CONTROL.c **** 
 575:.\Generated_Source\PSoC4/LED_CONTROL.c ****     LED_CONTROL_CONTROL_REG &= (uint32)~LED_CONTROL_PRESCALER_MASK;
 686              		.loc 1 575 0
 687 0014 0B4B     		ldr	r3, .L36
 688 0016 0B4A     		ldr	r2, .L36
 689 0018 1168     		ldr	r1, [r2]
 690 001a 0B4A     		ldr	r2, .L36+4
 691 001c 0A40     		and	r2, r1
 692 001e 1A60     		str	r2, [r3]
 576:.\Generated_Source\PSoC4/LED_CONTROL.c ****     LED_CONTROL_CONTROL_REG |= ((uint32)((deadTime & LED_CONTROL_8BIT_MASK) <<
 693              		.loc 1 576 0
 694 0020 084B     		ldr	r3, .L36
 695 0022 084A     		ldr	r2, .L36
 696 0024 1168     		ldr	r1, [r2]
 697 0026 7A68     		ldr	r2, [r7, #4]
 698 0028 1202     		lsl	r2, r2, #8
 699 002a 1204     		lsl	r2, r2, #16
 700 002c 120C     		lsr	r2, r2, #16
 701 002e 0A43     		orr	r2, r1
 702 0030 1A60     		str	r2, [r3]
 577:.\Generated_Source\PSoC4/LED_CONTROL.c ****                                                           LED_CONTROL_PRESCALER_SHIFT));
 578:.\Generated_Source\PSoC4/LED_CONTROL.c **** 
 579:.\Generated_Source\PSoC4/LED_CONTROL.c ****     CyExitCriticalSection(enableInterrupts);
 703              		.loc 1 579 0
 704 0032 3B1C     		mov	r3, r7
 705 0034 0F33     		add	r3, r3, #15
 706 0036 1B78     		ldrb	r3, [r3]
 707 0038 181C     		mov	r0, r3
 708 003a FFF7FEFF 		bl	CyExitCriticalSection
 580:.\Generated_Source\PSoC4/LED_CONTROL.c **** }
 709              		.loc 1 580 0
 710 003e BD46     		mov	sp, r7
 711 0040 05B0     		add	sp, sp, #20
 712              		@ sp needed for prologue
 713 0042 90BD     		pop	{r4, r7, pc}
 714              	.L37:
 715              		.align	2
 716              	.L36:
 717 0044 00010540 		.word	1074069760
 718 0048 FF00FFFF 		.word	-65281
 719              		.cfi_endproc
 720              	.LFE11:
 721              		.size	LED_CONTROL_SetPWMDeadTime, .-LED_CONTROL_SetPWMDeadTime
 722              		.section	.text.LED_CONTROL_SetPWMInvert,"ax",%progbits
 723              		.align	2
 724              		.global	LED_CONTROL_SetPWMInvert
 725              		.code	16
 726              		.thumb_func
 727              		.type	LED_CONTROL_SetPWMInvert, %function
 728              	LED_CONTROL_SetPWMInvert:
 729              	.LFB12:
 581:.\Generated_Source\PSoC4/LED_CONTROL.c **** 
 582:.\Generated_Source\PSoC4/LED_CONTROL.c **** 
ARM GAS  C:\Users\TSUBAS~1\AppData\Local\Temp\cczdhWZx.s 			page 24


 583:.\Generated_Source\PSoC4/LED_CONTROL.c **** /*******************************************************************************
 584:.\Generated_Source\PSoC4/LED_CONTROL.c **** * Function Name: LED_CONTROL_SetPWMInvert
 585:.\Generated_Source\PSoC4/LED_CONTROL.c **** ********************************************************************************
 586:.\Generated_Source\PSoC4/LED_CONTROL.c **** *
 587:.\Generated_Source\PSoC4/LED_CONTROL.c **** * Summary:
 588:.\Generated_Source\PSoC4/LED_CONTROL.c **** *  Writes the bits that control whether the line and line_n outputs are
 589:.\Generated_Source\PSoC4/LED_CONTROL.c **** *  inverted from their normal output values.  This functionality is only
 590:.\Generated_Source\PSoC4/LED_CONTROL.c **** *  applicable to the three PWM modes.
 591:.\Generated_Source\PSoC4/LED_CONTROL.c **** *
 592:.\Generated_Source\PSoC4/LED_CONTROL.c **** * Parameters:
 593:.\Generated_Source\PSoC4/LED_CONTROL.c **** *  mask: Mask of outputs to invert.
 594:.\Generated_Source\PSoC4/LED_CONTROL.c **** *   Values:
 595:.\Generated_Source\PSoC4/LED_CONTROL.c **** *         - LED_CONTROL_INVERT_LINE   - Inverts the line output
 596:.\Generated_Source\PSoC4/LED_CONTROL.c **** *         - LED_CONTROL_INVERT_LINE_N - Inverts the line_n output
 597:.\Generated_Source\PSoC4/LED_CONTROL.c **** *
 598:.\Generated_Source\PSoC4/LED_CONTROL.c **** * Return:
 599:.\Generated_Source\PSoC4/LED_CONTROL.c **** *  None
 600:.\Generated_Source\PSoC4/LED_CONTROL.c **** *
 601:.\Generated_Source\PSoC4/LED_CONTROL.c **** *******************************************************************************/
 602:.\Generated_Source\PSoC4/LED_CONTROL.c **** void LED_CONTROL_SetPWMInvert(uint32 mask)
 603:.\Generated_Source\PSoC4/LED_CONTROL.c **** {
 730              		.loc 1 603 0
 731              		.cfi_startproc
 732 0000 90B5     		push	{r4, r7, lr}
 733              	.LCFI34:
 734              		.cfi_def_cfa_offset 12
 735              		.cfi_offset 4, -12
 736              		.cfi_offset 7, -8
 737              		.cfi_offset 14, -4
 738 0002 85B0     		sub	sp, sp, #20
 739              	.LCFI35:
 740              		.cfi_def_cfa_offset 32
 741 0004 00AF     		add	r7, sp, #0
 742              	.LCFI36:
 743              		.cfi_def_cfa_register 7
 744 0006 7860     		str	r0, [r7, #4]
 604:.\Generated_Source\PSoC4/LED_CONTROL.c ****     uint8 enableInterrupts;
 605:.\Generated_Source\PSoC4/LED_CONTROL.c **** 
 606:.\Generated_Source\PSoC4/LED_CONTROL.c ****     enableInterrupts = CyEnterCriticalSection();
 745              		.loc 1 606 0
 746 0008 3C1C     		mov	r4, r7
 747 000a 0F34     		add	r4, r4, #15
 748 000c FFF7FEFF 		bl	CyEnterCriticalSection
 749 0010 031C     		mov	r3, r0
 750 0012 2370     		strb	r3, [r4]
 607:.\Generated_Source\PSoC4/LED_CONTROL.c **** 
 608:.\Generated_Source\PSoC4/LED_CONTROL.c ****     LED_CONTROL_CONTROL_REG &= (uint32)~LED_CONTROL_INV_OUT_MASK;
 751              		.loc 1 608 0
 752 0014 0A4B     		ldr	r3, .L39
 753 0016 0A4A     		ldr	r2, .L39
 754 0018 1168     		ldr	r1, [r2]
 755 001a 0A4A     		ldr	r2, .L39+4
 756 001c 0A40     		and	r2, r1
 757 001e 1A60     		str	r2, [r3]
 609:.\Generated_Source\PSoC4/LED_CONTROL.c ****     LED_CONTROL_CONTROL_REG |= mask;
 758              		.loc 1 609 0
 759 0020 074B     		ldr	r3, .L39
ARM GAS  C:\Users\TSUBAS~1\AppData\Local\Temp\cczdhWZx.s 			page 25


 760 0022 074A     		ldr	r2, .L39
 761 0024 1168     		ldr	r1, [r2]
 762 0026 7A68     		ldr	r2, [r7, #4]
 763 0028 0A43     		orr	r2, r1
 764 002a 1A60     		str	r2, [r3]
 610:.\Generated_Source\PSoC4/LED_CONTROL.c **** 
 611:.\Generated_Source\PSoC4/LED_CONTROL.c ****     CyExitCriticalSection(enableInterrupts);
 765              		.loc 1 611 0
 766 002c 3B1C     		mov	r3, r7
 767 002e 0F33     		add	r3, r3, #15
 768 0030 1B78     		ldrb	r3, [r3]
 769 0032 181C     		mov	r0, r3
 770 0034 FFF7FEFF 		bl	CyExitCriticalSection
 612:.\Generated_Source\PSoC4/LED_CONTROL.c **** }
 771              		.loc 1 612 0
 772 0038 BD46     		mov	sp, r7
 773 003a 05B0     		add	sp, sp, #20
 774              		@ sp needed for prologue
 775 003c 90BD     		pop	{r4, r7, pc}
 776              	.L40:
 777 003e C046     		.align	2
 778              	.L39:
 779 0040 00010540 		.word	1074069760
 780 0044 FFFFCFFF 		.word	-3145729
 781              		.cfi_endproc
 782              	.LFE12:
 783              		.size	LED_CONTROL_SetPWMInvert, .-LED_CONTROL_SetPWMInvert
 784              		.section	.text.LED_CONTROL_WriteCounter,"ax",%progbits
 785              		.align	2
 786              		.global	LED_CONTROL_WriteCounter
 787              		.code	16
 788              		.thumb_func
 789              		.type	LED_CONTROL_WriteCounter, %function
 790              	LED_CONTROL_WriteCounter:
 791              	.LFB13:
 613:.\Generated_Source\PSoC4/LED_CONTROL.c **** 
 614:.\Generated_Source\PSoC4/LED_CONTROL.c **** 
 615:.\Generated_Source\PSoC4/LED_CONTROL.c **** 
 616:.\Generated_Source\PSoC4/LED_CONTROL.c **** /*******************************************************************************
 617:.\Generated_Source\PSoC4/LED_CONTROL.c **** * Function Name: LED_CONTROL_WriteCounter
 618:.\Generated_Source\PSoC4/LED_CONTROL.c **** ********************************************************************************
 619:.\Generated_Source\PSoC4/LED_CONTROL.c **** *
 620:.\Generated_Source\PSoC4/LED_CONTROL.c **** * Summary:
 621:.\Generated_Source\PSoC4/LED_CONTROL.c **** *  Writes a new 16bit counter value directly into the counter register, thus
 622:.\Generated_Source\PSoC4/LED_CONTROL.c **** *  setting the counter (not the period) to the value written. It is not
 623:.\Generated_Source\PSoC4/LED_CONTROL.c **** *  advised to write to this field when the counter is running.
 624:.\Generated_Source\PSoC4/LED_CONTROL.c **** *
 625:.\Generated_Source\PSoC4/LED_CONTROL.c **** * Parameters:
 626:.\Generated_Source\PSoC4/LED_CONTROL.c **** *  count: value to write
 627:.\Generated_Source\PSoC4/LED_CONTROL.c **** *
 628:.\Generated_Source\PSoC4/LED_CONTROL.c **** * Return:
 629:.\Generated_Source\PSoC4/LED_CONTROL.c **** *  None
 630:.\Generated_Source\PSoC4/LED_CONTROL.c **** *
 631:.\Generated_Source\PSoC4/LED_CONTROL.c **** *******************************************************************************/
 632:.\Generated_Source\PSoC4/LED_CONTROL.c **** void LED_CONTROL_WriteCounter(uint32 count)
 633:.\Generated_Source\PSoC4/LED_CONTROL.c **** {
 792              		.loc 1 633 0
ARM GAS  C:\Users\TSUBAS~1\AppData\Local\Temp\cczdhWZx.s 			page 26


 793              		.cfi_startproc
 794 0000 80B5     		push	{r7, lr}
 795              	.LCFI37:
 796              		.cfi_def_cfa_offset 8
 797              		.cfi_offset 7, -8
 798              		.cfi_offset 14, -4
 799 0002 82B0     		sub	sp, sp, #8
 800              	.LCFI38:
 801              		.cfi_def_cfa_offset 16
 802 0004 00AF     		add	r7, sp, #0
 803              	.LCFI39:
 804              		.cfi_def_cfa_register 7
 805 0006 7860     		str	r0, [r7, #4]
 634:.\Generated_Source\PSoC4/LED_CONTROL.c ****     LED_CONTROL_COUNTER_REG = (count & LED_CONTROL_16BIT_MASK);
 806              		.loc 1 634 0
 807 0008 034B     		ldr	r3, .L42
 808 000a 7A68     		ldr	r2, [r7, #4]
 809 000c 1204     		lsl	r2, r2, #16
 810 000e 120C     		lsr	r2, r2, #16
 811 0010 1A60     		str	r2, [r3]
 635:.\Generated_Source\PSoC4/LED_CONTROL.c **** }
 812              		.loc 1 635 0
 813 0012 BD46     		mov	sp, r7
 814 0014 02B0     		add	sp, sp, #8
 815              		@ sp needed for prologue
 816 0016 80BD     		pop	{r7, pc}
 817              	.L43:
 818              		.align	2
 819              	.L42:
 820 0018 08010540 		.word	1074069768
 821              		.cfi_endproc
 822              	.LFE13:
 823              		.size	LED_CONTROL_WriteCounter, .-LED_CONTROL_WriteCounter
 824              		.section	.text.LED_CONTROL_ReadCounter,"ax",%progbits
 825              		.align	2
 826              		.global	LED_CONTROL_ReadCounter
 827              		.code	16
 828              		.thumb_func
 829              		.type	LED_CONTROL_ReadCounter, %function
 830              	LED_CONTROL_ReadCounter:
 831              	.LFB14:
 636:.\Generated_Source\PSoC4/LED_CONTROL.c **** 
 637:.\Generated_Source\PSoC4/LED_CONTROL.c **** 
 638:.\Generated_Source\PSoC4/LED_CONTROL.c **** /*******************************************************************************
 639:.\Generated_Source\PSoC4/LED_CONTROL.c **** * Function Name: LED_CONTROL_ReadCounter
 640:.\Generated_Source\PSoC4/LED_CONTROL.c **** ********************************************************************************
 641:.\Generated_Source\PSoC4/LED_CONTROL.c **** *
 642:.\Generated_Source\PSoC4/LED_CONTROL.c **** * Summary:
 643:.\Generated_Source\PSoC4/LED_CONTROL.c **** *  Reads the current counter value.
 644:.\Generated_Source\PSoC4/LED_CONTROL.c **** *
 645:.\Generated_Source\PSoC4/LED_CONTROL.c **** * Parameters:
 646:.\Generated_Source\PSoC4/LED_CONTROL.c **** *  None
 647:.\Generated_Source\PSoC4/LED_CONTROL.c **** *
 648:.\Generated_Source\PSoC4/LED_CONTROL.c **** * Return:
 649:.\Generated_Source\PSoC4/LED_CONTROL.c **** *  Current counter value
 650:.\Generated_Source\PSoC4/LED_CONTROL.c **** *
 651:.\Generated_Source\PSoC4/LED_CONTROL.c **** *******************************************************************************/
ARM GAS  C:\Users\TSUBAS~1\AppData\Local\Temp\cczdhWZx.s 			page 27


 652:.\Generated_Source\PSoC4/LED_CONTROL.c **** uint32 LED_CONTROL_ReadCounter(void)
 653:.\Generated_Source\PSoC4/LED_CONTROL.c **** {
 832              		.loc 1 653 0
 833              		.cfi_startproc
 834 0000 80B5     		push	{r7, lr}
 835              	.LCFI40:
 836              		.cfi_def_cfa_offset 8
 837              		.cfi_offset 7, -8
 838              		.cfi_offset 14, -4
 839 0002 00AF     		add	r7, sp, #0
 840              	.LCFI41:
 841              		.cfi_def_cfa_register 7
 654:.\Generated_Source\PSoC4/LED_CONTROL.c ****     return (LED_CONTROL_COUNTER_REG & LED_CONTROL_16BIT_MASK);
 842              		.loc 1 654 0
 843 0004 034B     		ldr	r3, .L46
 844 0006 1B68     		ldr	r3, [r3]
 845 0008 1B04     		lsl	r3, r3, #16
 846 000a 1B0C     		lsr	r3, r3, #16
 655:.\Generated_Source\PSoC4/LED_CONTROL.c **** }
 847              		.loc 1 655 0
 848 000c 181C     		mov	r0, r3
 849 000e BD46     		mov	sp, r7
 850              		@ sp needed for prologue
 851 0010 80BD     		pop	{r7, pc}
 852              	.L47:
 853 0012 C046     		.align	2
 854              	.L46:
 855 0014 08010540 		.word	1074069768
 856              		.cfi_endproc
 857              	.LFE14:
 858              		.size	LED_CONTROL_ReadCounter, .-LED_CONTROL_ReadCounter
 859              		.section	.text.LED_CONTROL_SetCounterMode,"ax",%progbits
 860              		.align	2
 861              		.global	LED_CONTROL_SetCounterMode
 862              		.code	16
 863              		.thumb_func
 864              		.type	LED_CONTROL_SetCounterMode, %function
 865              	LED_CONTROL_SetCounterMode:
 866              	.LFB15:
 656:.\Generated_Source\PSoC4/LED_CONTROL.c **** 
 657:.\Generated_Source\PSoC4/LED_CONTROL.c **** 
 658:.\Generated_Source\PSoC4/LED_CONTROL.c **** /*******************************************************************************
 659:.\Generated_Source\PSoC4/LED_CONTROL.c **** * Function Name: LED_CONTROL_SetCounterMode
 660:.\Generated_Source\PSoC4/LED_CONTROL.c **** ********************************************************************************
 661:.\Generated_Source\PSoC4/LED_CONTROL.c **** *
 662:.\Generated_Source\PSoC4/LED_CONTROL.c **** * Summary:
 663:.\Generated_Source\PSoC4/LED_CONTROL.c **** *  Sets the counter mode.  Applicable to all modes except Quadrature Decoder
 664:.\Generated_Source\PSoC4/LED_CONTROL.c **** *  and the PWM with a pseudo random output.
 665:.\Generated_Source\PSoC4/LED_CONTROL.c **** *
 666:.\Generated_Source\PSoC4/LED_CONTROL.c **** * Parameters:
 667:.\Generated_Source\PSoC4/LED_CONTROL.c **** *  counterMode: Enumerated counter type values
 668:.\Generated_Source\PSoC4/LED_CONTROL.c **** *   Values:
 669:.\Generated_Source\PSoC4/LED_CONTROL.c **** *     - LED_CONTROL_COUNT_UP       - Counts up
 670:.\Generated_Source\PSoC4/LED_CONTROL.c **** *     - LED_CONTROL_COUNT_DOWN     - Counts down
 671:.\Generated_Source\PSoC4/LED_CONTROL.c **** *     - LED_CONTROL_COUNT_UPDOWN0  - Counts up and down. Terminal count
 672:.\Generated_Source\PSoC4/LED_CONTROL.c **** *                                         generated when counter reaches 0
 673:.\Generated_Source\PSoC4/LED_CONTROL.c **** *     - LED_CONTROL_COUNT_UPDOWN1  - Counts up and down. Terminal count
ARM GAS  C:\Users\TSUBAS~1\AppData\Local\Temp\cczdhWZx.s 			page 28


 674:.\Generated_Source\PSoC4/LED_CONTROL.c **** *                                         generated both when counter reaches 0
 675:.\Generated_Source\PSoC4/LED_CONTROL.c **** *                                         and period
 676:.\Generated_Source\PSoC4/LED_CONTROL.c **** *
 677:.\Generated_Source\PSoC4/LED_CONTROL.c **** * Return:
 678:.\Generated_Source\PSoC4/LED_CONTROL.c **** *  None
 679:.\Generated_Source\PSoC4/LED_CONTROL.c **** *
 680:.\Generated_Source\PSoC4/LED_CONTROL.c **** *******************************************************************************/
 681:.\Generated_Source\PSoC4/LED_CONTROL.c **** void LED_CONTROL_SetCounterMode(uint32 counterMode)
 682:.\Generated_Source\PSoC4/LED_CONTROL.c **** {
 867              		.loc 1 682 0
 868              		.cfi_startproc
 869 0000 90B5     		push	{r4, r7, lr}
 870              	.LCFI42:
 871              		.cfi_def_cfa_offset 12
 872              		.cfi_offset 4, -12
 873              		.cfi_offset 7, -8
 874              		.cfi_offset 14, -4
 875 0002 85B0     		sub	sp, sp, #20
 876              	.LCFI43:
 877              		.cfi_def_cfa_offset 32
 878 0004 00AF     		add	r7, sp, #0
 879              	.LCFI44:
 880              		.cfi_def_cfa_register 7
 881 0006 7860     		str	r0, [r7, #4]
 683:.\Generated_Source\PSoC4/LED_CONTROL.c ****     uint8 enableInterrupts;
 684:.\Generated_Source\PSoC4/LED_CONTROL.c **** 
 685:.\Generated_Source\PSoC4/LED_CONTROL.c ****     enableInterrupts = CyEnterCriticalSection();
 882              		.loc 1 685 0
 883 0008 3C1C     		mov	r4, r7
 884 000a 0F34     		add	r4, r4, #15
 885 000c FFF7FEFF 		bl	CyEnterCriticalSection
 886 0010 031C     		mov	r3, r0
 887 0012 2370     		strb	r3, [r4]
 686:.\Generated_Source\PSoC4/LED_CONTROL.c **** 
 687:.\Generated_Source\PSoC4/LED_CONTROL.c ****     LED_CONTROL_CONTROL_REG &= (uint32)~LED_CONTROL_UPDOWN_MASK;
 888              		.loc 1 687 0
 889 0014 0A4B     		ldr	r3, .L49
 890 0016 0A4A     		ldr	r2, .L49
 891 0018 1168     		ldr	r1, [r2]
 892 001a 0A4A     		ldr	r2, .L49+4
 893 001c 0A40     		and	r2, r1
 894 001e 1A60     		str	r2, [r3]
 688:.\Generated_Source\PSoC4/LED_CONTROL.c ****     LED_CONTROL_CONTROL_REG |= counterMode;
 895              		.loc 1 688 0
 896 0020 074B     		ldr	r3, .L49
 897 0022 074A     		ldr	r2, .L49
 898 0024 1168     		ldr	r1, [r2]
 899 0026 7A68     		ldr	r2, [r7, #4]
 900 0028 0A43     		orr	r2, r1
 901 002a 1A60     		str	r2, [r3]
 689:.\Generated_Source\PSoC4/LED_CONTROL.c **** 
 690:.\Generated_Source\PSoC4/LED_CONTROL.c ****     CyExitCriticalSection(enableInterrupts);
 902              		.loc 1 690 0
 903 002c 3B1C     		mov	r3, r7
 904 002e 0F33     		add	r3, r3, #15
 905 0030 1B78     		ldrb	r3, [r3]
 906 0032 181C     		mov	r0, r3
ARM GAS  C:\Users\TSUBAS~1\AppData\Local\Temp\cczdhWZx.s 			page 29


 907 0034 FFF7FEFF 		bl	CyExitCriticalSection
 691:.\Generated_Source\PSoC4/LED_CONTROL.c **** }
 908              		.loc 1 691 0
 909 0038 BD46     		mov	sp, r7
 910 003a 05B0     		add	sp, sp, #20
 911              		@ sp needed for prologue
 912 003c 90BD     		pop	{r4, r7, pc}
 913              	.L50:
 914 003e C046     		.align	2
 915              	.L49:
 916 0040 00010540 		.word	1074069760
 917 0044 FFFFFCFF 		.word	-196609
 918              		.cfi_endproc
 919              	.LFE15:
 920              		.size	LED_CONTROL_SetCounterMode, .-LED_CONTROL_SetCounterMode
 921              		.section	.text.LED_CONTROL_WritePeriod,"ax",%progbits
 922              		.align	2
 923              		.global	LED_CONTROL_WritePeriod
 924              		.code	16
 925              		.thumb_func
 926              		.type	LED_CONTROL_WritePeriod, %function
 927              	LED_CONTROL_WritePeriod:
 928              	.LFB16:
 692:.\Generated_Source\PSoC4/LED_CONTROL.c **** 
 693:.\Generated_Source\PSoC4/LED_CONTROL.c **** 
 694:.\Generated_Source\PSoC4/LED_CONTROL.c **** /*******************************************************************************
 695:.\Generated_Source\PSoC4/LED_CONTROL.c **** * Function Name: LED_CONTROL_WritePeriod
 696:.\Generated_Source\PSoC4/LED_CONTROL.c **** ********************************************************************************
 697:.\Generated_Source\PSoC4/LED_CONTROL.c **** *
 698:.\Generated_Source\PSoC4/LED_CONTROL.c **** * Summary:
 699:.\Generated_Source\PSoC4/LED_CONTROL.c **** *  Writes the 16 bit period register with the new period value.
 700:.\Generated_Source\PSoC4/LED_CONTROL.c **** *  To cause the counter to count for N cycles this register should be written
 701:.\Generated_Source\PSoC4/LED_CONTROL.c **** *  with N-1 (counts from 0 to period inclusive).
 702:.\Generated_Source\PSoC4/LED_CONTROL.c **** *
 703:.\Generated_Source\PSoC4/LED_CONTROL.c **** * Parameters:
 704:.\Generated_Source\PSoC4/LED_CONTROL.c **** *  period: Period value
 705:.\Generated_Source\PSoC4/LED_CONTROL.c **** *
 706:.\Generated_Source\PSoC4/LED_CONTROL.c **** * Return:
 707:.\Generated_Source\PSoC4/LED_CONTROL.c **** *  None
 708:.\Generated_Source\PSoC4/LED_CONTROL.c **** *
 709:.\Generated_Source\PSoC4/LED_CONTROL.c **** *******************************************************************************/
 710:.\Generated_Source\PSoC4/LED_CONTROL.c **** void LED_CONTROL_WritePeriod(uint32 period)
 711:.\Generated_Source\PSoC4/LED_CONTROL.c **** {
 929              		.loc 1 711 0
 930              		.cfi_startproc
 931 0000 80B5     		push	{r7, lr}
 932              	.LCFI45:
 933              		.cfi_def_cfa_offset 8
 934              		.cfi_offset 7, -8
 935              		.cfi_offset 14, -4
 936 0002 82B0     		sub	sp, sp, #8
 937              	.LCFI46:
 938              		.cfi_def_cfa_offset 16
 939 0004 00AF     		add	r7, sp, #0
 940              	.LCFI47:
 941              		.cfi_def_cfa_register 7
 942 0006 7860     		str	r0, [r7, #4]
ARM GAS  C:\Users\TSUBAS~1\AppData\Local\Temp\cczdhWZx.s 			page 30


 712:.\Generated_Source\PSoC4/LED_CONTROL.c ****     LED_CONTROL_PERIOD_REG = (period & LED_CONTROL_16BIT_MASK);
 943              		.loc 1 712 0
 944 0008 034B     		ldr	r3, .L52
 945 000a 7A68     		ldr	r2, [r7, #4]
 946 000c 1204     		lsl	r2, r2, #16
 947 000e 120C     		lsr	r2, r2, #16
 948 0010 1A60     		str	r2, [r3]
 713:.\Generated_Source\PSoC4/LED_CONTROL.c **** }
 949              		.loc 1 713 0
 950 0012 BD46     		mov	sp, r7
 951 0014 02B0     		add	sp, sp, #8
 952              		@ sp needed for prologue
 953 0016 80BD     		pop	{r7, pc}
 954              	.L53:
 955              		.align	2
 956              	.L52:
 957 0018 14010540 		.word	1074069780
 958              		.cfi_endproc
 959              	.LFE16:
 960              		.size	LED_CONTROL_WritePeriod, .-LED_CONTROL_WritePeriod
 961              		.section	.text.LED_CONTROL_ReadPeriod,"ax",%progbits
 962              		.align	2
 963              		.global	LED_CONTROL_ReadPeriod
 964              		.code	16
 965              		.thumb_func
 966              		.type	LED_CONTROL_ReadPeriod, %function
 967              	LED_CONTROL_ReadPeriod:
 968              	.LFB17:
 714:.\Generated_Source\PSoC4/LED_CONTROL.c **** 
 715:.\Generated_Source\PSoC4/LED_CONTROL.c **** 
 716:.\Generated_Source\PSoC4/LED_CONTROL.c **** /*******************************************************************************
 717:.\Generated_Source\PSoC4/LED_CONTROL.c **** * Function Name: LED_CONTROL_ReadPeriod
 718:.\Generated_Source\PSoC4/LED_CONTROL.c **** ********************************************************************************
 719:.\Generated_Source\PSoC4/LED_CONTROL.c **** *
 720:.\Generated_Source\PSoC4/LED_CONTROL.c **** * Summary:
 721:.\Generated_Source\PSoC4/LED_CONTROL.c **** *  Reads the 16 bit period register.
 722:.\Generated_Source\PSoC4/LED_CONTROL.c **** *
 723:.\Generated_Source\PSoC4/LED_CONTROL.c **** * Parameters:
 724:.\Generated_Source\PSoC4/LED_CONTROL.c **** *  None
 725:.\Generated_Source\PSoC4/LED_CONTROL.c **** *
 726:.\Generated_Source\PSoC4/LED_CONTROL.c **** * Return:
 727:.\Generated_Source\PSoC4/LED_CONTROL.c **** *  Period value
 728:.\Generated_Source\PSoC4/LED_CONTROL.c **** *
 729:.\Generated_Source\PSoC4/LED_CONTROL.c **** *******************************************************************************/
 730:.\Generated_Source\PSoC4/LED_CONTROL.c **** uint32 LED_CONTROL_ReadPeriod(void)
 731:.\Generated_Source\PSoC4/LED_CONTROL.c **** {
 969              		.loc 1 731 0
 970              		.cfi_startproc
 971 0000 80B5     		push	{r7, lr}
 972              	.LCFI48:
 973              		.cfi_def_cfa_offset 8
 974              		.cfi_offset 7, -8
 975              		.cfi_offset 14, -4
 976 0002 00AF     		add	r7, sp, #0
 977              	.LCFI49:
 978              		.cfi_def_cfa_register 7
 732:.\Generated_Source\PSoC4/LED_CONTROL.c ****     return (LED_CONTROL_PERIOD_REG & LED_CONTROL_16BIT_MASK);
ARM GAS  C:\Users\TSUBAS~1\AppData\Local\Temp\cczdhWZx.s 			page 31


 979              		.loc 1 732 0
 980 0004 034B     		ldr	r3, .L56
 981 0006 1B68     		ldr	r3, [r3]
 982 0008 1B04     		lsl	r3, r3, #16
 983 000a 1B0C     		lsr	r3, r3, #16
 733:.\Generated_Source\PSoC4/LED_CONTROL.c **** }
 984              		.loc 1 733 0
 985 000c 181C     		mov	r0, r3
 986 000e BD46     		mov	sp, r7
 987              		@ sp needed for prologue
 988 0010 80BD     		pop	{r7, pc}
 989              	.L57:
 990 0012 C046     		.align	2
 991              	.L56:
 992 0014 14010540 		.word	1074069780
 993              		.cfi_endproc
 994              	.LFE17:
 995              		.size	LED_CONTROL_ReadPeriod, .-LED_CONTROL_ReadPeriod
 996              		.section	.text.LED_CONTROL_SetCompareSwap,"ax",%progbits
 997              		.align	2
 998              		.global	LED_CONTROL_SetCompareSwap
 999              		.code	16
 1000              		.thumb_func
 1001              		.type	LED_CONTROL_SetCompareSwap, %function
 1002              	LED_CONTROL_SetCompareSwap:
 1003              	.LFB18:
 734:.\Generated_Source\PSoC4/LED_CONTROL.c **** 
 735:.\Generated_Source\PSoC4/LED_CONTROL.c **** 
 736:.\Generated_Source\PSoC4/LED_CONTROL.c **** /*******************************************************************************
 737:.\Generated_Source\PSoC4/LED_CONTROL.c **** * Function Name: LED_CONTROL_SetCompareSwap
 738:.\Generated_Source\PSoC4/LED_CONTROL.c **** ********************************************************************************
 739:.\Generated_Source\PSoC4/LED_CONTROL.c **** *
 740:.\Generated_Source\PSoC4/LED_CONTROL.c **** * Summary:
 741:.\Generated_Source\PSoC4/LED_CONTROL.c **** *  Writes the register that controls whether the compare registers are
 742:.\Generated_Source\PSoC4/LED_CONTROL.c **** *  swapped. When enabled in the Timer/Counter mode(without capture) the swap
 743:.\Generated_Source\PSoC4/LED_CONTROL.c **** *  occurs at a TC event. In the PWM mode the swap occurs at the next TC event
 744:.\Generated_Source\PSoC4/LED_CONTROL.c **** *  following a hardware switch event.
 745:.\Generated_Source\PSoC4/LED_CONTROL.c **** *
 746:.\Generated_Source\PSoC4/LED_CONTROL.c **** * Parameters:
 747:.\Generated_Source\PSoC4/LED_CONTROL.c **** *  swapEnable
 748:.\Generated_Source\PSoC4/LED_CONTROL.c **** *   Values:
 749:.\Generated_Source\PSoC4/LED_CONTROL.c **** *     - 0 - Disable swap
 750:.\Generated_Source\PSoC4/LED_CONTROL.c **** *     - 1 - Enable swap
 751:.\Generated_Source\PSoC4/LED_CONTROL.c **** *
 752:.\Generated_Source\PSoC4/LED_CONTROL.c **** * Return:
 753:.\Generated_Source\PSoC4/LED_CONTROL.c **** *  None
 754:.\Generated_Source\PSoC4/LED_CONTROL.c **** *
 755:.\Generated_Source\PSoC4/LED_CONTROL.c **** *******************************************************************************/
 756:.\Generated_Source\PSoC4/LED_CONTROL.c **** void LED_CONTROL_SetCompareSwap(uint32 swapEnable)
 757:.\Generated_Source\PSoC4/LED_CONTROL.c **** {
 1004              		.loc 1 757 0
 1005              		.cfi_startproc
 1006 0000 90B5     		push	{r4, r7, lr}
 1007              	.LCFI50:
 1008              		.cfi_def_cfa_offset 12
 1009              		.cfi_offset 4, -12
 1010              		.cfi_offset 7, -8
ARM GAS  C:\Users\TSUBAS~1\AppData\Local\Temp\cczdhWZx.s 			page 32


 1011              		.cfi_offset 14, -4
 1012 0002 85B0     		sub	sp, sp, #20
 1013              	.LCFI51:
 1014              		.cfi_def_cfa_offset 32
 1015 0004 00AF     		add	r7, sp, #0
 1016              	.LCFI52:
 1017              		.cfi_def_cfa_register 7
 1018 0006 7860     		str	r0, [r7, #4]
 758:.\Generated_Source\PSoC4/LED_CONTROL.c ****     uint8 enableInterrupts;
 759:.\Generated_Source\PSoC4/LED_CONTROL.c **** 
 760:.\Generated_Source\PSoC4/LED_CONTROL.c ****     enableInterrupts = CyEnterCriticalSection();
 1019              		.loc 1 760 0
 1020 0008 3C1C     		mov	r4, r7
 1021 000a 0F34     		add	r4, r4, #15
 1022 000c FFF7FEFF 		bl	CyEnterCriticalSection
 1023 0010 031C     		mov	r3, r0
 1024 0012 2370     		strb	r3, [r4]
 761:.\Generated_Source\PSoC4/LED_CONTROL.c **** 
 762:.\Generated_Source\PSoC4/LED_CONTROL.c ****     LED_CONTROL_CONTROL_REG &= (uint32)~LED_CONTROL_RELOAD_CC_MASK;
 1025              		.loc 1 762 0
 1026 0014 0B4B     		ldr	r3, .L59
 1027 0016 0B4A     		ldr	r2, .L59
 1028 0018 1268     		ldr	r2, [r2]
 1029 001a 0121     		mov	r1, #1
 1030 001c 8A43     		bic	r2, r1
 1031 001e 1A60     		str	r2, [r3]
 763:.\Generated_Source\PSoC4/LED_CONTROL.c ****     LED_CONTROL_CONTROL_REG |= (swapEnable & LED_CONTROL_1BIT_MASK);
 1032              		.loc 1 763 0
 1033 0020 084B     		ldr	r3, .L59
 1034 0022 084A     		ldr	r2, .L59
 1035 0024 1168     		ldr	r1, [r2]
 1036 0026 7868     		ldr	r0, [r7, #4]
 1037 0028 0122     		mov	r2, #1
 1038 002a 0240     		and	r2, r0
 1039 002c 0A43     		orr	r2, r1
 1040 002e 1A60     		str	r2, [r3]
 764:.\Generated_Source\PSoC4/LED_CONTROL.c **** 
 765:.\Generated_Source\PSoC4/LED_CONTROL.c ****     CyExitCriticalSection(enableInterrupts);
 1041              		.loc 1 765 0
 1042 0030 3B1C     		mov	r3, r7
 1043 0032 0F33     		add	r3, r3, #15
 1044 0034 1B78     		ldrb	r3, [r3]
 1045 0036 181C     		mov	r0, r3
 1046 0038 FFF7FEFF 		bl	CyExitCriticalSection
 766:.\Generated_Source\PSoC4/LED_CONTROL.c **** }
 1047              		.loc 1 766 0
 1048 003c BD46     		mov	sp, r7
 1049 003e 05B0     		add	sp, sp, #20
 1050              		@ sp needed for prologue
 1051 0040 90BD     		pop	{r4, r7, pc}
 1052              	.L60:
 1053 0042 C046     		.align	2
 1054              	.L59:
 1055 0044 00010540 		.word	1074069760
 1056              		.cfi_endproc
 1057              	.LFE18:
 1058              		.size	LED_CONTROL_SetCompareSwap, .-LED_CONTROL_SetCompareSwap
ARM GAS  C:\Users\TSUBAS~1\AppData\Local\Temp\cczdhWZx.s 			page 33


 1059              		.section	.text.LED_CONTROL_WritePeriodBuf,"ax",%progbits
 1060              		.align	2
 1061              		.global	LED_CONTROL_WritePeriodBuf
 1062              		.code	16
 1063              		.thumb_func
 1064              		.type	LED_CONTROL_WritePeriodBuf, %function
 1065              	LED_CONTROL_WritePeriodBuf:
 1066              	.LFB19:
 767:.\Generated_Source\PSoC4/LED_CONTROL.c **** 
 768:.\Generated_Source\PSoC4/LED_CONTROL.c **** 
 769:.\Generated_Source\PSoC4/LED_CONTROL.c **** /*******************************************************************************
 770:.\Generated_Source\PSoC4/LED_CONTROL.c **** * Function Name: LED_CONTROL_WritePeriodBuf
 771:.\Generated_Source\PSoC4/LED_CONTROL.c **** ********************************************************************************
 772:.\Generated_Source\PSoC4/LED_CONTROL.c **** *
 773:.\Generated_Source\PSoC4/LED_CONTROL.c **** * Summary:
 774:.\Generated_Source\PSoC4/LED_CONTROL.c **** *  Writes the 16 bit period buf register with the new period value.
 775:.\Generated_Source\PSoC4/LED_CONTROL.c **** *
 776:.\Generated_Source\PSoC4/LED_CONTROL.c **** * Parameters:
 777:.\Generated_Source\PSoC4/LED_CONTROL.c **** *  periodBuf: Period value
 778:.\Generated_Source\PSoC4/LED_CONTROL.c **** *
 779:.\Generated_Source\PSoC4/LED_CONTROL.c **** * Return:
 780:.\Generated_Source\PSoC4/LED_CONTROL.c **** *  None
 781:.\Generated_Source\PSoC4/LED_CONTROL.c **** *
 782:.\Generated_Source\PSoC4/LED_CONTROL.c **** *******************************************************************************/
 783:.\Generated_Source\PSoC4/LED_CONTROL.c **** void LED_CONTROL_WritePeriodBuf(uint32 periodBuf)
 784:.\Generated_Source\PSoC4/LED_CONTROL.c **** {
 1067              		.loc 1 784 0
 1068              		.cfi_startproc
 1069 0000 80B5     		push	{r7, lr}
 1070              	.LCFI53:
 1071              		.cfi_def_cfa_offset 8
 1072              		.cfi_offset 7, -8
 1073              		.cfi_offset 14, -4
 1074 0002 82B0     		sub	sp, sp, #8
 1075              	.LCFI54:
 1076              		.cfi_def_cfa_offset 16
 1077 0004 00AF     		add	r7, sp, #0
 1078              	.LCFI55:
 1079              		.cfi_def_cfa_register 7
 1080 0006 7860     		str	r0, [r7, #4]
 785:.\Generated_Source\PSoC4/LED_CONTROL.c ****     LED_CONTROL_PERIOD_BUF_REG = (periodBuf & LED_CONTROL_16BIT_MASK);
 1081              		.loc 1 785 0
 1082 0008 034B     		ldr	r3, .L62
 1083 000a 7A68     		ldr	r2, [r7, #4]
 1084 000c 1204     		lsl	r2, r2, #16
 1085 000e 120C     		lsr	r2, r2, #16
 1086 0010 1A60     		str	r2, [r3]
 786:.\Generated_Source\PSoC4/LED_CONTROL.c **** }
 1087              		.loc 1 786 0
 1088 0012 BD46     		mov	sp, r7
 1089 0014 02B0     		add	sp, sp, #8
 1090              		@ sp needed for prologue
 1091 0016 80BD     		pop	{r7, pc}
 1092              	.L63:
 1093              		.align	2
 1094              	.L62:
 1095 0018 18010540 		.word	1074069784
ARM GAS  C:\Users\TSUBAS~1\AppData\Local\Temp\cczdhWZx.s 			page 34


 1096              		.cfi_endproc
 1097              	.LFE19:
 1098              		.size	LED_CONTROL_WritePeriodBuf, .-LED_CONTROL_WritePeriodBuf
 1099              		.section	.text.LED_CONTROL_ReadPeriodBuf,"ax",%progbits
 1100              		.align	2
 1101              		.global	LED_CONTROL_ReadPeriodBuf
 1102              		.code	16
 1103              		.thumb_func
 1104              		.type	LED_CONTROL_ReadPeriodBuf, %function
 1105              	LED_CONTROL_ReadPeriodBuf:
 1106              	.LFB20:
 787:.\Generated_Source\PSoC4/LED_CONTROL.c **** 
 788:.\Generated_Source\PSoC4/LED_CONTROL.c **** 
 789:.\Generated_Source\PSoC4/LED_CONTROL.c **** /*******************************************************************************
 790:.\Generated_Source\PSoC4/LED_CONTROL.c **** * Function Name: LED_CONTROL_ReadPeriodBuf
 791:.\Generated_Source\PSoC4/LED_CONTROL.c **** ********************************************************************************
 792:.\Generated_Source\PSoC4/LED_CONTROL.c **** *
 793:.\Generated_Source\PSoC4/LED_CONTROL.c **** * Summary:
 794:.\Generated_Source\PSoC4/LED_CONTROL.c **** *  Reads the 16 bit period buf register.
 795:.\Generated_Source\PSoC4/LED_CONTROL.c **** *
 796:.\Generated_Source\PSoC4/LED_CONTROL.c **** * Parameters:
 797:.\Generated_Source\PSoC4/LED_CONTROL.c **** *  None
 798:.\Generated_Source\PSoC4/LED_CONTROL.c **** *
 799:.\Generated_Source\PSoC4/LED_CONTROL.c **** * Return:
 800:.\Generated_Source\PSoC4/LED_CONTROL.c **** *  Period value
 801:.\Generated_Source\PSoC4/LED_CONTROL.c **** *
 802:.\Generated_Source\PSoC4/LED_CONTROL.c **** *******************************************************************************/
 803:.\Generated_Source\PSoC4/LED_CONTROL.c **** uint32 LED_CONTROL_ReadPeriodBuf(void)
 804:.\Generated_Source\PSoC4/LED_CONTROL.c **** {
 1107              		.loc 1 804 0
 1108              		.cfi_startproc
 1109 0000 80B5     		push	{r7, lr}
 1110              	.LCFI56:
 1111              		.cfi_def_cfa_offset 8
 1112              		.cfi_offset 7, -8
 1113              		.cfi_offset 14, -4
 1114 0002 00AF     		add	r7, sp, #0
 1115              	.LCFI57:
 1116              		.cfi_def_cfa_register 7
 805:.\Generated_Source\PSoC4/LED_CONTROL.c ****     return (LED_CONTROL_PERIOD_BUF_REG & LED_CONTROL_16BIT_MASK);
 1117              		.loc 1 805 0
 1118 0004 034B     		ldr	r3, .L66
 1119 0006 1B68     		ldr	r3, [r3]
 1120 0008 1B04     		lsl	r3, r3, #16
 1121 000a 1B0C     		lsr	r3, r3, #16
 806:.\Generated_Source\PSoC4/LED_CONTROL.c **** }
 1122              		.loc 1 806 0
 1123 000c 181C     		mov	r0, r3
 1124 000e BD46     		mov	sp, r7
 1125              		@ sp needed for prologue
 1126 0010 80BD     		pop	{r7, pc}
 1127              	.L67:
 1128 0012 C046     		.align	2
 1129              	.L66:
 1130 0014 18010540 		.word	1074069784
 1131              		.cfi_endproc
 1132              	.LFE20:
ARM GAS  C:\Users\TSUBAS~1\AppData\Local\Temp\cczdhWZx.s 			page 35


 1133              		.size	LED_CONTROL_ReadPeriodBuf, .-LED_CONTROL_ReadPeriodBuf
 1134              		.section	.text.LED_CONTROL_SetPeriodSwap,"ax",%progbits
 1135              		.align	2
 1136              		.global	LED_CONTROL_SetPeriodSwap
 1137              		.code	16
 1138              		.thumb_func
 1139              		.type	LED_CONTROL_SetPeriodSwap, %function
 1140              	LED_CONTROL_SetPeriodSwap:
 1141              	.LFB21:
 807:.\Generated_Source\PSoC4/LED_CONTROL.c **** 
 808:.\Generated_Source\PSoC4/LED_CONTROL.c **** 
 809:.\Generated_Source\PSoC4/LED_CONTROL.c **** /*******************************************************************************
 810:.\Generated_Source\PSoC4/LED_CONTROL.c **** * Function Name: LED_CONTROL_SetPeriodSwap
 811:.\Generated_Source\PSoC4/LED_CONTROL.c **** ********************************************************************************
 812:.\Generated_Source\PSoC4/LED_CONTROL.c **** *
 813:.\Generated_Source\PSoC4/LED_CONTROL.c **** * Summary:
 814:.\Generated_Source\PSoC4/LED_CONTROL.c **** *  Writes the register that controls whether the period registers are
 815:.\Generated_Source\PSoC4/LED_CONTROL.c **** *  swapped. When enabled in Timer/Counter mode the swap occurs at a TC event.
 816:.\Generated_Source\PSoC4/LED_CONTROL.c **** *  In the PWM mode the swap occurs at the next TC event following a hardware
 817:.\Generated_Source\PSoC4/LED_CONTROL.c **** *  switch event.
 818:.\Generated_Source\PSoC4/LED_CONTROL.c **** *
 819:.\Generated_Source\PSoC4/LED_CONTROL.c **** * Parameters:
 820:.\Generated_Source\PSoC4/LED_CONTROL.c **** *  swapEnable
 821:.\Generated_Source\PSoC4/LED_CONTROL.c **** *   Values:
 822:.\Generated_Source\PSoC4/LED_CONTROL.c **** *     - 0 - Disable swap
 823:.\Generated_Source\PSoC4/LED_CONTROL.c **** *     - 1 - Enable swap
 824:.\Generated_Source\PSoC4/LED_CONTROL.c **** *
 825:.\Generated_Source\PSoC4/LED_CONTROL.c **** * Return:
 826:.\Generated_Source\PSoC4/LED_CONTROL.c **** *  None
 827:.\Generated_Source\PSoC4/LED_CONTROL.c **** *
 828:.\Generated_Source\PSoC4/LED_CONTROL.c **** *******************************************************************************/
 829:.\Generated_Source\PSoC4/LED_CONTROL.c **** void LED_CONTROL_SetPeriodSwap(uint32 swapEnable)
 830:.\Generated_Source\PSoC4/LED_CONTROL.c **** {
 1142              		.loc 1 830 0
 1143              		.cfi_startproc
 1144 0000 90B5     		push	{r4, r7, lr}
 1145              	.LCFI58:
 1146              		.cfi_def_cfa_offset 12
 1147              		.cfi_offset 4, -12
 1148              		.cfi_offset 7, -8
 1149              		.cfi_offset 14, -4
 1150 0002 85B0     		sub	sp, sp, #20
 1151              	.LCFI59:
 1152              		.cfi_def_cfa_offset 32
 1153 0004 00AF     		add	r7, sp, #0
 1154              	.LCFI60:
 1155              		.cfi_def_cfa_register 7
 1156 0006 7860     		str	r0, [r7, #4]
 831:.\Generated_Source\PSoC4/LED_CONTROL.c ****     uint8 enableInterrupts;
 832:.\Generated_Source\PSoC4/LED_CONTROL.c **** 
 833:.\Generated_Source\PSoC4/LED_CONTROL.c ****     enableInterrupts = CyEnterCriticalSection();
 1157              		.loc 1 833 0
 1158 0008 3C1C     		mov	r4, r7
 1159 000a 0F34     		add	r4, r4, #15
 1160 000c FFF7FEFF 		bl	CyEnterCriticalSection
 1161 0010 031C     		mov	r3, r0
 1162 0012 2370     		strb	r3, [r4]
ARM GAS  C:\Users\TSUBAS~1\AppData\Local\Temp\cczdhWZx.s 			page 36


 834:.\Generated_Source\PSoC4/LED_CONTROL.c **** 
 835:.\Generated_Source\PSoC4/LED_CONTROL.c ****     LED_CONTROL_CONTROL_REG &= (uint32)~LED_CONTROL_RELOAD_PERIOD_MASK;
 1163              		.loc 1 835 0
 1164 0014 0B4B     		ldr	r3, .L69
 1165 0016 0B4A     		ldr	r2, .L69
 1166 0018 1268     		ldr	r2, [r2]
 1167 001a 0221     		mov	r1, #2
 1168 001c 8A43     		bic	r2, r1
 1169 001e 1A60     		str	r2, [r3]
 836:.\Generated_Source\PSoC4/LED_CONTROL.c ****     LED_CONTROL_CONTROL_REG |= ((uint32)((swapEnable & LED_CONTROL_1BIT_MASK) <<
 1170              		.loc 1 836 0
 1171 0020 084B     		ldr	r3, .L69
 1172 0022 084A     		ldr	r2, .L69
 1173 0024 1168     		ldr	r1, [r2]
 1174 0026 7868     		ldr	r0, [r7, #4]
 1175 0028 0122     		mov	r2, #1
 1176 002a 0240     		and	r2, r0
 1177 002c 5200     		lsl	r2, r2, #1
 1178 002e 0A43     		orr	r2, r1
 1179 0030 1A60     		str	r2, [r3]
 837:.\Generated_Source\PSoC4/LED_CONTROL.c ****                                                             LED_CONTROL_RELOAD_PERIOD_SHIFT));
 838:.\Generated_Source\PSoC4/LED_CONTROL.c **** 
 839:.\Generated_Source\PSoC4/LED_CONTROL.c ****     CyExitCriticalSection(enableInterrupts);
 1180              		.loc 1 839 0
 1181 0032 3B1C     		mov	r3, r7
 1182 0034 0F33     		add	r3, r3, #15
 1183 0036 1B78     		ldrb	r3, [r3]
 1184 0038 181C     		mov	r0, r3
 1185 003a FFF7FEFF 		bl	CyExitCriticalSection
 840:.\Generated_Source\PSoC4/LED_CONTROL.c **** }
 1186              		.loc 1 840 0
 1187 003e BD46     		mov	sp, r7
 1188 0040 05B0     		add	sp, sp, #20
 1189              		@ sp needed for prologue
 1190 0042 90BD     		pop	{r4, r7, pc}
 1191              	.L70:
 1192              		.align	2
 1193              	.L69:
 1194 0044 00010540 		.word	1074069760
 1195              		.cfi_endproc
 1196              	.LFE21:
 1197              		.size	LED_CONTROL_SetPeriodSwap, .-LED_CONTROL_SetPeriodSwap
 1198              		.section	.text.LED_CONTROL_WriteCompare,"ax",%progbits
 1199              		.align	2
 1200              		.global	LED_CONTROL_WriteCompare
 1201              		.code	16
 1202              		.thumb_func
 1203              		.type	LED_CONTROL_WriteCompare, %function
 1204              	LED_CONTROL_WriteCompare:
 1205              	.LFB22:
 841:.\Generated_Source\PSoC4/LED_CONTROL.c **** 
 842:.\Generated_Source\PSoC4/LED_CONTROL.c **** 
 843:.\Generated_Source\PSoC4/LED_CONTROL.c **** /*******************************************************************************
 844:.\Generated_Source\PSoC4/LED_CONTROL.c **** * Function Name: LED_CONTROL_WriteCompare
 845:.\Generated_Source\PSoC4/LED_CONTROL.c **** ********************************************************************************
 846:.\Generated_Source\PSoC4/LED_CONTROL.c **** *
 847:.\Generated_Source\PSoC4/LED_CONTROL.c **** * Summary:
ARM GAS  C:\Users\TSUBAS~1\AppData\Local\Temp\cczdhWZx.s 			page 37


 848:.\Generated_Source\PSoC4/LED_CONTROL.c **** *  Writes the 16 bit compare register with the new compare value. Not
 849:.\Generated_Source\PSoC4/LED_CONTROL.c **** *  applicable for Timer/Counter with Capture or in Quadrature Decoder modes.
 850:.\Generated_Source\PSoC4/LED_CONTROL.c **** *
 851:.\Generated_Source\PSoC4/LED_CONTROL.c **** * Parameters:
 852:.\Generated_Source\PSoC4/LED_CONTROL.c **** *  compare: Compare value
 853:.\Generated_Source\PSoC4/LED_CONTROL.c **** *
 854:.\Generated_Source\PSoC4/LED_CONTROL.c **** * Return:
 855:.\Generated_Source\PSoC4/LED_CONTROL.c **** *  None
 856:.\Generated_Source\PSoC4/LED_CONTROL.c **** *
 857:.\Generated_Source\PSoC4/LED_CONTROL.c **** *******************************************************************************/
 858:.\Generated_Source\PSoC4/LED_CONTROL.c **** void LED_CONTROL_WriteCompare(uint32 compare)
 859:.\Generated_Source\PSoC4/LED_CONTROL.c **** {
 1206              		.loc 1 859 0
 1207              		.cfi_startproc
 1208 0000 80B5     		push	{r7, lr}
 1209              	.LCFI61:
 1210              		.cfi_def_cfa_offset 8
 1211              		.cfi_offset 7, -8
 1212              		.cfi_offset 14, -4
 1213 0002 82B0     		sub	sp, sp, #8
 1214              	.LCFI62:
 1215              		.cfi_def_cfa_offset 16
 1216 0004 00AF     		add	r7, sp, #0
 1217              	.LCFI63:
 1218              		.cfi_def_cfa_register 7
 1219 0006 7860     		str	r0, [r7, #4]
 860:.\Generated_Source\PSoC4/LED_CONTROL.c ****     #if (LED_CONTROL_CY_TCPWM_V2)
 861:.\Generated_Source\PSoC4/LED_CONTROL.c ****         uint32 currentMode;
 862:.\Generated_Source\PSoC4/LED_CONTROL.c ****     #endif /* (LED_CONTROL_CY_TCPWM_V2) */
 863:.\Generated_Source\PSoC4/LED_CONTROL.c **** 
 864:.\Generated_Source\PSoC4/LED_CONTROL.c ****     #if (LED_CONTROL_CY_TCPWM_V2)
 865:.\Generated_Source\PSoC4/LED_CONTROL.c ****         currentMode = ((LED_CONTROL_CONTROL_REG & LED_CONTROL_UPDOWN_MASK) >> LED_CONTROL_UPDOWN_SH
 866:.\Generated_Source\PSoC4/LED_CONTROL.c **** 
 867:.\Generated_Source\PSoC4/LED_CONTROL.c ****         if (LED_CONTROL__COUNT_DOWN == currentMode)
 868:.\Generated_Source\PSoC4/LED_CONTROL.c ****         {
 869:.\Generated_Source\PSoC4/LED_CONTROL.c ****             LED_CONTROL_COMP_CAP_REG = ((compare + 1u) & LED_CONTROL_16BIT_MASK);
 870:.\Generated_Source\PSoC4/LED_CONTROL.c ****         }
 871:.\Generated_Source\PSoC4/LED_CONTROL.c ****         else if (LED_CONTROL__COUNT_UP == currentMode)
 872:.\Generated_Source\PSoC4/LED_CONTROL.c ****         {
 873:.\Generated_Source\PSoC4/LED_CONTROL.c ****             LED_CONTROL_COMP_CAP_REG = ((compare - 1u) & LED_CONTROL_16BIT_MASK);
 874:.\Generated_Source\PSoC4/LED_CONTROL.c ****         }
 875:.\Generated_Source\PSoC4/LED_CONTROL.c ****         else
 876:.\Generated_Source\PSoC4/LED_CONTROL.c ****         {
 877:.\Generated_Source\PSoC4/LED_CONTROL.c ****             LED_CONTROL_COMP_CAP_REG = (compare & LED_CONTROL_16BIT_MASK);
 878:.\Generated_Source\PSoC4/LED_CONTROL.c ****         }
 879:.\Generated_Source\PSoC4/LED_CONTROL.c ****     #else
 880:.\Generated_Source\PSoC4/LED_CONTROL.c ****         LED_CONTROL_COMP_CAP_REG = (compare & LED_CONTROL_16BIT_MASK);
 1220              		.loc 1 880 0
 1221 0008 034B     		ldr	r3, .L72
 1222 000a 7A68     		ldr	r2, [r7, #4]
 1223 000c 1204     		lsl	r2, r2, #16
 1224 000e 120C     		lsr	r2, r2, #16
 1225 0010 1A60     		str	r2, [r3]
 881:.\Generated_Source\PSoC4/LED_CONTROL.c ****     #endif /* (LED_CONTROL_CY_TCPWM_V2) */
 882:.\Generated_Source\PSoC4/LED_CONTROL.c **** }
 1226              		.loc 1 882 0
 1227 0012 BD46     		mov	sp, r7
ARM GAS  C:\Users\TSUBAS~1\AppData\Local\Temp\cczdhWZx.s 			page 38


 1228 0014 02B0     		add	sp, sp, #8
 1229              		@ sp needed for prologue
 1230 0016 80BD     		pop	{r7, pc}
 1231              	.L73:
 1232              		.align	2
 1233              	.L72:
 1234 0018 0C010540 		.word	1074069772
 1235              		.cfi_endproc
 1236              	.LFE22:
 1237              		.size	LED_CONTROL_WriteCompare, .-LED_CONTROL_WriteCompare
 1238              		.section	.text.LED_CONTROL_ReadCompare,"ax",%progbits
 1239              		.align	2
 1240              		.global	LED_CONTROL_ReadCompare
 1241              		.code	16
 1242              		.thumb_func
 1243              		.type	LED_CONTROL_ReadCompare, %function
 1244              	LED_CONTROL_ReadCompare:
 1245              	.LFB23:
 883:.\Generated_Source\PSoC4/LED_CONTROL.c **** 
 884:.\Generated_Source\PSoC4/LED_CONTROL.c **** 
 885:.\Generated_Source\PSoC4/LED_CONTROL.c **** /*******************************************************************************
 886:.\Generated_Source\PSoC4/LED_CONTROL.c **** * Function Name: LED_CONTROL_ReadCompare
 887:.\Generated_Source\PSoC4/LED_CONTROL.c **** ********************************************************************************
 888:.\Generated_Source\PSoC4/LED_CONTROL.c **** *
 889:.\Generated_Source\PSoC4/LED_CONTROL.c **** * Summary:
 890:.\Generated_Source\PSoC4/LED_CONTROL.c **** *  Reads the compare register. Not applicable for Timer/Counter with Capture
 891:.\Generated_Source\PSoC4/LED_CONTROL.c **** *  or in Quadrature Decoder modes.
 892:.\Generated_Source\PSoC4/LED_CONTROL.c **** *
 893:.\Generated_Source\PSoC4/LED_CONTROL.c **** * Parameters:
 894:.\Generated_Source\PSoC4/LED_CONTROL.c **** *  None
 895:.\Generated_Source\PSoC4/LED_CONTROL.c **** *
 896:.\Generated_Source\PSoC4/LED_CONTROL.c **** * Return:
 897:.\Generated_Source\PSoC4/LED_CONTROL.c **** *  Compare value
 898:.\Generated_Source\PSoC4/LED_CONTROL.c **** *
 899:.\Generated_Source\PSoC4/LED_CONTROL.c **** *******************************************************************************/
 900:.\Generated_Source\PSoC4/LED_CONTROL.c **** uint32 LED_CONTROL_ReadCompare(void)
 901:.\Generated_Source\PSoC4/LED_CONTROL.c **** {
 1246              		.loc 1 901 0
 1247              		.cfi_startproc
 1248 0000 80B5     		push	{r7, lr}
 1249              	.LCFI64:
 1250              		.cfi_def_cfa_offset 8
 1251              		.cfi_offset 7, -8
 1252              		.cfi_offset 14, -4
 1253 0002 00AF     		add	r7, sp, #0
 1254              	.LCFI65:
 1255              		.cfi_def_cfa_register 7
 902:.\Generated_Source\PSoC4/LED_CONTROL.c ****     #if (LED_CONTROL_CY_TCPWM_V2)
 903:.\Generated_Source\PSoC4/LED_CONTROL.c ****         uint32 currentMode;
 904:.\Generated_Source\PSoC4/LED_CONTROL.c ****         uint32 regVal;
 905:.\Generated_Source\PSoC4/LED_CONTROL.c ****     #endif /* (LED_CONTROL_CY_TCPWM_V2) */
 906:.\Generated_Source\PSoC4/LED_CONTROL.c **** 
 907:.\Generated_Source\PSoC4/LED_CONTROL.c ****     #if (LED_CONTROL_CY_TCPWM_V2)
 908:.\Generated_Source\PSoC4/LED_CONTROL.c ****         currentMode = ((LED_CONTROL_CONTROL_REG & LED_CONTROL_UPDOWN_MASK) >> LED_CONTROL_UPDOWN_SH
 909:.\Generated_Source\PSoC4/LED_CONTROL.c **** 
 910:.\Generated_Source\PSoC4/LED_CONTROL.c ****         if (LED_CONTROL__COUNT_DOWN == currentMode)
 911:.\Generated_Source\PSoC4/LED_CONTROL.c ****         {
ARM GAS  C:\Users\TSUBAS~1\AppData\Local\Temp\cczdhWZx.s 			page 39


 912:.\Generated_Source\PSoC4/LED_CONTROL.c ****             regVal = ((LED_CONTROL_COMP_CAP_REG - 1u) & LED_CONTROL_16BIT_MASK);
 913:.\Generated_Source\PSoC4/LED_CONTROL.c ****         }
 914:.\Generated_Source\PSoC4/LED_CONTROL.c ****         else if (LED_CONTROL__COUNT_UP == currentMode)
 915:.\Generated_Source\PSoC4/LED_CONTROL.c ****         {
 916:.\Generated_Source\PSoC4/LED_CONTROL.c ****             regVal = ((LED_CONTROL_COMP_CAP_REG + 1u) & LED_CONTROL_16BIT_MASK);
 917:.\Generated_Source\PSoC4/LED_CONTROL.c ****         }
 918:.\Generated_Source\PSoC4/LED_CONTROL.c ****         else
 919:.\Generated_Source\PSoC4/LED_CONTROL.c ****         {
 920:.\Generated_Source\PSoC4/LED_CONTROL.c ****             regVal = (LED_CONTROL_COMP_CAP_REG & LED_CONTROL_16BIT_MASK);
 921:.\Generated_Source\PSoC4/LED_CONTROL.c ****         }
 922:.\Generated_Source\PSoC4/LED_CONTROL.c ****         return (regVal);
 923:.\Generated_Source\PSoC4/LED_CONTROL.c ****     #else
 924:.\Generated_Source\PSoC4/LED_CONTROL.c ****         return (LED_CONTROL_COMP_CAP_REG & LED_CONTROL_16BIT_MASK);
 1256              		.loc 1 924 0
 1257 0004 034B     		ldr	r3, .L76
 1258 0006 1B68     		ldr	r3, [r3]
 1259 0008 1B04     		lsl	r3, r3, #16
 1260 000a 1B0C     		lsr	r3, r3, #16
 925:.\Generated_Source\PSoC4/LED_CONTROL.c ****     #endif /* (LED_CONTROL_CY_TCPWM_V2) */
 926:.\Generated_Source\PSoC4/LED_CONTROL.c **** }
 1261              		.loc 1 926 0
 1262 000c 181C     		mov	r0, r3
 1263 000e BD46     		mov	sp, r7
 1264              		@ sp needed for prologue
 1265 0010 80BD     		pop	{r7, pc}
 1266              	.L77:
 1267 0012 C046     		.align	2
 1268              	.L76:
 1269 0014 0C010540 		.word	1074069772
 1270              		.cfi_endproc
 1271              	.LFE23:
 1272              		.size	LED_CONTROL_ReadCompare, .-LED_CONTROL_ReadCompare
 1273              		.section	.text.LED_CONTROL_WriteCompareBuf,"ax",%progbits
 1274              		.align	2
 1275              		.global	LED_CONTROL_WriteCompareBuf
 1276              		.code	16
 1277              		.thumb_func
 1278              		.type	LED_CONTROL_WriteCompareBuf, %function
 1279              	LED_CONTROL_WriteCompareBuf:
 1280              	.LFB24:
 927:.\Generated_Source\PSoC4/LED_CONTROL.c **** 
 928:.\Generated_Source\PSoC4/LED_CONTROL.c **** 
 929:.\Generated_Source\PSoC4/LED_CONTROL.c **** /*******************************************************************************
 930:.\Generated_Source\PSoC4/LED_CONTROL.c **** * Function Name: LED_CONTROL_WriteCompareBuf
 931:.\Generated_Source\PSoC4/LED_CONTROL.c **** ********************************************************************************
 932:.\Generated_Source\PSoC4/LED_CONTROL.c **** *
 933:.\Generated_Source\PSoC4/LED_CONTROL.c **** * Summary:
 934:.\Generated_Source\PSoC4/LED_CONTROL.c **** *  Writes the 16 bit compare buffer register with the new compare value. Not
 935:.\Generated_Source\PSoC4/LED_CONTROL.c **** *  applicable for Timer/Counter with Capture or in Quadrature Decoder modes.
 936:.\Generated_Source\PSoC4/LED_CONTROL.c **** *
 937:.\Generated_Source\PSoC4/LED_CONTROL.c **** * Parameters:
 938:.\Generated_Source\PSoC4/LED_CONTROL.c **** *  compareBuf: Compare value
 939:.\Generated_Source\PSoC4/LED_CONTROL.c **** *
 940:.\Generated_Source\PSoC4/LED_CONTROL.c **** * Return:
 941:.\Generated_Source\PSoC4/LED_CONTROL.c **** *  None
 942:.\Generated_Source\PSoC4/LED_CONTROL.c **** *
 943:.\Generated_Source\PSoC4/LED_CONTROL.c **** *******************************************************************************/
ARM GAS  C:\Users\TSUBAS~1\AppData\Local\Temp\cczdhWZx.s 			page 40


 944:.\Generated_Source\PSoC4/LED_CONTROL.c **** void LED_CONTROL_WriteCompareBuf(uint32 compareBuf)
 945:.\Generated_Source\PSoC4/LED_CONTROL.c **** {
 1281              		.loc 1 945 0
 1282              		.cfi_startproc
 1283 0000 80B5     		push	{r7, lr}
 1284              	.LCFI66:
 1285              		.cfi_def_cfa_offset 8
 1286              		.cfi_offset 7, -8
 1287              		.cfi_offset 14, -4
 1288 0002 82B0     		sub	sp, sp, #8
 1289              	.LCFI67:
 1290              		.cfi_def_cfa_offset 16
 1291 0004 00AF     		add	r7, sp, #0
 1292              	.LCFI68:
 1293              		.cfi_def_cfa_register 7
 1294 0006 7860     		str	r0, [r7, #4]
 946:.\Generated_Source\PSoC4/LED_CONTROL.c ****     #if (LED_CONTROL_CY_TCPWM_V2)
 947:.\Generated_Source\PSoC4/LED_CONTROL.c ****         uint32 currentMode;
 948:.\Generated_Source\PSoC4/LED_CONTROL.c ****     #endif /* (LED_CONTROL_CY_TCPWM_V2) */
 949:.\Generated_Source\PSoC4/LED_CONTROL.c **** 
 950:.\Generated_Source\PSoC4/LED_CONTROL.c ****     #if (LED_CONTROL_CY_TCPWM_V2)
 951:.\Generated_Source\PSoC4/LED_CONTROL.c ****         currentMode = ((LED_CONTROL_CONTROL_REG & LED_CONTROL_UPDOWN_MASK) >> LED_CONTROL_UPDOWN_SH
 952:.\Generated_Source\PSoC4/LED_CONTROL.c **** 
 953:.\Generated_Source\PSoC4/LED_CONTROL.c ****         if (LED_CONTROL__COUNT_DOWN == currentMode)
 954:.\Generated_Source\PSoC4/LED_CONTROL.c ****         {
 955:.\Generated_Source\PSoC4/LED_CONTROL.c ****             LED_CONTROL_COMP_CAP_BUF_REG = ((compareBuf + 1u) & LED_CONTROL_16BIT_MASK);
 956:.\Generated_Source\PSoC4/LED_CONTROL.c ****         }
 957:.\Generated_Source\PSoC4/LED_CONTROL.c ****         else if (LED_CONTROL__COUNT_UP == currentMode)
 958:.\Generated_Source\PSoC4/LED_CONTROL.c ****         {
 959:.\Generated_Source\PSoC4/LED_CONTROL.c ****             LED_CONTROL_COMP_CAP_BUF_REG = ((compareBuf - 1u) & LED_CONTROL_16BIT_MASK);
 960:.\Generated_Source\PSoC4/LED_CONTROL.c ****         }
 961:.\Generated_Source\PSoC4/LED_CONTROL.c ****         else
 962:.\Generated_Source\PSoC4/LED_CONTROL.c ****         {
 963:.\Generated_Source\PSoC4/LED_CONTROL.c ****             LED_CONTROL_COMP_CAP_BUF_REG = (compareBuf & LED_CONTROL_16BIT_MASK);
 964:.\Generated_Source\PSoC4/LED_CONTROL.c ****         }
 965:.\Generated_Source\PSoC4/LED_CONTROL.c ****     #else
 966:.\Generated_Source\PSoC4/LED_CONTROL.c ****         LED_CONTROL_COMP_CAP_BUF_REG = (compareBuf & LED_CONTROL_16BIT_MASK);
 1295              		.loc 1 966 0
 1296 0008 034B     		ldr	r3, .L79
 1297 000a 7A68     		ldr	r2, [r7, #4]
 1298 000c 1204     		lsl	r2, r2, #16
 1299 000e 120C     		lsr	r2, r2, #16
 1300 0010 1A60     		str	r2, [r3]
 967:.\Generated_Source\PSoC4/LED_CONTROL.c ****     #endif /* (LED_CONTROL_CY_TCPWM_V2) */
 968:.\Generated_Source\PSoC4/LED_CONTROL.c **** }
 1301              		.loc 1 968 0
 1302 0012 BD46     		mov	sp, r7
 1303 0014 02B0     		add	sp, sp, #8
 1304              		@ sp needed for prologue
 1305 0016 80BD     		pop	{r7, pc}
 1306              	.L80:
 1307              		.align	2
 1308              	.L79:
 1309 0018 10010540 		.word	1074069776
 1310              		.cfi_endproc
 1311              	.LFE24:
 1312              		.size	LED_CONTROL_WriteCompareBuf, .-LED_CONTROL_WriteCompareBuf
ARM GAS  C:\Users\TSUBAS~1\AppData\Local\Temp\cczdhWZx.s 			page 41


 1313              		.section	.text.LED_CONTROL_ReadCompareBuf,"ax",%progbits
 1314              		.align	2
 1315              		.global	LED_CONTROL_ReadCompareBuf
 1316              		.code	16
 1317              		.thumb_func
 1318              		.type	LED_CONTROL_ReadCompareBuf, %function
 1319              	LED_CONTROL_ReadCompareBuf:
 1320              	.LFB25:
 969:.\Generated_Source\PSoC4/LED_CONTROL.c **** 
 970:.\Generated_Source\PSoC4/LED_CONTROL.c **** 
 971:.\Generated_Source\PSoC4/LED_CONTROL.c **** /*******************************************************************************
 972:.\Generated_Source\PSoC4/LED_CONTROL.c **** * Function Name: LED_CONTROL_ReadCompareBuf
 973:.\Generated_Source\PSoC4/LED_CONTROL.c **** ********************************************************************************
 974:.\Generated_Source\PSoC4/LED_CONTROL.c **** *
 975:.\Generated_Source\PSoC4/LED_CONTROL.c **** * Summary:
 976:.\Generated_Source\PSoC4/LED_CONTROL.c **** *  Reads the compare buffer register. Not applicable for Timer/Counter with
 977:.\Generated_Source\PSoC4/LED_CONTROL.c **** *  Capture or in Quadrature Decoder modes.
 978:.\Generated_Source\PSoC4/LED_CONTROL.c **** *
 979:.\Generated_Source\PSoC4/LED_CONTROL.c **** * Parameters:
 980:.\Generated_Source\PSoC4/LED_CONTROL.c **** *  None
 981:.\Generated_Source\PSoC4/LED_CONTROL.c **** *
 982:.\Generated_Source\PSoC4/LED_CONTROL.c **** * Return:
 983:.\Generated_Source\PSoC4/LED_CONTROL.c **** *  Compare buffer value
 984:.\Generated_Source\PSoC4/LED_CONTROL.c **** *
 985:.\Generated_Source\PSoC4/LED_CONTROL.c **** *******************************************************************************/
 986:.\Generated_Source\PSoC4/LED_CONTROL.c **** uint32 LED_CONTROL_ReadCompareBuf(void)
 987:.\Generated_Source\PSoC4/LED_CONTROL.c **** {
 1321              		.loc 1 987 0
 1322              		.cfi_startproc
 1323 0000 80B5     		push	{r7, lr}
 1324              	.LCFI69:
 1325              		.cfi_def_cfa_offset 8
 1326              		.cfi_offset 7, -8
 1327              		.cfi_offset 14, -4
 1328 0002 00AF     		add	r7, sp, #0
 1329              	.LCFI70:
 1330              		.cfi_def_cfa_register 7
 988:.\Generated_Source\PSoC4/LED_CONTROL.c ****     #if (LED_CONTROL_CY_TCPWM_V2)
 989:.\Generated_Source\PSoC4/LED_CONTROL.c ****         uint32 currentMode;
 990:.\Generated_Source\PSoC4/LED_CONTROL.c ****         uint32 regVal;
 991:.\Generated_Source\PSoC4/LED_CONTROL.c ****     #endif /* (LED_CONTROL_CY_TCPWM_V2) */
 992:.\Generated_Source\PSoC4/LED_CONTROL.c **** 
 993:.\Generated_Source\PSoC4/LED_CONTROL.c ****     #if (LED_CONTROL_CY_TCPWM_V2)
 994:.\Generated_Source\PSoC4/LED_CONTROL.c ****         currentMode = ((LED_CONTROL_CONTROL_REG & LED_CONTROL_UPDOWN_MASK) >> LED_CONTROL_UPDOWN_SH
 995:.\Generated_Source\PSoC4/LED_CONTROL.c **** 
 996:.\Generated_Source\PSoC4/LED_CONTROL.c ****         if (LED_CONTROL__COUNT_DOWN == currentMode)
 997:.\Generated_Source\PSoC4/LED_CONTROL.c ****         {
 998:.\Generated_Source\PSoC4/LED_CONTROL.c ****             regVal = ((LED_CONTROL_COMP_CAP_BUF_REG - 1u) & LED_CONTROL_16BIT_MASK);
 999:.\Generated_Source\PSoC4/LED_CONTROL.c ****         }
1000:.\Generated_Source\PSoC4/LED_CONTROL.c ****         else if (LED_CONTROL__COUNT_UP == currentMode)
1001:.\Generated_Source\PSoC4/LED_CONTROL.c ****         {
1002:.\Generated_Source\PSoC4/LED_CONTROL.c ****             regVal = ((LED_CONTROL_COMP_CAP_BUF_REG + 1u) & LED_CONTROL_16BIT_MASK);
1003:.\Generated_Source\PSoC4/LED_CONTROL.c ****         }
1004:.\Generated_Source\PSoC4/LED_CONTROL.c ****         else
1005:.\Generated_Source\PSoC4/LED_CONTROL.c ****         {
1006:.\Generated_Source\PSoC4/LED_CONTROL.c ****             regVal = (LED_CONTROL_COMP_CAP_BUF_REG & LED_CONTROL_16BIT_MASK);
1007:.\Generated_Source\PSoC4/LED_CONTROL.c ****         }
ARM GAS  C:\Users\TSUBAS~1\AppData\Local\Temp\cczdhWZx.s 			page 42


1008:.\Generated_Source\PSoC4/LED_CONTROL.c ****         return (regVal);
1009:.\Generated_Source\PSoC4/LED_CONTROL.c ****     #else
1010:.\Generated_Source\PSoC4/LED_CONTROL.c ****         return (LED_CONTROL_COMP_CAP_BUF_REG & LED_CONTROL_16BIT_MASK);
 1331              		.loc 1 1010 0
 1332 0004 034B     		ldr	r3, .L83
 1333 0006 1B68     		ldr	r3, [r3]
 1334 0008 1B04     		lsl	r3, r3, #16
 1335 000a 1B0C     		lsr	r3, r3, #16
1011:.\Generated_Source\PSoC4/LED_CONTROL.c ****     #endif /* (LED_CONTROL_CY_TCPWM_V2) */
1012:.\Generated_Source\PSoC4/LED_CONTROL.c **** }
 1336              		.loc 1 1012 0
 1337 000c 181C     		mov	r0, r3
 1338 000e BD46     		mov	sp, r7
 1339              		@ sp needed for prologue
 1340 0010 80BD     		pop	{r7, pc}
 1341              	.L84:
 1342 0012 C046     		.align	2
 1343              	.L83:
 1344 0014 10010540 		.word	1074069776
 1345              		.cfi_endproc
 1346              	.LFE25:
 1347              		.size	LED_CONTROL_ReadCompareBuf, .-LED_CONTROL_ReadCompareBuf
 1348              		.section	.text.LED_CONTROL_ReadCapture,"ax",%progbits
 1349              		.align	2
 1350              		.global	LED_CONTROL_ReadCapture
 1351              		.code	16
 1352              		.thumb_func
 1353              		.type	LED_CONTROL_ReadCapture, %function
 1354              	LED_CONTROL_ReadCapture:
 1355              	.LFB26:
1013:.\Generated_Source\PSoC4/LED_CONTROL.c **** 
1014:.\Generated_Source\PSoC4/LED_CONTROL.c **** 
1015:.\Generated_Source\PSoC4/LED_CONTROL.c **** /*******************************************************************************
1016:.\Generated_Source\PSoC4/LED_CONTROL.c **** * Function Name: LED_CONTROL_ReadCapture
1017:.\Generated_Source\PSoC4/LED_CONTROL.c **** ********************************************************************************
1018:.\Generated_Source\PSoC4/LED_CONTROL.c **** *
1019:.\Generated_Source\PSoC4/LED_CONTROL.c **** * Summary:
1020:.\Generated_Source\PSoC4/LED_CONTROL.c **** *  Reads the captured counter value. This API is applicable only for
1021:.\Generated_Source\PSoC4/LED_CONTROL.c **** *  Timer/Counter with the capture mode and Quadrature Decoder modes.
1022:.\Generated_Source\PSoC4/LED_CONTROL.c **** *
1023:.\Generated_Source\PSoC4/LED_CONTROL.c **** * Parameters:
1024:.\Generated_Source\PSoC4/LED_CONTROL.c **** *  None
1025:.\Generated_Source\PSoC4/LED_CONTROL.c **** *
1026:.\Generated_Source\PSoC4/LED_CONTROL.c **** * Return:
1027:.\Generated_Source\PSoC4/LED_CONTROL.c **** *  Capture value
1028:.\Generated_Source\PSoC4/LED_CONTROL.c **** *
1029:.\Generated_Source\PSoC4/LED_CONTROL.c **** *******************************************************************************/
1030:.\Generated_Source\PSoC4/LED_CONTROL.c **** uint32 LED_CONTROL_ReadCapture(void)
1031:.\Generated_Source\PSoC4/LED_CONTROL.c **** {
 1356              		.loc 1 1031 0
 1357              		.cfi_startproc
 1358 0000 80B5     		push	{r7, lr}
 1359              	.LCFI71:
 1360              		.cfi_def_cfa_offset 8
 1361              		.cfi_offset 7, -8
 1362              		.cfi_offset 14, -4
 1363 0002 00AF     		add	r7, sp, #0
ARM GAS  C:\Users\TSUBAS~1\AppData\Local\Temp\cczdhWZx.s 			page 43


 1364              	.LCFI72:
 1365              		.cfi_def_cfa_register 7
1032:.\Generated_Source\PSoC4/LED_CONTROL.c ****     return (LED_CONTROL_COMP_CAP_REG & LED_CONTROL_16BIT_MASK);
 1366              		.loc 1 1032 0
 1367 0004 034B     		ldr	r3, .L87
 1368 0006 1B68     		ldr	r3, [r3]
 1369 0008 1B04     		lsl	r3, r3, #16
 1370 000a 1B0C     		lsr	r3, r3, #16
1033:.\Generated_Source\PSoC4/LED_CONTROL.c **** }
 1371              		.loc 1 1033 0
 1372 000c 181C     		mov	r0, r3
 1373 000e BD46     		mov	sp, r7
 1374              		@ sp needed for prologue
 1375 0010 80BD     		pop	{r7, pc}
 1376              	.L88:
 1377 0012 C046     		.align	2
 1378              	.L87:
 1379 0014 0C010540 		.word	1074069772
 1380              		.cfi_endproc
 1381              	.LFE26:
 1382              		.size	LED_CONTROL_ReadCapture, .-LED_CONTROL_ReadCapture
 1383              		.section	.text.LED_CONTROL_ReadCaptureBuf,"ax",%progbits
 1384              		.align	2
 1385              		.global	LED_CONTROL_ReadCaptureBuf
 1386              		.code	16
 1387              		.thumb_func
 1388              		.type	LED_CONTROL_ReadCaptureBuf, %function
 1389              	LED_CONTROL_ReadCaptureBuf:
 1390              	.LFB27:
1034:.\Generated_Source\PSoC4/LED_CONTROL.c **** 
1035:.\Generated_Source\PSoC4/LED_CONTROL.c **** 
1036:.\Generated_Source\PSoC4/LED_CONTROL.c **** /*******************************************************************************
1037:.\Generated_Source\PSoC4/LED_CONTROL.c **** * Function Name: LED_CONTROL_ReadCaptureBuf
1038:.\Generated_Source\PSoC4/LED_CONTROL.c **** ********************************************************************************
1039:.\Generated_Source\PSoC4/LED_CONTROL.c **** *
1040:.\Generated_Source\PSoC4/LED_CONTROL.c **** * Summary:
1041:.\Generated_Source\PSoC4/LED_CONTROL.c **** *  Reads the capture buffer register. This API is applicable only for
1042:.\Generated_Source\PSoC4/LED_CONTROL.c **** *  Timer/Counter with the capture mode and Quadrature Decoder modes.
1043:.\Generated_Source\PSoC4/LED_CONTROL.c **** *
1044:.\Generated_Source\PSoC4/LED_CONTROL.c **** * Parameters:
1045:.\Generated_Source\PSoC4/LED_CONTROL.c **** *  None
1046:.\Generated_Source\PSoC4/LED_CONTROL.c **** *
1047:.\Generated_Source\PSoC4/LED_CONTROL.c **** * Return:
1048:.\Generated_Source\PSoC4/LED_CONTROL.c **** *  Capture buffer value
1049:.\Generated_Source\PSoC4/LED_CONTROL.c **** *
1050:.\Generated_Source\PSoC4/LED_CONTROL.c **** *******************************************************************************/
1051:.\Generated_Source\PSoC4/LED_CONTROL.c **** uint32 LED_CONTROL_ReadCaptureBuf(void)
1052:.\Generated_Source\PSoC4/LED_CONTROL.c **** {
 1391              		.loc 1 1052 0
 1392              		.cfi_startproc
 1393 0000 80B5     		push	{r7, lr}
 1394              	.LCFI73:
 1395              		.cfi_def_cfa_offset 8
 1396              		.cfi_offset 7, -8
 1397              		.cfi_offset 14, -4
 1398 0002 00AF     		add	r7, sp, #0
 1399              	.LCFI74:
ARM GAS  C:\Users\TSUBAS~1\AppData\Local\Temp\cczdhWZx.s 			page 44


 1400              		.cfi_def_cfa_register 7
1053:.\Generated_Source\PSoC4/LED_CONTROL.c ****     return (LED_CONTROL_COMP_CAP_BUF_REG & LED_CONTROL_16BIT_MASK);
 1401              		.loc 1 1053 0
 1402 0004 034B     		ldr	r3, .L91
 1403 0006 1B68     		ldr	r3, [r3]
 1404 0008 1B04     		lsl	r3, r3, #16
 1405 000a 1B0C     		lsr	r3, r3, #16
1054:.\Generated_Source\PSoC4/LED_CONTROL.c **** }
 1406              		.loc 1 1054 0
 1407 000c 181C     		mov	r0, r3
 1408 000e BD46     		mov	sp, r7
 1409              		@ sp needed for prologue
 1410 0010 80BD     		pop	{r7, pc}
 1411              	.L92:
 1412 0012 C046     		.align	2
 1413              	.L91:
 1414 0014 10010540 		.word	1074069776
 1415              		.cfi_endproc
 1416              	.LFE27:
 1417              		.size	LED_CONTROL_ReadCaptureBuf, .-LED_CONTROL_ReadCaptureBuf
 1418              		.section	.text.LED_CONTROL_SetCaptureMode,"ax",%progbits
 1419              		.align	2
 1420              		.global	LED_CONTROL_SetCaptureMode
 1421              		.code	16
 1422              		.thumb_func
 1423              		.type	LED_CONTROL_SetCaptureMode, %function
 1424              	LED_CONTROL_SetCaptureMode:
 1425              	.LFB28:
1055:.\Generated_Source\PSoC4/LED_CONTROL.c **** 
1056:.\Generated_Source\PSoC4/LED_CONTROL.c **** 
1057:.\Generated_Source\PSoC4/LED_CONTROL.c **** /*******************************************************************************
1058:.\Generated_Source\PSoC4/LED_CONTROL.c **** * Function Name: LED_CONTROL_SetCaptureMode
1059:.\Generated_Source\PSoC4/LED_CONTROL.c **** ********************************************************************************
1060:.\Generated_Source\PSoC4/LED_CONTROL.c **** *
1061:.\Generated_Source\PSoC4/LED_CONTROL.c **** * Summary:
1062:.\Generated_Source\PSoC4/LED_CONTROL.c **** *  Sets the capture trigger mode. For PWM mode this is the switch input.
1063:.\Generated_Source\PSoC4/LED_CONTROL.c **** *  This input is not applicable to the Timer/Counter without Capture and
1064:.\Generated_Source\PSoC4/LED_CONTROL.c **** *  Quadrature Decoder modes.
1065:.\Generated_Source\PSoC4/LED_CONTROL.c **** *
1066:.\Generated_Source\PSoC4/LED_CONTROL.c **** * Parameters:
1067:.\Generated_Source\PSoC4/LED_CONTROL.c **** *  triggerMode: Enumerated trigger mode value
1068:.\Generated_Source\PSoC4/LED_CONTROL.c **** *   Values:
1069:.\Generated_Source\PSoC4/LED_CONTROL.c **** *     - LED_CONTROL_TRIG_LEVEL     - Level
1070:.\Generated_Source\PSoC4/LED_CONTROL.c **** *     - LED_CONTROL_TRIG_RISING    - Rising edge
1071:.\Generated_Source\PSoC4/LED_CONTROL.c **** *     - LED_CONTROL_TRIG_FALLING   - Falling edge
1072:.\Generated_Source\PSoC4/LED_CONTROL.c **** *     - LED_CONTROL_TRIG_BOTH      - Both rising and falling edge
1073:.\Generated_Source\PSoC4/LED_CONTROL.c **** *
1074:.\Generated_Source\PSoC4/LED_CONTROL.c **** * Return:
1075:.\Generated_Source\PSoC4/LED_CONTROL.c **** *  None
1076:.\Generated_Source\PSoC4/LED_CONTROL.c **** *
1077:.\Generated_Source\PSoC4/LED_CONTROL.c **** *******************************************************************************/
1078:.\Generated_Source\PSoC4/LED_CONTROL.c **** void LED_CONTROL_SetCaptureMode(uint32 triggerMode)
1079:.\Generated_Source\PSoC4/LED_CONTROL.c **** {
 1426              		.loc 1 1079 0
 1427              		.cfi_startproc
 1428 0000 90B5     		push	{r4, r7, lr}
 1429              	.LCFI75:
ARM GAS  C:\Users\TSUBAS~1\AppData\Local\Temp\cczdhWZx.s 			page 45


 1430              		.cfi_def_cfa_offset 12
 1431              		.cfi_offset 4, -12
 1432              		.cfi_offset 7, -8
 1433              		.cfi_offset 14, -4
 1434 0002 85B0     		sub	sp, sp, #20
 1435              	.LCFI76:
 1436              		.cfi_def_cfa_offset 32
 1437 0004 00AF     		add	r7, sp, #0
 1438              	.LCFI77:
 1439              		.cfi_def_cfa_register 7
 1440 0006 7860     		str	r0, [r7, #4]
1080:.\Generated_Source\PSoC4/LED_CONTROL.c ****     uint8 enableInterrupts;
1081:.\Generated_Source\PSoC4/LED_CONTROL.c **** 
1082:.\Generated_Source\PSoC4/LED_CONTROL.c ****     enableInterrupts = CyEnterCriticalSection();
 1441              		.loc 1 1082 0
 1442 0008 3C1C     		mov	r4, r7
 1443 000a 0F34     		add	r4, r4, #15
 1444 000c FFF7FEFF 		bl	CyEnterCriticalSection
 1445 0010 031C     		mov	r3, r0
 1446 0012 2370     		strb	r3, [r4]
1083:.\Generated_Source\PSoC4/LED_CONTROL.c **** 
1084:.\Generated_Source\PSoC4/LED_CONTROL.c ****     LED_CONTROL_TRIG_CONTROL1_REG &= (uint32)~LED_CONTROL_CAPTURE_MASK;
 1447              		.loc 1 1084 0
 1448 0014 0A4B     		ldr	r3, .L94
 1449 0016 0A4A     		ldr	r2, .L94
 1450 0018 1268     		ldr	r2, [r2]
 1451 001a 0321     		mov	r1, #3
 1452 001c 8A43     		bic	r2, r1
 1453 001e 1A60     		str	r2, [r3]
1085:.\Generated_Source\PSoC4/LED_CONTROL.c ****     LED_CONTROL_TRIG_CONTROL1_REG |= triggerMode;
 1454              		.loc 1 1085 0
 1455 0020 074B     		ldr	r3, .L94
 1456 0022 074A     		ldr	r2, .L94
 1457 0024 1168     		ldr	r1, [r2]
 1458 0026 7A68     		ldr	r2, [r7, #4]
 1459 0028 0A43     		orr	r2, r1
 1460 002a 1A60     		str	r2, [r3]
1086:.\Generated_Source\PSoC4/LED_CONTROL.c **** 
1087:.\Generated_Source\PSoC4/LED_CONTROL.c ****     CyExitCriticalSection(enableInterrupts);
 1461              		.loc 1 1087 0
 1462 002c 3B1C     		mov	r3, r7
 1463 002e 0F33     		add	r3, r3, #15
 1464 0030 1B78     		ldrb	r3, [r3]
 1465 0032 181C     		mov	r0, r3
 1466 0034 FFF7FEFF 		bl	CyExitCriticalSection
1088:.\Generated_Source\PSoC4/LED_CONTROL.c **** }
 1467              		.loc 1 1088 0
 1468 0038 BD46     		mov	sp, r7
 1469 003a 05B0     		add	sp, sp, #20
 1470              		@ sp needed for prologue
 1471 003c 90BD     		pop	{r4, r7, pc}
 1472              	.L95:
 1473 003e C046     		.align	2
 1474              	.L94:
 1475 0040 24010540 		.word	1074069796
 1476              		.cfi_endproc
 1477              	.LFE28:
ARM GAS  C:\Users\TSUBAS~1\AppData\Local\Temp\cczdhWZx.s 			page 46


 1478              		.size	LED_CONTROL_SetCaptureMode, .-LED_CONTROL_SetCaptureMode
 1479              		.section	.text.LED_CONTROL_SetReloadMode,"ax",%progbits
 1480              		.align	2
 1481              		.global	LED_CONTROL_SetReloadMode
 1482              		.code	16
 1483              		.thumb_func
 1484              		.type	LED_CONTROL_SetReloadMode, %function
 1485              	LED_CONTROL_SetReloadMode:
 1486              	.LFB29:
1089:.\Generated_Source\PSoC4/LED_CONTROL.c **** 
1090:.\Generated_Source\PSoC4/LED_CONTROL.c **** 
1091:.\Generated_Source\PSoC4/LED_CONTROL.c **** /*******************************************************************************
1092:.\Generated_Source\PSoC4/LED_CONTROL.c **** * Function Name: LED_CONTROL_SetReloadMode
1093:.\Generated_Source\PSoC4/LED_CONTROL.c **** ********************************************************************************
1094:.\Generated_Source\PSoC4/LED_CONTROL.c **** *
1095:.\Generated_Source\PSoC4/LED_CONTROL.c **** * Summary:
1096:.\Generated_Source\PSoC4/LED_CONTROL.c **** *  Sets the reload trigger mode. For Quadrature Decoder mode this is the index
1097:.\Generated_Source\PSoC4/LED_CONTROL.c **** *  input.
1098:.\Generated_Source\PSoC4/LED_CONTROL.c **** *
1099:.\Generated_Source\PSoC4/LED_CONTROL.c **** * Parameters:
1100:.\Generated_Source\PSoC4/LED_CONTROL.c **** *  triggerMode: Enumerated trigger mode value
1101:.\Generated_Source\PSoC4/LED_CONTROL.c **** *   Values:
1102:.\Generated_Source\PSoC4/LED_CONTROL.c **** *     - LED_CONTROL_TRIG_LEVEL     - Level
1103:.\Generated_Source\PSoC4/LED_CONTROL.c **** *     - LED_CONTROL_TRIG_RISING    - Rising edge
1104:.\Generated_Source\PSoC4/LED_CONTROL.c **** *     - LED_CONTROL_TRIG_FALLING   - Falling edge
1105:.\Generated_Source\PSoC4/LED_CONTROL.c **** *     - LED_CONTROL_TRIG_BOTH      - Both rising and falling edge
1106:.\Generated_Source\PSoC4/LED_CONTROL.c **** *
1107:.\Generated_Source\PSoC4/LED_CONTROL.c **** * Return:
1108:.\Generated_Source\PSoC4/LED_CONTROL.c **** *  None
1109:.\Generated_Source\PSoC4/LED_CONTROL.c **** *
1110:.\Generated_Source\PSoC4/LED_CONTROL.c **** *******************************************************************************/
1111:.\Generated_Source\PSoC4/LED_CONTROL.c **** void LED_CONTROL_SetReloadMode(uint32 triggerMode)
1112:.\Generated_Source\PSoC4/LED_CONTROL.c **** {
 1487              		.loc 1 1112 0
 1488              		.cfi_startproc
 1489 0000 90B5     		push	{r4, r7, lr}
 1490              	.LCFI78:
 1491              		.cfi_def_cfa_offset 12
 1492              		.cfi_offset 4, -12
 1493              		.cfi_offset 7, -8
 1494              		.cfi_offset 14, -4
 1495 0002 85B0     		sub	sp, sp, #20
 1496              	.LCFI79:
 1497              		.cfi_def_cfa_offset 32
 1498 0004 00AF     		add	r7, sp, #0
 1499              	.LCFI80:
 1500              		.cfi_def_cfa_register 7
 1501 0006 7860     		str	r0, [r7, #4]
1113:.\Generated_Source\PSoC4/LED_CONTROL.c ****     uint8 enableInterrupts;
1114:.\Generated_Source\PSoC4/LED_CONTROL.c **** 
1115:.\Generated_Source\PSoC4/LED_CONTROL.c ****     enableInterrupts = CyEnterCriticalSection();
 1502              		.loc 1 1115 0
 1503 0008 3C1C     		mov	r4, r7
 1504 000a 0F34     		add	r4, r4, #15
 1505 000c FFF7FEFF 		bl	CyEnterCriticalSection
 1506 0010 031C     		mov	r3, r0
 1507 0012 2370     		strb	r3, [r4]
ARM GAS  C:\Users\TSUBAS~1\AppData\Local\Temp\cczdhWZx.s 			page 47


1116:.\Generated_Source\PSoC4/LED_CONTROL.c **** 
1117:.\Generated_Source\PSoC4/LED_CONTROL.c ****     LED_CONTROL_TRIG_CONTROL1_REG &= (uint32)~LED_CONTROL_RELOAD_MASK;
 1508              		.loc 1 1117 0
 1509 0014 0A4B     		ldr	r3, .L97
 1510 0016 0A4A     		ldr	r2, .L97
 1511 0018 1268     		ldr	r2, [r2]
 1512 001a 3021     		mov	r1, #48
 1513 001c 8A43     		bic	r2, r1
 1514 001e 1A60     		str	r2, [r3]
1118:.\Generated_Source\PSoC4/LED_CONTROL.c ****     LED_CONTROL_TRIG_CONTROL1_REG |= ((uint32)(triggerMode << LED_CONTROL_RELOAD_SHIFT));
 1515              		.loc 1 1118 0
 1516 0020 074B     		ldr	r3, .L97
 1517 0022 074A     		ldr	r2, .L97
 1518 0024 1168     		ldr	r1, [r2]
 1519 0026 7A68     		ldr	r2, [r7, #4]
 1520 0028 1201     		lsl	r2, r2, #4
 1521 002a 0A43     		orr	r2, r1
 1522 002c 1A60     		str	r2, [r3]
1119:.\Generated_Source\PSoC4/LED_CONTROL.c **** 
1120:.\Generated_Source\PSoC4/LED_CONTROL.c ****     CyExitCriticalSection(enableInterrupts);
 1523              		.loc 1 1120 0
 1524 002e 3B1C     		mov	r3, r7
 1525 0030 0F33     		add	r3, r3, #15
 1526 0032 1B78     		ldrb	r3, [r3]
 1527 0034 181C     		mov	r0, r3
 1528 0036 FFF7FEFF 		bl	CyExitCriticalSection
1121:.\Generated_Source\PSoC4/LED_CONTROL.c **** }
 1529              		.loc 1 1121 0
 1530 003a BD46     		mov	sp, r7
 1531 003c 05B0     		add	sp, sp, #20
 1532              		@ sp needed for prologue
 1533 003e 90BD     		pop	{r4, r7, pc}
 1534              	.L98:
 1535              		.align	2
 1536              	.L97:
 1537 0040 24010540 		.word	1074069796
 1538              		.cfi_endproc
 1539              	.LFE29:
 1540              		.size	LED_CONTROL_SetReloadMode, .-LED_CONTROL_SetReloadMode
 1541              		.section	.text.LED_CONTROL_SetStartMode,"ax",%progbits
 1542              		.align	2
 1543              		.global	LED_CONTROL_SetStartMode
 1544              		.code	16
 1545              		.thumb_func
 1546              		.type	LED_CONTROL_SetStartMode, %function
 1547              	LED_CONTROL_SetStartMode:
 1548              	.LFB30:
1122:.\Generated_Source\PSoC4/LED_CONTROL.c **** 
1123:.\Generated_Source\PSoC4/LED_CONTROL.c **** 
1124:.\Generated_Source\PSoC4/LED_CONTROL.c **** /*******************************************************************************
1125:.\Generated_Source\PSoC4/LED_CONTROL.c **** * Function Name: LED_CONTROL_SetStartMode
1126:.\Generated_Source\PSoC4/LED_CONTROL.c **** ********************************************************************************
1127:.\Generated_Source\PSoC4/LED_CONTROL.c **** *
1128:.\Generated_Source\PSoC4/LED_CONTROL.c **** * Summary:
1129:.\Generated_Source\PSoC4/LED_CONTROL.c **** *  Sets the start trigger mode. For Quadrature Decoder mode this is the
1130:.\Generated_Source\PSoC4/LED_CONTROL.c **** *  phiB input.
1131:.\Generated_Source\PSoC4/LED_CONTROL.c **** *
ARM GAS  C:\Users\TSUBAS~1\AppData\Local\Temp\cczdhWZx.s 			page 48


1132:.\Generated_Source\PSoC4/LED_CONTROL.c **** * Parameters:
1133:.\Generated_Source\PSoC4/LED_CONTROL.c **** *  triggerMode: Enumerated trigger mode value
1134:.\Generated_Source\PSoC4/LED_CONTROL.c **** *   Values:
1135:.\Generated_Source\PSoC4/LED_CONTROL.c **** *     - LED_CONTROL_TRIG_LEVEL     - Level
1136:.\Generated_Source\PSoC4/LED_CONTROL.c **** *     - LED_CONTROL_TRIG_RISING    - Rising edge
1137:.\Generated_Source\PSoC4/LED_CONTROL.c **** *     - LED_CONTROL_TRIG_FALLING   - Falling edge
1138:.\Generated_Source\PSoC4/LED_CONTROL.c **** *     - LED_CONTROL_TRIG_BOTH      - Both rising and falling edge
1139:.\Generated_Source\PSoC4/LED_CONTROL.c **** *
1140:.\Generated_Source\PSoC4/LED_CONTROL.c **** * Return:
1141:.\Generated_Source\PSoC4/LED_CONTROL.c **** *  None
1142:.\Generated_Source\PSoC4/LED_CONTROL.c **** *
1143:.\Generated_Source\PSoC4/LED_CONTROL.c **** *******************************************************************************/
1144:.\Generated_Source\PSoC4/LED_CONTROL.c **** void LED_CONTROL_SetStartMode(uint32 triggerMode)
1145:.\Generated_Source\PSoC4/LED_CONTROL.c **** {
 1549              		.loc 1 1145 0
 1550              		.cfi_startproc
 1551 0000 90B5     		push	{r4, r7, lr}
 1552              	.LCFI81:
 1553              		.cfi_def_cfa_offset 12
 1554              		.cfi_offset 4, -12
 1555              		.cfi_offset 7, -8
 1556              		.cfi_offset 14, -4
 1557 0002 85B0     		sub	sp, sp, #20
 1558              	.LCFI82:
 1559              		.cfi_def_cfa_offset 32
 1560 0004 00AF     		add	r7, sp, #0
 1561              	.LCFI83:
 1562              		.cfi_def_cfa_register 7
 1563 0006 7860     		str	r0, [r7, #4]
1146:.\Generated_Source\PSoC4/LED_CONTROL.c ****     uint8 enableInterrupts;
1147:.\Generated_Source\PSoC4/LED_CONTROL.c **** 
1148:.\Generated_Source\PSoC4/LED_CONTROL.c ****     enableInterrupts = CyEnterCriticalSection();
 1564              		.loc 1 1148 0
 1565 0008 3C1C     		mov	r4, r7
 1566 000a 0F34     		add	r4, r4, #15
 1567 000c FFF7FEFF 		bl	CyEnterCriticalSection
 1568 0010 031C     		mov	r3, r0
 1569 0012 2370     		strb	r3, [r4]
1149:.\Generated_Source\PSoC4/LED_CONTROL.c **** 
1150:.\Generated_Source\PSoC4/LED_CONTROL.c ****     LED_CONTROL_TRIG_CONTROL1_REG &= (uint32)~LED_CONTROL_START_MASK;
 1570              		.loc 1 1150 0
 1571 0014 0A4B     		ldr	r3, .L100
 1572 0016 0A4A     		ldr	r2, .L100
 1573 0018 1168     		ldr	r1, [r2]
 1574 001a 0A4A     		ldr	r2, .L100+4
 1575 001c 0A40     		and	r2, r1
 1576 001e 1A60     		str	r2, [r3]
1151:.\Generated_Source\PSoC4/LED_CONTROL.c ****     LED_CONTROL_TRIG_CONTROL1_REG |= ((uint32)(triggerMode << LED_CONTROL_START_SHIFT));
 1577              		.loc 1 1151 0
 1578 0020 074B     		ldr	r3, .L100
 1579 0022 074A     		ldr	r2, .L100
 1580 0024 1168     		ldr	r1, [r2]
 1581 0026 7A68     		ldr	r2, [r7, #4]
 1582 0028 1202     		lsl	r2, r2, #8
 1583 002a 0A43     		orr	r2, r1
 1584 002c 1A60     		str	r2, [r3]
1152:.\Generated_Source\PSoC4/LED_CONTROL.c **** 
ARM GAS  C:\Users\TSUBAS~1\AppData\Local\Temp\cczdhWZx.s 			page 49


1153:.\Generated_Source\PSoC4/LED_CONTROL.c ****     CyExitCriticalSection(enableInterrupts);
 1585              		.loc 1 1153 0
 1586 002e 3B1C     		mov	r3, r7
 1587 0030 0F33     		add	r3, r3, #15
 1588 0032 1B78     		ldrb	r3, [r3]
 1589 0034 181C     		mov	r0, r3
 1590 0036 FFF7FEFF 		bl	CyExitCriticalSection
1154:.\Generated_Source\PSoC4/LED_CONTROL.c **** }
 1591              		.loc 1 1154 0
 1592 003a BD46     		mov	sp, r7
 1593 003c 05B0     		add	sp, sp, #20
 1594              		@ sp needed for prologue
 1595 003e 90BD     		pop	{r4, r7, pc}
 1596              	.L101:
 1597              		.align	2
 1598              	.L100:
 1599 0040 24010540 		.word	1074069796
 1600 0044 FFFCFFFF 		.word	-769
 1601              		.cfi_endproc
 1602              	.LFE30:
 1603              		.size	LED_CONTROL_SetStartMode, .-LED_CONTROL_SetStartMode
 1604              		.section	.text.LED_CONTROL_SetStopMode,"ax",%progbits
 1605              		.align	2
 1606              		.global	LED_CONTROL_SetStopMode
 1607              		.code	16
 1608              		.thumb_func
 1609              		.type	LED_CONTROL_SetStopMode, %function
 1610              	LED_CONTROL_SetStopMode:
 1611              	.LFB31:
1155:.\Generated_Source\PSoC4/LED_CONTROL.c **** 
1156:.\Generated_Source\PSoC4/LED_CONTROL.c **** 
1157:.\Generated_Source\PSoC4/LED_CONTROL.c **** /*******************************************************************************
1158:.\Generated_Source\PSoC4/LED_CONTROL.c **** * Function Name: LED_CONTROL_SetStopMode
1159:.\Generated_Source\PSoC4/LED_CONTROL.c **** ********************************************************************************
1160:.\Generated_Source\PSoC4/LED_CONTROL.c **** *
1161:.\Generated_Source\PSoC4/LED_CONTROL.c **** * Summary:
1162:.\Generated_Source\PSoC4/LED_CONTROL.c **** *  Sets the stop trigger mode. For PWM mode this is the kill input.
1163:.\Generated_Source\PSoC4/LED_CONTROL.c **** *
1164:.\Generated_Source\PSoC4/LED_CONTROL.c **** * Parameters:
1165:.\Generated_Source\PSoC4/LED_CONTROL.c **** *  triggerMode: Enumerated trigger mode value
1166:.\Generated_Source\PSoC4/LED_CONTROL.c **** *   Values:
1167:.\Generated_Source\PSoC4/LED_CONTROL.c **** *     - LED_CONTROL_TRIG_LEVEL     - Level
1168:.\Generated_Source\PSoC4/LED_CONTROL.c **** *     - LED_CONTROL_TRIG_RISING    - Rising edge
1169:.\Generated_Source\PSoC4/LED_CONTROL.c **** *     - LED_CONTROL_TRIG_FALLING   - Falling edge
1170:.\Generated_Source\PSoC4/LED_CONTROL.c **** *     - LED_CONTROL_TRIG_BOTH      - Both rising and falling edge
1171:.\Generated_Source\PSoC4/LED_CONTROL.c **** *
1172:.\Generated_Source\PSoC4/LED_CONTROL.c **** * Return:
1173:.\Generated_Source\PSoC4/LED_CONTROL.c **** *  None
1174:.\Generated_Source\PSoC4/LED_CONTROL.c **** *
1175:.\Generated_Source\PSoC4/LED_CONTROL.c **** *******************************************************************************/
1176:.\Generated_Source\PSoC4/LED_CONTROL.c **** void LED_CONTROL_SetStopMode(uint32 triggerMode)
1177:.\Generated_Source\PSoC4/LED_CONTROL.c **** {
 1612              		.loc 1 1177 0
 1613              		.cfi_startproc
 1614 0000 90B5     		push	{r4, r7, lr}
 1615              	.LCFI84:
 1616              		.cfi_def_cfa_offset 12
ARM GAS  C:\Users\TSUBAS~1\AppData\Local\Temp\cczdhWZx.s 			page 50


 1617              		.cfi_offset 4, -12
 1618              		.cfi_offset 7, -8
 1619              		.cfi_offset 14, -4
 1620 0002 85B0     		sub	sp, sp, #20
 1621              	.LCFI85:
 1622              		.cfi_def_cfa_offset 32
 1623 0004 00AF     		add	r7, sp, #0
 1624              	.LCFI86:
 1625              		.cfi_def_cfa_register 7
 1626 0006 7860     		str	r0, [r7, #4]
1178:.\Generated_Source\PSoC4/LED_CONTROL.c ****     uint8 enableInterrupts;
1179:.\Generated_Source\PSoC4/LED_CONTROL.c **** 
1180:.\Generated_Source\PSoC4/LED_CONTROL.c ****     enableInterrupts = CyEnterCriticalSection();
 1627              		.loc 1 1180 0
 1628 0008 3C1C     		mov	r4, r7
 1629 000a 0F34     		add	r4, r4, #15
 1630 000c FFF7FEFF 		bl	CyEnterCriticalSection
 1631 0010 031C     		mov	r3, r0
 1632 0012 2370     		strb	r3, [r4]
1181:.\Generated_Source\PSoC4/LED_CONTROL.c **** 
1182:.\Generated_Source\PSoC4/LED_CONTROL.c ****     LED_CONTROL_TRIG_CONTROL1_REG &= (uint32)~LED_CONTROL_STOP_MASK;
 1633              		.loc 1 1182 0
 1634 0014 0A4B     		ldr	r3, .L103
 1635 0016 0A4A     		ldr	r2, .L103
 1636 0018 1268     		ldr	r2, [r2]
 1637 001a C021     		mov	r1, #192
 1638 001c 8A43     		bic	r2, r1
 1639 001e 1A60     		str	r2, [r3]
1183:.\Generated_Source\PSoC4/LED_CONTROL.c ****     LED_CONTROL_TRIG_CONTROL1_REG |= ((uint32)(triggerMode << LED_CONTROL_STOP_SHIFT));
 1640              		.loc 1 1183 0
 1641 0020 074B     		ldr	r3, .L103
 1642 0022 074A     		ldr	r2, .L103
 1643 0024 1168     		ldr	r1, [r2]
 1644 0026 7A68     		ldr	r2, [r7, #4]
 1645 0028 9201     		lsl	r2, r2, #6
 1646 002a 0A43     		orr	r2, r1
 1647 002c 1A60     		str	r2, [r3]
1184:.\Generated_Source\PSoC4/LED_CONTROL.c **** 
1185:.\Generated_Source\PSoC4/LED_CONTROL.c ****     CyExitCriticalSection(enableInterrupts);
 1648              		.loc 1 1185 0
 1649 002e 3B1C     		mov	r3, r7
 1650 0030 0F33     		add	r3, r3, #15
 1651 0032 1B78     		ldrb	r3, [r3]
 1652 0034 181C     		mov	r0, r3
 1653 0036 FFF7FEFF 		bl	CyExitCriticalSection
1186:.\Generated_Source\PSoC4/LED_CONTROL.c **** }
 1654              		.loc 1 1186 0
 1655 003a BD46     		mov	sp, r7
 1656 003c 05B0     		add	sp, sp, #20
 1657              		@ sp needed for prologue
 1658 003e 90BD     		pop	{r4, r7, pc}
 1659              	.L104:
 1660              		.align	2
 1661              	.L103:
 1662 0040 24010540 		.word	1074069796
 1663              		.cfi_endproc
 1664              	.LFE31:
ARM GAS  C:\Users\TSUBAS~1\AppData\Local\Temp\cczdhWZx.s 			page 51


 1665              		.size	LED_CONTROL_SetStopMode, .-LED_CONTROL_SetStopMode
 1666              		.section	.text.LED_CONTROL_SetCountMode,"ax",%progbits
 1667              		.align	2
 1668              		.global	LED_CONTROL_SetCountMode
 1669              		.code	16
 1670              		.thumb_func
 1671              		.type	LED_CONTROL_SetCountMode, %function
 1672              	LED_CONTROL_SetCountMode:
 1673              	.LFB32:
1187:.\Generated_Source\PSoC4/LED_CONTROL.c **** 
1188:.\Generated_Source\PSoC4/LED_CONTROL.c **** 
1189:.\Generated_Source\PSoC4/LED_CONTROL.c **** /*******************************************************************************
1190:.\Generated_Source\PSoC4/LED_CONTROL.c **** * Function Name: LED_CONTROL_SetCountMode
1191:.\Generated_Source\PSoC4/LED_CONTROL.c **** ********************************************************************************
1192:.\Generated_Source\PSoC4/LED_CONTROL.c **** *
1193:.\Generated_Source\PSoC4/LED_CONTROL.c **** * Summary:
1194:.\Generated_Source\PSoC4/LED_CONTROL.c **** *  Sets the count trigger mode. For Quadrature Decoder mode this is the phiA
1195:.\Generated_Source\PSoC4/LED_CONTROL.c **** *  input.
1196:.\Generated_Source\PSoC4/LED_CONTROL.c **** *
1197:.\Generated_Source\PSoC4/LED_CONTROL.c **** * Parameters:
1198:.\Generated_Source\PSoC4/LED_CONTROL.c **** *  triggerMode: Enumerated trigger mode value
1199:.\Generated_Source\PSoC4/LED_CONTROL.c **** *   Values:
1200:.\Generated_Source\PSoC4/LED_CONTROL.c **** *     - LED_CONTROL_TRIG_LEVEL     - Level
1201:.\Generated_Source\PSoC4/LED_CONTROL.c **** *     - LED_CONTROL_TRIG_RISING    - Rising edge
1202:.\Generated_Source\PSoC4/LED_CONTROL.c **** *     - LED_CONTROL_TRIG_FALLING   - Falling edge
1203:.\Generated_Source\PSoC4/LED_CONTROL.c **** *     - LED_CONTROL_TRIG_BOTH      - Both rising and falling edge
1204:.\Generated_Source\PSoC4/LED_CONTROL.c **** *
1205:.\Generated_Source\PSoC4/LED_CONTROL.c **** * Return:
1206:.\Generated_Source\PSoC4/LED_CONTROL.c **** *  None
1207:.\Generated_Source\PSoC4/LED_CONTROL.c **** *
1208:.\Generated_Source\PSoC4/LED_CONTROL.c **** *******************************************************************************/
1209:.\Generated_Source\PSoC4/LED_CONTROL.c **** void LED_CONTROL_SetCountMode(uint32 triggerMode)
1210:.\Generated_Source\PSoC4/LED_CONTROL.c **** {
 1674              		.loc 1 1210 0
 1675              		.cfi_startproc
 1676 0000 90B5     		push	{r4, r7, lr}
 1677              	.LCFI87:
 1678              		.cfi_def_cfa_offset 12
 1679              		.cfi_offset 4, -12
 1680              		.cfi_offset 7, -8
 1681              		.cfi_offset 14, -4
 1682 0002 85B0     		sub	sp, sp, #20
 1683              	.LCFI88:
 1684              		.cfi_def_cfa_offset 32
 1685 0004 00AF     		add	r7, sp, #0
 1686              	.LCFI89:
 1687              		.cfi_def_cfa_register 7
 1688 0006 7860     		str	r0, [r7, #4]
1211:.\Generated_Source\PSoC4/LED_CONTROL.c ****     uint8 enableInterrupts;
1212:.\Generated_Source\PSoC4/LED_CONTROL.c **** 
1213:.\Generated_Source\PSoC4/LED_CONTROL.c ****     enableInterrupts = CyEnterCriticalSection();
 1689              		.loc 1 1213 0
 1690 0008 3C1C     		mov	r4, r7
 1691 000a 0F34     		add	r4, r4, #15
 1692 000c FFF7FEFF 		bl	CyEnterCriticalSection
 1693 0010 031C     		mov	r3, r0
 1694 0012 2370     		strb	r3, [r4]
ARM GAS  C:\Users\TSUBAS~1\AppData\Local\Temp\cczdhWZx.s 			page 52


1214:.\Generated_Source\PSoC4/LED_CONTROL.c **** 
1215:.\Generated_Source\PSoC4/LED_CONTROL.c ****     LED_CONTROL_TRIG_CONTROL1_REG &= (uint32)~LED_CONTROL_COUNT_MASK;
 1695              		.loc 1 1215 0
 1696 0014 0A4B     		ldr	r3, .L106
 1697 0016 0A4A     		ldr	r2, .L106
 1698 0018 1268     		ldr	r2, [r2]
 1699 001a 0C21     		mov	r1, #12
 1700 001c 8A43     		bic	r2, r1
 1701 001e 1A60     		str	r2, [r3]
1216:.\Generated_Source\PSoC4/LED_CONTROL.c ****     LED_CONTROL_TRIG_CONTROL1_REG |= ((uint32)(triggerMode << LED_CONTROL_COUNT_SHIFT));
 1702              		.loc 1 1216 0
 1703 0020 074B     		ldr	r3, .L106
 1704 0022 074A     		ldr	r2, .L106
 1705 0024 1168     		ldr	r1, [r2]
 1706 0026 7A68     		ldr	r2, [r7, #4]
 1707 0028 9200     		lsl	r2, r2, #2
 1708 002a 0A43     		orr	r2, r1
 1709 002c 1A60     		str	r2, [r3]
1217:.\Generated_Source\PSoC4/LED_CONTROL.c **** 
1218:.\Generated_Source\PSoC4/LED_CONTROL.c ****     CyExitCriticalSection(enableInterrupts);
 1710              		.loc 1 1218 0
 1711 002e 3B1C     		mov	r3, r7
 1712 0030 0F33     		add	r3, r3, #15
 1713 0032 1B78     		ldrb	r3, [r3]
 1714 0034 181C     		mov	r0, r3
 1715 0036 FFF7FEFF 		bl	CyExitCriticalSection
1219:.\Generated_Source\PSoC4/LED_CONTROL.c **** }
 1716              		.loc 1 1219 0
 1717 003a BD46     		mov	sp, r7
 1718 003c 05B0     		add	sp, sp, #20
 1719              		@ sp needed for prologue
 1720 003e 90BD     		pop	{r4, r7, pc}
 1721              	.L107:
 1722              		.align	2
 1723              	.L106:
 1724 0040 24010540 		.word	1074069796
 1725              		.cfi_endproc
 1726              	.LFE32:
 1727              		.size	LED_CONTROL_SetCountMode, .-LED_CONTROL_SetCountMode
 1728              		.section	.text.LED_CONTROL_TriggerCommand,"ax",%progbits
 1729              		.align	2
 1730              		.global	LED_CONTROL_TriggerCommand
 1731              		.code	16
 1732              		.thumb_func
 1733              		.type	LED_CONTROL_TriggerCommand, %function
 1734              	LED_CONTROL_TriggerCommand:
 1735              	.LFB33:
1220:.\Generated_Source\PSoC4/LED_CONTROL.c **** 
1221:.\Generated_Source\PSoC4/LED_CONTROL.c **** 
1222:.\Generated_Source\PSoC4/LED_CONTROL.c **** /*******************************************************************************
1223:.\Generated_Source\PSoC4/LED_CONTROL.c **** * Function Name: LED_CONTROL_TriggerCommand
1224:.\Generated_Source\PSoC4/LED_CONTROL.c **** ********************************************************************************
1225:.\Generated_Source\PSoC4/LED_CONTROL.c **** *
1226:.\Generated_Source\PSoC4/LED_CONTROL.c **** * Summary:
1227:.\Generated_Source\PSoC4/LED_CONTROL.c **** *  Triggers the designated command to occur on the designated TCPWM instances.
1228:.\Generated_Source\PSoC4/LED_CONTROL.c **** *  The mask can be used to apply this command simultaneously to more than one
1229:.\Generated_Source\PSoC4/LED_CONTROL.c **** *  instance.  This allows multiple TCPWM instances to be synchronized.
ARM GAS  C:\Users\TSUBAS~1\AppData\Local\Temp\cczdhWZx.s 			page 53


1230:.\Generated_Source\PSoC4/LED_CONTROL.c **** *
1231:.\Generated_Source\PSoC4/LED_CONTROL.c **** * Parameters:
1232:.\Generated_Source\PSoC4/LED_CONTROL.c **** *  mask: A combination of mask bits for each instance of the TCPWM that the
1233:.\Generated_Source\PSoC4/LED_CONTROL.c **** *        command should apply to.  This function from one instance can be used
1234:.\Generated_Source\PSoC4/LED_CONTROL.c **** *        to apply the command to any of the instances in the design.
1235:.\Generated_Source\PSoC4/LED_CONTROL.c **** *        The mask value for a specific instance is available with the MASK
1236:.\Generated_Source\PSoC4/LED_CONTROL.c **** *        define.
1237:.\Generated_Source\PSoC4/LED_CONTROL.c **** *  command: Enumerated command values. Capture command only applicable for
1238:.\Generated_Source\PSoC4/LED_CONTROL.c **** *           Timer/Counter with Capture and PWM modes.
1239:.\Generated_Source\PSoC4/LED_CONTROL.c **** *   Values:
1240:.\Generated_Source\PSoC4/LED_CONTROL.c **** *     - LED_CONTROL_CMD_CAPTURE    - Trigger Capture command
1241:.\Generated_Source\PSoC4/LED_CONTROL.c **** *     - LED_CONTROL_CMD_RELOAD     - Trigger Reload command
1242:.\Generated_Source\PSoC4/LED_CONTROL.c **** *     - LED_CONTROL_CMD_STOP       - Trigger Stop command
1243:.\Generated_Source\PSoC4/LED_CONTROL.c **** *     - LED_CONTROL_CMD_START      - Trigger Start command
1244:.\Generated_Source\PSoC4/LED_CONTROL.c **** *
1245:.\Generated_Source\PSoC4/LED_CONTROL.c **** * Return:
1246:.\Generated_Source\PSoC4/LED_CONTROL.c **** *  None
1247:.\Generated_Source\PSoC4/LED_CONTROL.c **** *
1248:.\Generated_Source\PSoC4/LED_CONTROL.c **** *******************************************************************************/
1249:.\Generated_Source\PSoC4/LED_CONTROL.c **** void LED_CONTROL_TriggerCommand(uint32 mask, uint32 command)
1250:.\Generated_Source\PSoC4/LED_CONTROL.c **** {
 1736              		.loc 1 1250 0
 1737              		.cfi_startproc
 1738 0000 90B5     		push	{r4, r7, lr}
 1739              	.LCFI90:
 1740              		.cfi_def_cfa_offset 12
 1741              		.cfi_offset 4, -12
 1742              		.cfi_offset 7, -8
 1743              		.cfi_offset 14, -4
 1744 0002 85B0     		sub	sp, sp, #20
 1745              	.LCFI91:
 1746              		.cfi_def_cfa_offset 32
 1747 0004 00AF     		add	r7, sp, #0
 1748              	.LCFI92:
 1749              		.cfi_def_cfa_register 7
 1750 0006 7860     		str	r0, [r7, #4]
 1751 0008 3960     		str	r1, [r7]
1251:.\Generated_Source\PSoC4/LED_CONTROL.c ****     uint8 enableInterrupts;
1252:.\Generated_Source\PSoC4/LED_CONTROL.c **** 
1253:.\Generated_Source\PSoC4/LED_CONTROL.c ****     enableInterrupts = CyEnterCriticalSection();
 1752              		.loc 1 1253 0
 1753 000a 3C1C     		mov	r4, r7
 1754 000c 0F34     		add	r4, r4, #15
 1755 000e FFF7FEFF 		bl	CyEnterCriticalSection
 1756 0012 031C     		mov	r3, r0
 1757 0014 2370     		strb	r3, [r4]
1254:.\Generated_Source\PSoC4/LED_CONTROL.c **** 
1255:.\Generated_Source\PSoC4/LED_CONTROL.c ****     LED_CONTROL_COMMAND_REG = ((uint32)(mask << command));
 1758              		.loc 1 1255 0
 1759 0016 084B     		ldr	r3, .L109
 1760 0018 3A68     		ldr	r2, [r7]
 1761 001a 7968     		ldr	r1, [r7, #4]
 1762 001c 081C     		mov	r0, r1
 1763 001e 9040     		lsl	r0, r0, r2
 1764 0020 021C     		mov	r2, r0
 1765 0022 1A60     		str	r2, [r3]
1256:.\Generated_Source\PSoC4/LED_CONTROL.c **** 
ARM GAS  C:\Users\TSUBAS~1\AppData\Local\Temp\cczdhWZx.s 			page 54


1257:.\Generated_Source\PSoC4/LED_CONTROL.c ****     CyExitCriticalSection(enableInterrupts);
 1766              		.loc 1 1257 0
 1767 0024 3B1C     		mov	r3, r7
 1768 0026 0F33     		add	r3, r3, #15
 1769 0028 1B78     		ldrb	r3, [r3]
 1770 002a 181C     		mov	r0, r3
 1771 002c FFF7FEFF 		bl	CyExitCriticalSection
1258:.\Generated_Source\PSoC4/LED_CONTROL.c **** }
 1772              		.loc 1 1258 0
 1773 0030 BD46     		mov	sp, r7
 1774 0032 05B0     		add	sp, sp, #20
 1775              		@ sp needed for prologue
 1776 0034 90BD     		pop	{r4, r7, pc}
 1777              	.L110:
 1778 0036 C046     		.align	2
 1779              	.L109:
 1780 0038 08000540 		.word	1074069512
 1781              		.cfi_endproc
 1782              	.LFE33:
 1783              		.size	LED_CONTROL_TriggerCommand, .-LED_CONTROL_TriggerCommand
 1784              		.section	.text.LED_CONTROL_ReadStatus,"ax",%progbits
 1785              		.align	2
 1786              		.global	LED_CONTROL_ReadStatus
 1787              		.code	16
 1788              		.thumb_func
 1789              		.type	LED_CONTROL_ReadStatus, %function
 1790              	LED_CONTROL_ReadStatus:
 1791              	.LFB34:
1259:.\Generated_Source\PSoC4/LED_CONTROL.c **** 
1260:.\Generated_Source\PSoC4/LED_CONTROL.c **** 
1261:.\Generated_Source\PSoC4/LED_CONTROL.c **** /*******************************************************************************
1262:.\Generated_Source\PSoC4/LED_CONTROL.c **** * Function Name: LED_CONTROL_ReadStatus
1263:.\Generated_Source\PSoC4/LED_CONTROL.c **** ********************************************************************************
1264:.\Generated_Source\PSoC4/LED_CONTROL.c **** *
1265:.\Generated_Source\PSoC4/LED_CONTROL.c **** * Summary:
1266:.\Generated_Source\PSoC4/LED_CONTROL.c **** *  Reads the status of the LED_CONTROL.
1267:.\Generated_Source\PSoC4/LED_CONTROL.c **** *
1268:.\Generated_Source\PSoC4/LED_CONTROL.c **** * Parameters:
1269:.\Generated_Source\PSoC4/LED_CONTROL.c **** *  None
1270:.\Generated_Source\PSoC4/LED_CONTROL.c **** *
1271:.\Generated_Source\PSoC4/LED_CONTROL.c **** * Return:
1272:.\Generated_Source\PSoC4/LED_CONTROL.c **** *  Status
1273:.\Generated_Source\PSoC4/LED_CONTROL.c **** *   Values:
1274:.\Generated_Source\PSoC4/LED_CONTROL.c **** *     - LED_CONTROL_STATUS_DOWN    - Set if counting down
1275:.\Generated_Source\PSoC4/LED_CONTROL.c **** *     - LED_CONTROL_STATUS_RUNNING - Set if counter is running
1276:.\Generated_Source\PSoC4/LED_CONTROL.c **** *
1277:.\Generated_Source\PSoC4/LED_CONTROL.c **** *******************************************************************************/
1278:.\Generated_Source\PSoC4/LED_CONTROL.c **** uint32 LED_CONTROL_ReadStatus(void)
1279:.\Generated_Source\PSoC4/LED_CONTROL.c **** {
 1792              		.loc 1 1279 0
 1793              		.cfi_startproc
 1794 0000 80B5     		push	{r7, lr}
 1795              	.LCFI93:
 1796              		.cfi_def_cfa_offset 8
 1797              		.cfi_offset 7, -8
 1798              		.cfi_offset 14, -4
 1799 0002 00AF     		add	r7, sp, #0
ARM GAS  C:\Users\TSUBAS~1\AppData\Local\Temp\cczdhWZx.s 			page 55


 1800              	.LCFI94:
 1801              		.cfi_def_cfa_register 7
1280:.\Generated_Source\PSoC4/LED_CONTROL.c ****     return ((LED_CONTROL_STATUS_REG >> LED_CONTROL_RUNNING_STATUS_SHIFT) |
 1802              		.loc 1 1280 0
 1803 0004 054B     		ldr	r3, .L113
 1804 0006 1B68     		ldr	r3, [r3]
 1805 0008 9A0F     		lsr	r2, r3, #30
1281:.\Generated_Source\PSoC4/LED_CONTROL.c ****             (LED_CONTROL_STATUS_REG & LED_CONTROL_STATUS_DOWN));
 1806              		.loc 1 1281 0
 1807 000a 044B     		ldr	r3, .L113
 1808 000c 1968     		ldr	r1, [r3]
 1809 000e 0123     		mov	r3, #1
 1810 0010 0B40     		and	r3, r1
1280:.\Generated_Source\PSoC4/LED_CONTROL.c ****     return ((LED_CONTROL_STATUS_REG >> LED_CONTROL_RUNNING_STATUS_SHIFT) |
 1811              		.loc 1 1280 0
 1812 0012 1343     		orr	r3, r2
1282:.\Generated_Source\PSoC4/LED_CONTROL.c **** }
 1813              		.loc 1 1282 0
 1814 0014 181C     		mov	r0, r3
 1815 0016 BD46     		mov	sp, r7
 1816              		@ sp needed for prologue
 1817 0018 80BD     		pop	{r7, pc}
 1818              	.L114:
 1819 001a C046     		.align	2
 1820              	.L113:
 1821 001c 04010540 		.word	1074069764
 1822              		.cfi_endproc
 1823              	.LFE34:
 1824              		.size	LED_CONTROL_ReadStatus, .-LED_CONTROL_ReadStatus
 1825              		.section	.text.LED_CONTROL_SetInterruptMode,"ax",%progbits
 1826              		.align	2
 1827              		.global	LED_CONTROL_SetInterruptMode
 1828              		.code	16
 1829              		.thumb_func
 1830              		.type	LED_CONTROL_SetInterruptMode, %function
 1831              	LED_CONTROL_SetInterruptMode:
 1832              	.LFB35:
1283:.\Generated_Source\PSoC4/LED_CONTROL.c **** 
1284:.\Generated_Source\PSoC4/LED_CONTROL.c **** 
1285:.\Generated_Source\PSoC4/LED_CONTROL.c **** /*******************************************************************************
1286:.\Generated_Source\PSoC4/LED_CONTROL.c **** * Function Name: LED_CONTROL_SetInterruptMode
1287:.\Generated_Source\PSoC4/LED_CONTROL.c **** ********************************************************************************
1288:.\Generated_Source\PSoC4/LED_CONTROL.c **** *
1289:.\Generated_Source\PSoC4/LED_CONTROL.c **** * Summary:
1290:.\Generated_Source\PSoC4/LED_CONTROL.c **** *  Sets the interrupt mask to control which interrupt
1291:.\Generated_Source\PSoC4/LED_CONTROL.c **** *  requests generate the interrupt signal.
1292:.\Generated_Source\PSoC4/LED_CONTROL.c **** *
1293:.\Generated_Source\PSoC4/LED_CONTROL.c **** * Parameters:
1294:.\Generated_Source\PSoC4/LED_CONTROL.c **** *   interruptMask: Mask of bits to be enabled
1295:.\Generated_Source\PSoC4/LED_CONTROL.c **** *   Values:
1296:.\Generated_Source\PSoC4/LED_CONTROL.c **** *     - LED_CONTROL_INTR_MASK_TC       - Terminal count mask
1297:.\Generated_Source\PSoC4/LED_CONTROL.c **** *     - LED_CONTROL_INTR_MASK_CC_MATCH - Compare count / capture mask
1298:.\Generated_Source\PSoC4/LED_CONTROL.c **** *
1299:.\Generated_Source\PSoC4/LED_CONTROL.c **** * Return:
1300:.\Generated_Source\PSoC4/LED_CONTROL.c **** *  None
1301:.\Generated_Source\PSoC4/LED_CONTROL.c **** *
1302:.\Generated_Source\PSoC4/LED_CONTROL.c **** *******************************************************************************/
ARM GAS  C:\Users\TSUBAS~1\AppData\Local\Temp\cczdhWZx.s 			page 56


1303:.\Generated_Source\PSoC4/LED_CONTROL.c **** void LED_CONTROL_SetInterruptMode(uint32 interruptMask)
1304:.\Generated_Source\PSoC4/LED_CONTROL.c **** {
 1833              		.loc 1 1304 0
 1834              		.cfi_startproc
 1835 0000 80B5     		push	{r7, lr}
 1836              	.LCFI95:
 1837              		.cfi_def_cfa_offset 8
 1838              		.cfi_offset 7, -8
 1839              		.cfi_offset 14, -4
 1840 0002 82B0     		sub	sp, sp, #8
 1841              	.LCFI96:
 1842              		.cfi_def_cfa_offset 16
 1843 0004 00AF     		add	r7, sp, #0
 1844              	.LCFI97:
 1845              		.cfi_def_cfa_register 7
 1846 0006 7860     		str	r0, [r7, #4]
1305:.\Generated_Source\PSoC4/LED_CONTROL.c ****     LED_CONTROL_INTERRUPT_MASK_REG =  interruptMask;
 1847              		.loc 1 1305 0
 1848 0008 024B     		ldr	r3, .L116
 1849 000a 7A68     		ldr	r2, [r7, #4]
 1850 000c 1A60     		str	r2, [r3]
1306:.\Generated_Source\PSoC4/LED_CONTROL.c **** }
 1851              		.loc 1 1306 0
 1852 000e BD46     		mov	sp, r7
 1853 0010 02B0     		add	sp, sp, #8
 1854              		@ sp needed for prologue
 1855 0012 80BD     		pop	{r7, pc}
 1856              	.L117:
 1857              		.align	2
 1858              	.L116:
 1859 0014 38010540 		.word	1074069816
 1860              		.cfi_endproc
 1861              	.LFE35:
 1862              		.size	LED_CONTROL_SetInterruptMode, .-LED_CONTROL_SetInterruptMode
 1863              		.section	.text.LED_CONTROL_GetInterruptSourceMasked,"ax",%progbits
 1864              		.align	2
 1865              		.global	LED_CONTROL_GetInterruptSourceMasked
 1866              		.code	16
 1867              		.thumb_func
 1868              		.type	LED_CONTROL_GetInterruptSourceMasked, %function
 1869              	LED_CONTROL_GetInterruptSourceMasked:
 1870              	.LFB36:
1307:.\Generated_Source\PSoC4/LED_CONTROL.c **** 
1308:.\Generated_Source\PSoC4/LED_CONTROL.c **** 
1309:.\Generated_Source\PSoC4/LED_CONTROL.c **** /*******************************************************************************
1310:.\Generated_Source\PSoC4/LED_CONTROL.c **** * Function Name: LED_CONTROL_GetInterruptSourceMasked
1311:.\Generated_Source\PSoC4/LED_CONTROL.c **** ********************************************************************************
1312:.\Generated_Source\PSoC4/LED_CONTROL.c **** *
1313:.\Generated_Source\PSoC4/LED_CONTROL.c **** * Summary:
1314:.\Generated_Source\PSoC4/LED_CONTROL.c **** *  Gets the interrupt requests masked by the interrupt mask.
1315:.\Generated_Source\PSoC4/LED_CONTROL.c **** *
1316:.\Generated_Source\PSoC4/LED_CONTROL.c **** * Parameters:
1317:.\Generated_Source\PSoC4/LED_CONTROL.c **** *   None
1318:.\Generated_Source\PSoC4/LED_CONTROL.c **** *
1319:.\Generated_Source\PSoC4/LED_CONTROL.c **** * Return:
1320:.\Generated_Source\PSoC4/LED_CONTROL.c **** *  Masked interrupt source
1321:.\Generated_Source\PSoC4/LED_CONTROL.c **** *   Values:
ARM GAS  C:\Users\TSUBAS~1\AppData\Local\Temp\cczdhWZx.s 			page 57


1322:.\Generated_Source\PSoC4/LED_CONTROL.c **** *     - LED_CONTROL_INTR_MASK_TC       - Terminal count mask
1323:.\Generated_Source\PSoC4/LED_CONTROL.c **** *     - LED_CONTROL_INTR_MASK_CC_MATCH - Compare count / capture mask
1324:.\Generated_Source\PSoC4/LED_CONTROL.c **** *
1325:.\Generated_Source\PSoC4/LED_CONTROL.c **** *******************************************************************************/
1326:.\Generated_Source\PSoC4/LED_CONTROL.c **** uint32 LED_CONTROL_GetInterruptSourceMasked(void)
1327:.\Generated_Source\PSoC4/LED_CONTROL.c **** {
 1871              		.loc 1 1327 0
 1872              		.cfi_startproc
 1873 0000 80B5     		push	{r7, lr}
 1874              	.LCFI98:
 1875              		.cfi_def_cfa_offset 8
 1876              		.cfi_offset 7, -8
 1877              		.cfi_offset 14, -4
 1878 0002 00AF     		add	r7, sp, #0
 1879              	.LCFI99:
 1880              		.cfi_def_cfa_register 7
1328:.\Generated_Source\PSoC4/LED_CONTROL.c ****     return (LED_CONTROL_INTERRUPT_MASKED_REG);
 1881              		.loc 1 1328 0
 1882 0004 024B     		ldr	r3, .L120
 1883 0006 1B68     		ldr	r3, [r3]
1329:.\Generated_Source\PSoC4/LED_CONTROL.c **** }
 1884              		.loc 1 1329 0
 1885 0008 181C     		mov	r0, r3
 1886 000a BD46     		mov	sp, r7
 1887              		@ sp needed for prologue
 1888 000c 80BD     		pop	{r7, pc}
 1889              	.L121:
 1890 000e C046     		.align	2
 1891              	.L120:
 1892 0010 3C010540 		.word	1074069820
 1893              		.cfi_endproc
 1894              	.LFE36:
 1895              		.size	LED_CONTROL_GetInterruptSourceMasked, .-LED_CONTROL_GetInterruptSourceMasked
 1896              		.section	.text.LED_CONTROL_GetInterruptSource,"ax",%progbits
 1897              		.align	2
 1898              		.global	LED_CONTROL_GetInterruptSource
 1899              		.code	16
 1900              		.thumb_func
 1901              		.type	LED_CONTROL_GetInterruptSource, %function
 1902              	LED_CONTROL_GetInterruptSource:
 1903              	.LFB37:
1330:.\Generated_Source\PSoC4/LED_CONTROL.c **** 
1331:.\Generated_Source\PSoC4/LED_CONTROL.c **** 
1332:.\Generated_Source\PSoC4/LED_CONTROL.c **** /*******************************************************************************
1333:.\Generated_Source\PSoC4/LED_CONTROL.c **** * Function Name: LED_CONTROL_GetInterruptSource
1334:.\Generated_Source\PSoC4/LED_CONTROL.c **** ********************************************************************************
1335:.\Generated_Source\PSoC4/LED_CONTROL.c **** *
1336:.\Generated_Source\PSoC4/LED_CONTROL.c **** * Summary:
1337:.\Generated_Source\PSoC4/LED_CONTROL.c **** *  Gets the interrupt requests (without masking).
1338:.\Generated_Source\PSoC4/LED_CONTROL.c **** *
1339:.\Generated_Source\PSoC4/LED_CONTROL.c **** * Parameters:
1340:.\Generated_Source\PSoC4/LED_CONTROL.c **** *  None
1341:.\Generated_Source\PSoC4/LED_CONTROL.c **** *
1342:.\Generated_Source\PSoC4/LED_CONTROL.c **** * Return:
1343:.\Generated_Source\PSoC4/LED_CONTROL.c **** *  Interrupt request value
1344:.\Generated_Source\PSoC4/LED_CONTROL.c **** *   Values:
1345:.\Generated_Source\PSoC4/LED_CONTROL.c **** *     - LED_CONTROL_INTR_MASK_TC       - Terminal count mask
ARM GAS  C:\Users\TSUBAS~1\AppData\Local\Temp\cczdhWZx.s 			page 58


1346:.\Generated_Source\PSoC4/LED_CONTROL.c **** *     - LED_CONTROL_INTR_MASK_CC_MATCH - Compare count / capture mask
1347:.\Generated_Source\PSoC4/LED_CONTROL.c **** *
1348:.\Generated_Source\PSoC4/LED_CONTROL.c **** *******************************************************************************/
1349:.\Generated_Source\PSoC4/LED_CONTROL.c **** uint32 LED_CONTROL_GetInterruptSource(void)
1350:.\Generated_Source\PSoC4/LED_CONTROL.c **** {
 1904              		.loc 1 1350 0
 1905              		.cfi_startproc
 1906 0000 80B5     		push	{r7, lr}
 1907              	.LCFI100:
 1908              		.cfi_def_cfa_offset 8
 1909              		.cfi_offset 7, -8
 1910              		.cfi_offset 14, -4
 1911 0002 00AF     		add	r7, sp, #0
 1912              	.LCFI101:
 1913              		.cfi_def_cfa_register 7
1351:.\Generated_Source\PSoC4/LED_CONTROL.c ****     return (LED_CONTROL_INTERRUPT_REQ_REG);
 1914              		.loc 1 1351 0
 1915 0004 024B     		ldr	r3, .L124
 1916 0006 1B68     		ldr	r3, [r3]
1352:.\Generated_Source\PSoC4/LED_CONTROL.c **** }
 1917              		.loc 1 1352 0
 1918 0008 181C     		mov	r0, r3
 1919 000a BD46     		mov	sp, r7
 1920              		@ sp needed for prologue
 1921 000c 80BD     		pop	{r7, pc}
 1922              	.L125:
 1923 000e C046     		.align	2
 1924              	.L124:
 1925 0010 30010540 		.word	1074069808
 1926              		.cfi_endproc
 1927              	.LFE37:
 1928              		.size	LED_CONTROL_GetInterruptSource, .-LED_CONTROL_GetInterruptSource
 1929              		.section	.text.LED_CONTROL_ClearInterrupt,"ax",%progbits
 1930              		.align	2
 1931              		.global	LED_CONTROL_ClearInterrupt
 1932              		.code	16
 1933              		.thumb_func
 1934              		.type	LED_CONTROL_ClearInterrupt, %function
 1935              	LED_CONTROL_ClearInterrupt:
 1936              	.LFB38:
1353:.\Generated_Source\PSoC4/LED_CONTROL.c **** 
1354:.\Generated_Source\PSoC4/LED_CONTROL.c **** 
1355:.\Generated_Source\PSoC4/LED_CONTROL.c **** /*******************************************************************************
1356:.\Generated_Source\PSoC4/LED_CONTROL.c **** * Function Name: LED_CONTROL_ClearInterrupt
1357:.\Generated_Source\PSoC4/LED_CONTROL.c **** ********************************************************************************
1358:.\Generated_Source\PSoC4/LED_CONTROL.c **** *
1359:.\Generated_Source\PSoC4/LED_CONTROL.c **** * Summary:
1360:.\Generated_Source\PSoC4/LED_CONTROL.c **** *  Clears the interrupt request.
1361:.\Generated_Source\PSoC4/LED_CONTROL.c **** *
1362:.\Generated_Source\PSoC4/LED_CONTROL.c **** * Parameters:
1363:.\Generated_Source\PSoC4/LED_CONTROL.c **** *   interruptMask: Mask of interrupts to clear
1364:.\Generated_Source\PSoC4/LED_CONTROL.c **** *   Values:
1365:.\Generated_Source\PSoC4/LED_CONTROL.c **** *     - LED_CONTROL_INTR_MASK_TC       - Terminal count mask
1366:.\Generated_Source\PSoC4/LED_CONTROL.c **** *     - LED_CONTROL_INTR_MASK_CC_MATCH - Compare count / capture mask
1367:.\Generated_Source\PSoC4/LED_CONTROL.c **** *
1368:.\Generated_Source\PSoC4/LED_CONTROL.c **** * Return:
1369:.\Generated_Source\PSoC4/LED_CONTROL.c **** *  None
ARM GAS  C:\Users\TSUBAS~1\AppData\Local\Temp\cczdhWZx.s 			page 59


1370:.\Generated_Source\PSoC4/LED_CONTROL.c **** *
1371:.\Generated_Source\PSoC4/LED_CONTROL.c **** *******************************************************************************/
1372:.\Generated_Source\PSoC4/LED_CONTROL.c **** void LED_CONTROL_ClearInterrupt(uint32 interruptMask)
1373:.\Generated_Source\PSoC4/LED_CONTROL.c **** {
 1937              		.loc 1 1373 0
 1938              		.cfi_startproc
 1939 0000 80B5     		push	{r7, lr}
 1940              	.LCFI102:
 1941              		.cfi_def_cfa_offset 8
 1942              		.cfi_offset 7, -8
 1943              		.cfi_offset 14, -4
 1944 0002 82B0     		sub	sp, sp, #8
 1945              	.LCFI103:
 1946              		.cfi_def_cfa_offset 16
 1947 0004 00AF     		add	r7, sp, #0
 1948              	.LCFI104:
 1949              		.cfi_def_cfa_register 7
 1950 0006 7860     		str	r0, [r7, #4]
1374:.\Generated_Source\PSoC4/LED_CONTROL.c ****     LED_CONTROL_INTERRUPT_REQ_REG = interruptMask;
 1951              		.loc 1 1374 0
 1952 0008 024B     		ldr	r3, .L127
 1953 000a 7A68     		ldr	r2, [r7, #4]
 1954 000c 1A60     		str	r2, [r3]
1375:.\Generated_Source\PSoC4/LED_CONTROL.c **** }
 1955              		.loc 1 1375 0
 1956 000e BD46     		mov	sp, r7
 1957 0010 02B0     		add	sp, sp, #8
 1958              		@ sp needed for prologue
 1959 0012 80BD     		pop	{r7, pc}
 1960              	.L128:
 1961              		.align	2
 1962              	.L127:
 1963 0014 30010540 		.word	1074069808
 1964              		.cfi_endproc
 1965              	.LFE38:
 1966              		.size	LED_CONTROL_ClearInterrupt, .-LED_CONTROL_ClearInterrupt
 1967              		.section	.text.LED_CONTROL_SetInterrupt,"ax",%progbits
 1968              		.align	2
 1969              		.global	LED_CONTROL_SetInterrupt
 1970              		.code	16
 1971              		.thumb_func
 1972              		.type	LED_CONTROL_SetInterrupt, %function
 1973              	LED_CONTROL_SetInterrupt:
 1974              	.LFB39:
1376:.\Generated_Source\PSoC4/LED_CONTROL.c **** 
1377:.\Generated_Source\PSoC4/LED_CONTROL.c **** 
1378:.\Generated_Source\PSoC4/LED_CONTROL.c **** /*******************************************************************************
1379:.\Generated_Source\PSoC4/LED_CONTROL.c **** * Function Name: LED_CONTROL_SetInterrupt
1380:.\Generated_Source\PSoC4/LED_CONTROL.c **** ********************************************************************************
1381:.\Generated_Source\PSoC4/LED_CONTROL.c **** *
1382:.\Generated_Source\PSoC4/LED_CONTROL.c **** * Summary:
1383:.\Generated_Source\PSoC4/LED_CONTROL.c **** *  Sets a software interrupt request.
1384:.\Generated_Source\PSoC4/LED_CONTROL.c **** *
1385:.\Generated_Source\PSoC4/LED_CONTROL.c **** * Parameters:
1386:.\Generated_Source\PSoC4/LED_CONTROL.c **** *   interruptMask: Mask of interrupts to set
1387:.\Generated_Source\PSoC4/LED_CONTROL.c **** *   Values:
1388:.\Generated_Source\PSoC4/LED_CONTROL.c **** *     - LED_CONTROL_INTR_MASK_TC       - Terminal count mask
ARM GAS  C:\Users\TSUBAS~1\AppData\Local\Temp\cczdhWZx.s 			page 60


1389:.\Generated_Source\PSoC4/LED_CONTROL.c **** *     - LED_CONTROL_INTR_MASK_CC_MATCH - Compare count / capture mask
1390:.\Generated_Source\PSoC4/LED_CONTROL.c **** *
1391:.\Generated_Source\PSoC4/LED_CONTROL.c **** * Return:
1392:.\Generated_Source\PSoC4/LED_CONTROL.c **** *  None
1393:.\Generated_Source\PSoC4/LED_CONTROL.c **** *
1394:.\Generated_Source\PSoC4/LED_CONTROL.c **** *******************************************************************************/
1395:.\Generated_Source\PSoC4/LED_CONTROL.c **** void LED_CONTROL_SetInterrupt(uint32 interruptMask)
1396:.\Generated_Source\PSoC4/LED_CONTROL.c **** {
 1975              		.loc 1 1396 0
 1976              		.cfi_startproc
 1977 0000 80B5     		push	{r7, lr}
 1978              	.LCFI105:
 1979              		.cfi_def_cfa_offset 8
 1980              		.cfi_offset 7, -8
 1981              		.cfi_offset 14, -4
 1982 0002 82B0     		sub	sp, sp, #8
 1983              	.LCFI106:
 1984              		.cfi_def_cfa_offset 16
 1985 0004 00AF     		add	r7, sp, #0
 1986              	.LCFI107:
 1987              		.cfi_def_cfa_register 7
 1988 0006 7860     		str	r0, [r7, #4]
1397:.\Generated_Source\PSoC4/LED_CONTROL.c ****     LED_CONTROL_INTERRUPT_SET_REG = interruptMask;
 1989              		.loc 1 1397 0
 1990 0008 024B     		ldr	r3, .L130
 1991 000a 7A68     		ldr	r2, [r7, #4]
 1992 000c 1A60     		str	r2, [r3]
1398:.\Generated_Source\PSoC4/LED_CONTROL.c **** }
 1993              		.loc 1 1398 0
 1994 000e BD46     		mov	sp, r7
 1995 0010 02B0     		add	sp, sp, #8
 1996              		@ sp needed for prologue
 1997 0012 80BD     		pop	{r7, pc}
 1998              	.L131:
 1999              		.align	2
 2000              	.L130:
 2001 0014 34010540 		.word	1074069812
 2002              		.cfi_endproc
 2003              	.LFE39:
 2004              		.size	LED_CONTROL_SetInterrupt, .-LED_CONTROL_SetInterrupt
 2005              		.text
 2006              	.Letext0:
 2007              		.file 2 ".\\Generated_Source\\PSoC4\\cytypes.h"